MODULE windows x86_64 0D90B398AD8C47A5AE47DD31625B8F902 example-windows.pdb
INFO CODE_ID 5DD73FFE8C000 example-windows.exe
FUNC 6bc0 27 0 main()
FUNC 6bf0 46 0 f(int*)
FUNC 6c40 26 0 g(int*)
FUNC 6c90 49 0 sprintf(char* const, char const* const, <NoType>)
FUNC 6cf0 4b 0 vsprintf(char* const, char const* const, char*)
FUNC 6d50 48 0 snprintf(char* const, const unsigned long long, char const* const, <NoType>)
FUNC 6db0 51 0 vsnprintf(char* const, const unsigned long long, char const* const, char*)
FUNC 6e20 43 0 vsprintf_l(char* const, char const* const, __crt_locale_pointers* const, char*)
FUNC 6e80 d9 0 vsnprintf_l(char* const, const unsigned long long, char const* const, __crt_locale_pointers* const, char*)
FUNC 6f90 8 0 _local_stdio_printf_options()
FUNC 6fa0 64 0 printf(char const* const, <NoType>)
FUNC 7020 6c 0 vfprintf_l(_iobuf* const, char const* const, __crt_locale_pointers* const, char*)
FUNC 97b0 b7 0 pre_c_initialization()
FUNC 9894 10 0 post_pgo_initialization()
FUNC 98a8 19 0 pre_cpp_initialization()
FUNC 98c8 12 0 __scrt_common_main()
FUNC 98e0 17c 0 __scrt_common_main_seh()
FUNC 9abc 14 0 static __scrt_narrow_argv_policy::configure_argv()
FUNC 9ad8 5 0 static __scrt_narrow_environment_policy::initialize_environment()
FUNC 9ae0 36 0 invoke_main()
FUNC 9b24 a 0 static __scrt_main_policy::set_app_type()
FUNC 9b30 1b 0 static __scrt_file_policy::set_commode()
FUNC 9b54 14 0 static __scrt_file_policy::set_fmode()
FUNC 9b70 12 0 mainCRTStartup()
FUNC 9b88 16 0 __crt_fast_decode_pointer<void (__cdecl**)(void)>(void (** const)())
FUNC 9ba4 1e 0 __crt_fast_encode_pointer<void (__cdecl**)(void)>(void (** const)())
FUNC 9bcc 9 0 __crt_rotate_pointer_value(const unsigned long long, const int)
FUNC 9bd8 49 0 find_pe_section(unsigned char* const, const unsigned long long)
FUNC 9c34 2f 0 is_potentially_valid_image_base(void* const)
FUNC 9c70 a 0 NtCurrentTeb()
FUNC 9c7c 39 0 _scrt_acquire_startup_lock()
FUNC 9cc4 34 0 _scrt_dllmain_after_initialize_c()
FUNC 9d08 15 0 _scrt_dllmain_before_initialize_c()
FUNC 9d24 28 0 _scrt_dllmain_crt_thread_attach()
FUNC 9d58 15 0 _scrt_dllmain_crt_thread_detach()
FUNC 9d74 60 0 _scrt_dllmain_exception_filter(HINSTANCE__*, unsigned long, void*, int (*)(HINSTANCE__*, unsigned long, void*), unsigned long, _EXCEPTION_POINTERS*)
FUNC 9dec 30 0 _scrt_dllmain_uninitialize_c()
FUNC 9e28 14 0 _scrt_dllmain_uninitialize_critical()
FUNC 9e44 49 0 _scrt_initialize_crt(__scrt_module_type)
FUNC 9ea0 d8 0 _scrt_initialize_onexit_tables(__scrt_module_type)
FUNC 9fb0 99 0 _scrt_is_nonwritable_in_current_image(void const*)
FUNC a070 24 0 _scrt_release_startup_lock(bool)
FUNC a0a0 2b 0 _scrt_uninitialize_crt(bool, bool)
FUNC a0d8 4f 0 onexit(int (*)())
FUNC a13c 36 0 at_quick_exit(void (*)())
FUNC a180 17 0 atexit(void (*)())
FUNC a19c 6b 0 __get_entropy()
FUNC a224 ac 0 _security_init_cookie()
FUNC a2fc 3 0 matherr(_exception*)
FUNC a300 6 0 get_startup_argv_mode()
FUNC a308 3 0 get_startup_commit_mode()
FUNC a30c 6 0 get_startup_file_mode()
FUNC a314 3 0 get_startup_new_mode()
FUNC a318 3 0 get_startup_thread_locale_mode()
FUNC a31c e 0 __scrt_initialize_type_info()
FUNC a330 c 0 __scrt_uninitialize_type_info()
FUNC a340 3 0 should_initialize_environment()
FUNC a344 3 0 initialize_invalid_parameter_handler()
FUNC a348 3 0 initialize_denormal_control()
FUNC a34c 8 0 _local_stdio_scanf_options()
FUNC a358 1b 0 _scrt_initialize_default_local_stdio_options()
FUNC a37c c 0 _scrt_is_user_matherr_present(<NoType>)
FUNC a38c 8 0 _scrt_get_dyn_tls_init_callback(<NoType>)
FUNC a398 8 0 _scrt_get_dyn_tls_dtor_callback(<NoType>)
FUNC a3a4 8 0 _crt_debugger_hook(int)
FUNC a3b0 14a 0 _scrt_fastfail(unsigned int)
FUNC a54c 3a 0 _scrt_get_show_window_mode()
FUNC a594 5 0 _scrt_initialize_mta()
FUNC a59c 3 0 _scrt_initialize_winrt()
FUNC a5a0 52 0 _scrt_is_managed_app()
FUNC a608 e 0 _scrt_set_unhandled_exception_filter()
FUNC a61c 3 0 _scrt_stub_for_initialize_mta()
FUNC a620 38 0 _scrt_unhandled_exception_filter(_EXCEPTION_POINTERS* const)
FUNC a668 3c 0 RTC_Initialize()
FUNC a6b4 3c 0 RTC_Terminate()
FUNC a700 3 0 guard_check_icall_nop(unsigned long long)
FUNC a704 4 0 ReadNoFence64(long long const*)
FUNC a708 4 0 ReadPointerNoFence(void* const*)
FUNC a70c 17 0 guard_icall_checks_enforced()
FUNC a728 3 0 guard_rf_checks_enforced()
FUNC a72c 1b9 0 _isa_available_init(<NoType>)
FUNC a954 c 0 _scrt_is_ucrt_dll_in_use(<NoType>)
PUBLIC a970 0 QueryPerformanceCounter
PUBLIC a976 0 GetCurrentProcessId
PUBLIC a97c 0 GetCurrentThreadId
PUBLIC a982 0 GetSystemTimeAsFileTime
PUBLIC a988 0 InitializeSListHead
PUBLIC a98e 0 RtlCaptureContext
PUBLIC a994 0 RtlLookupFunctionEntry
PUBLIC a99a 0 RtlVirtualUnwind
PUBLIC a9a0 0 IsDebuggerPresent
PUBLIC a9a6 0 UnhandledExceptionFilter
PUBLIC a9ac 0 SetUnhandledExceptionFilter
PUBLIC a9b2 0 GetStartupInfoW
PUBLIC a9b8 0 IsProcessorFeaturePresent
PUBLIC a9be 0 GetModuleHandleW
FUNC a9c4 20b 0 _C_specific_handler(_EXCEPTION_RECORD*, void*, _CONTEXT*, _DISPATCHER_CONTEXT*)
FUNC ac54 32 0 _vcrt_initialize()
FUNC ac94 14 0 _vcrt_thread_attach()
FUNC acb0 12 0 _vcrt_thread_detach()
FUNC acc8 20 0 _vcrt_uninitialize(bool)
FUNC acf0 10 0 _vcrt_uninitialize_critical()
FUNC ad04 3 0 init_memcpy_functions()
FUNC ad08 5 0 static <lambda_02a71323d951a238fa4826e9f186893b>::<lambda_invoker_cdecl>(void* const)
FUNC ad10 5 0 static <lambda_ab747d7d039e86ead2ea2c584b0f6318>::<lambda_invoker_cdecl>(const unsigned long long)
FUNC ad18 8 0 __crt_internal_free_policy::operator()<char>(char const* const) const
FUNC ad24 8 0 __crt_internal_free_policy::operator()<void>(void const* const) const
FUNC ad30 9 0 __crt_interlocked_compare_exchange_pointer<char const ,char *,std::nullptr_t>(char const* const*, char* const, void const*)
FUNC ad3c 4 0 __crt_interlocked_read_pointer<char const >(char const* const*)
FUNC ad40 7 0 __crt_unique_heap_ptr<char,__crt_internal_free_policy>::__crt_unique_heap_ptr<char,__crt_internal_free_policy>(char* const)
FUNC ad48 7 0 __crt_unique_heap_ptr<void,__crt_internal_free_policy>::__crt_unique_heap_ptr<void,__crt_internal_free_policy>(void* const)
FUNC ad50 1b 0 __crt_unique_heap_ptr<char,__crt_internal_free_policy>::~__crt_unique_heap_ptr<char,__crt_internal_free_policy>()
FUNC ad74 1b 0 __crt_unique_heap_ptr<void,__crt_internal_free_policy>::~__crt_unique_heap_ptr<void,__crt_internal_free_policy>()
FUNC ad98 8 0 <lambda_02a71323d951a238fa4826e9f186893b>::operator void (__cdecl*)(void * const)() const
FUNC ada4 8 0 <lambda_ab747d7d039e86ead2ea2c584b0f6318>::operator void * (__cdecl*)(unsigned __int64)() const
FUNC adb0 8 0 __crt_unique_heap_ptr<char,__crt_internal_free_policy>::operator bool() const
FUNC adbc 8 0 __crt_unique_heap_ptr<void,__crt_internal_free_policy>::operator bool() const
FUNC adc8 8 0 <lambda_02a71323d951a238fa4826e9f186893b>::operator()(void* const) const
FUNC add4 8 0 <lambda_ab747d7d039e86ead2ea2c584b0f6318>::operator()(const unsigned long long) const
FUNC ade0 4 0 __crt_interlocked_read_64(long long const*)
FUNC ade4 8 0 __crt_unique_heap_ptr<void,__crt_internal_free_policy>::detach()
FUNC adf0 4 0 __crt_unique_heap_ptr<char,__crt_internal_free_policy>::get() const
FUNC adf4 4 0 __crt_unique_heap_ptr<void,__crt_internal_free_policy>::get() const
FUNC adf8 8 0 __crt_unique_heap_ptr<char,__crt_internal_free_policy>::is_valid() const
FUNC ae04 8 0 __crt_unique_heap_ptr<void,__crt_internal_free_policy>::is_valid() const
FUNC ae10 1b 0 __crt_unique_heap_ptr<char,__crt_internal_free_policy>::release()
FUNC ae34 1b 0 __crt_unique_heap_ptr<void,__crt_internal_free_policy>::release()
FUNC ae58 27 0 _std_type_info_compare(__std_type_info_data const*, __std_type_info_data const*)
FUNC ae88 2a 0 _std_type_info_destroy_list(__type_info_node*)
FUNC aebc 3b 0 _std_type_info_hash(__std_type_info_data const*)
FUNC af08 11c 0 _std_type_info_name(__std_type_info_data*, __type_info_node*)
FUNC b080 10 0 memset_repmovs()
FUNC b0a0 190 0 memset()
FUNC b2b0 18 0 NLG_Notify()
FUNC b2d0 1 0 _NLG_Dispatch2()
FUNC b2e0 1 0 _NLG_Return2()
FUNC b2f4 5 0 __except_get_jumpbuf_sp(_SETJMP_FLOAT128*)
FUNC b2fc 37 0 _except_validate_context_record(_CONTEXT*)
FUNC b340 3f 0 _except_validate_jump_buffer(_SETJMP_FLOAT128*)
FUNC b390 5b 0 _except_validate_jump_buffer_common(_SETJMP_FLOAT128*, void* (*)(_SETJMP_FLOAT128*))
FUNC b404 71 0 _DestructExceptionObject(EHExceptionRecord*, unsigned char)
FUNC b494 3 0 _CallMemberFunction0(void* const, void* const)
FUNC b498 5 0 type_info::raw_name() const
FUNC b4a0 2f 0 IsExceptionObjectToBeDestroyed(void*)
FUNC b4dc 8 0 SetWinRTOutOfMemoryExceptionCallback(void* (*)())
FUNC b4e8 23 0 _AdjustPointer(void*, PMD const&)
FUNC b514 4a 0 _FrameUnwindFilter(_EXCEPTION_POINTERS*)
FUNC b570 5b 0 _GetPlatformExceptionInfo(int*)
FUNC b5e4 12 0 _current_exception()
FUNC b5fc 12 0 _current_exception_context()
FUNC b614 12 0 _processing_throw()
FUNC b62c a 0 _std_terminate()
FUNC b638 a5 0 is_exception_typeof(type_info const&, _EXCEPTION_POINTERS*)
FUNC b708 8 0 __crt_internal_free_policy::operator()<__vcrt_ptd>(__vcrt_ptd const* const) const
FUNC b714 7 0 __crt_unique_heap_ptr<__vcrt_ptd,__crt_internal_free_policy>::__crt_unique_heap_ptr<__vcrt_ptd,__crt_internal_free_policy>(__vcrt_ptd* const)
FUNC b71c 1a 0 `anonymous namespace'::scoped_get_last_error_reset::scoped_get_last_error_reset()
FUNC b73c 1b 0 __crt_unique_heap_ptr<__vcrt_ptd,__crt_internal_free_policy>::~__crt_unique_heap_ptr<__vcrt_ptd,__crt_internal_free_policy>()
FUNC b760 9 0 `anonymous namespace'::scoped_get_last_error_reset::~scoped_get_last_error_reset()
FUNC b76c 8 0 __crt_unique_heap_ptr<__vcrt_ptd,__crt_internal_free_policy>::operator bool() const
FUNC b778 8 0 __crt_unique_heap_ptr<__vcrt_ptd,__crt_internal_free_policy>::detach()
FUNC b784 4 0 __crt_unique_heap_ptr<__vcrt_ptd,__crt_internal_free_policy>::get() const
FUNC b788 8 0 __crt_unique_heap_ptr<__vcrt_ptd,__crt_internal_free_policy>::is_valid() const
FUNC b794 1b 0 __crt_unique_heap_ptr<__vcrt_ptd,__crt_internal_free_policy>::release()
FUNC b7b8 34 0 store_and_initialize_ptd(__vcrt_ptd* const)
FUNC b7fc 1f 0 _vcrt_freefls(void*)
FUNC b824 4d 0 _vcrt_freeptd(__vcrt_ptd*)
FUNC b884 19 0 _vcrt_getptd()
FUNC b8a4 cb 0 _vcrt_getptd_noexit()
FUNC b9a4 4d 0 _vcrt_getptd_noinit()
FUNC ba04 51 0 _vcrt_initialize_ptd()
FUNC ba6c 22 0 _vcrt_uninitialize_ptd()
FUNC ba98 46 0 _vcrt_initialize_locks()
FUNC baf0 19 0 _vcrt_lock(__vcrt_lock_id)
FUNC bb10 37 0 _vcrt_uninitialize_locks()
FUNC bb54 19 0 _vcrt_unlock(__vcrt_lock_id)
FUNC bb74 8 0 __crt_fast_encoded_nullptr_t::operator<void> void *() const
FUNC bb80 16 0 __crt_fast_decode_pointer<void *>(void* const)
FUNC bb9c 1e 0 __crt_fast_encode_pointer<void *>(void* const)
FUNC bbc4 7 0 __crt_interlocked_exchange_pointer<HINSTANCE__,HINSTANCE__ *>(HINSTANCE__* const*, HINSTANCE__* const)
FUNC bbcc 7 0 __crt_interlocked_exchange_pointer<HINSTANCE__,void *>(HINSTANCE__* const*, void* const)
FUNC bbd4 7 0 __crt_interlocked_exchange_pointer<void,void *>(void* const*, void* const)
FUNC bbdc 4 0 __crt_interlocked_read_pointer<HINSTANCE__>(HINSTANCE__* const*)
FUNC bbe0 4 0 __crt_interlocked_read_pointer<void>(void* const*)
FUNC bbe4 5 0 __crt_fast_encode_pointer(void*)
FUNC bbec 5 0 invalid_function_sentinel()
FUNC bbf4 1c 0 try_get_FlsAlloc()
FUNC bc18 1f 0 try_get_FlsFree()
FUNC bc40 1f 0 try_get_FlsGetValue()
FUNC bc68 1f 0 try_get_FlsSetValue()
FUNC bc90 1f 0 try_get_InitializeCriticalSectionEx()
FUNC bcb8 119 0 try_get_first_available_module(`anonymous-namespace'::module_id const* const, `anonymous-namespace'::module_id const* const)
FUNC be18 1d6 0 try_get_function(const `anonymous-namespace'::function_id, char const* const, `anonymous-namespace'::module_id const* const, `anonymous-namespace'::module_id const* const)
FUNC c064 fe 0 try_get_module(const `anonymous-namespace'::module_id)
FUNC c1a4 137 0 try_get_proc_address_from_first_available_module(char const* const, `anonymous-namespace'::module_id const* const, `anonymous-namespace'::module_id const* const)
FUNC c328 73 0 try_load_library_from_system_directory(wchar_t const* const)
FUNC c3b8 45 0 _vcrt_FlsAlloc(void (*)(void*))
FUNC c410 46 0 _vcrt_FlsFree(unsigned long)
FUNC c468 46 0 _vcrt_FlsGetValue(unsigned long)
FUNC c4c0 51 0 _vcrt_FlsSetValue(unsigned long, void*)
FUNC c528 61 0 _vcrt_InitializeCriticalSectionEx(_RTL_CRITICAL_SECTION*, unsigned long, unsigned long)
FUNC c5a4 2f 0 _vcrt_initialize_winapi_thunks()
FUNC c5e0 3e 0 _vcrt_uninitialize_winapi_thunks(bool)
FUNC c630 8 0 __crt_fast_encoded_nullptr_t::operator<void __cdecl(void)> void (__cdecl*)(void)() const
FUNC c63c 1e 0 __crt_fast_encode_pointer<void (__cdecl*)(void)>(void (* const)())
FUNC c664 f 0 _vcrt_initialize_pure_virtual_call_handler()
FUNC c678 8 0 _HeapManager::Block::Block()
FUNC c684 cc 0 DName::DName(char const*&, char)
FUNC c784 10 0 DName::DName(DName const&)
FUNC c798 31 0 DName::DName(char)
FUNC c7d8 84 0 DName::DName(DName*)
FUNC c880 40 0 DName::DName(char const*)
FUNC c8d0 2d 0 DName::DName(DNameStatus)
FUNC c908 c 0 DName::DName()
FUNC c918 a6 0 DName::DName(long long)
FUNC c9e8 88 0 DName::DName(unsigned long long)
FUNC ca94 e 0 DNameNode::DNameNode()
FUNC caa8 7 0 Replicator::Replicator()
FUNC cab0 a 0 `UnDecorator::getDecoratedName'::`2'::TrackRecursion::TrackRecursion()
FUNC cabc 50 0 UnDecorator::UnDecorator(char const*, char* (*)(long), unsigned long)
FUNC cb20 11 0 charNode::charNode(char)
FUNC cb38 26 0 pDNameNode::pDNameNode(DName*)
FUNC cb68 1a 0 pairNode::pairNode(DNameNode const*, DNameNode const*)
FUNC cb88 88 0 pcharNode::pcharNode(char const*, int)
FUNC cc34 7 0 `UnDecorator::getDecoratedName'::`2'::TrackRecursion::~TrackRecursion()
FUNC cc3c f 0 operator new(unsigned long long, _HeapManager&, int)
FUNC cc50 10 0 DName::operator=(DName const&)
FUNC cc64 31 0 DName::operator=(char)
FUNC cca4 7e 0 DName::operator=(DName*)
FUNC cd44 36 0 DName::operator=(char const*)
FUNC cd88 1f 0 DName::operator=(DNameStatus)
FUNC cdb0 40 0 Replicator::operator[](int) const
FUNC ce00 36 0 operator+(char, DName const&)
FUNC ce44 36 0 operator+(char const*, DName const&)
FUNC ce88 49 0 operator+(DNameStatus, DName const&)
FUNC cee4 29 0 DName::operator+(DName const&) const
FUNC cf18 29 0 DName::operator+(char) const
FUNC cf4c 29 0 DName::operator+(DName*) const
FUNC cf80 29 0 DName::operator+(char const*) const
FUNC cfb4 29 0 DName::operator+(DNameStatus) const
FUNC cfe8 44 0 DName::operator+=(DName const&)
FUNC d040 7d 0 DName::operator+=(char)
FUNC d0dc 95 0 DName::operator+=(DName*)
FUNC d198 8a 0 DName::operator+=(char const*)
FUNC d244 6b 0 DName::operator+=(DNameStatus)
FUNC d2cc 67 0 Replicator::operator+=(DName const&)
FUNC d34c 14 0 DName::operator|=(DName const&)
FUNC d368 16 0 _HeapManager::Constructor(void* (*)(unsigned long long), void (*)(void*))
FUNC d384 42 0 _HeapManager::Destructor()
FUNC d3d8 20 0 static UnDecorator::UScore(Tokens)
FUNC d400 63 0 DName::append(DNameNode const*)
FUNC d47c db3 0 static UnDecorator::composeDeclaration(DName const&)
FUNC e59c f 0 static UnDecorator::doAccessSpecifiers()
FUNC e5b0 f 0 static UnDecorator::doAllocationLanguage()
FUNC e5c4 f 0 static UnDecorator::doAllocationModel()
FUNC e5d8 f 0 static UnDecorator::doEcsu()
FUNC e5ec f 0 static UnDecorator::doEllipsis()
FUNC e600 f 0 static UnDecorator::doFunctionReturns()
FUNC e614 e 0 static UnDecorator::doMSKeywords()
FUNC e628 f 0 static UnDecorator::doMemberTypes()
FUNC e63c c 0 static UnDecorator::doNameOnly()
FUNC e64c c 0 static UnDecorator::doNoIdentCharCheck()
FUNC e65c a6 0 DName::doPchar(char const*, int)
FUNC e72c f 0 static UnDecorator::doPtr64()
FUNC e740 f 0 static UnDecorator::doRestrictionSpec()
FUNC e754 12 0 static UnDecorator::doThisTypes()
FUNC e76c f 0 static UnDecorator::doThrowTypes()
FUNC e780 c 0 static UnDecorator::doTypeOnly()
FUNC e790 c 0 static UnDecorator::doUnderScore()
FUNC e7a0 12b 0 static UnDecorator::getArgumentList()
FUNC e918 f3 0 static UnDecorator::getArgumentTypes()
FUNC ea48 253 0 static UnDecorator::getArrayType(DName const&)
FUNC ed30 c8 0 static UnDecorator::getBasedType()
FUNC ee2c 468 0 static UnDecorator::getBasicDataType(DName const&)
FUNC f3b0 11d 0 UnDecorator::getCHPEName(char*, int)
FUNC f514 19 0 static UnDecorator::getCallIndex()
FUNC f534 13e 0 static UnDecorator::getCallingConvention()
FUNC f6c4 7b8 0 static UnDecorator::getDataIndirectType(DName const&, char const*, DName const&, int)
FUNC 1006c 3e 0 static UnDecorator::getDataIndirectType()
FUNC 100bc e6 0 static UnDecorator::getDataType(DName*)
FUNC 101dc 2a8 0 static UnDecorator::getDecoratedName()
FUNC 10530 179 0 static UnDecorator::getDimension(bool)
FUNC 10708 4c 0 static UnDecorator::getDispatchTarget()
FUNC 10768 19 0 static UnDecorator::getDisplacement()
FUNC 10788 160 0 static UnDecorator::getECSUDataType()
FUNC 10940 17 0 static UnDecorator::getECSUName()
FUNC 1095c fc 0 static UnDecorator::getEnumType()
FUNC 10a98 214 0 static UnDecorator::getExtendedDataIndirectType(char const*&, bool&, int)
FUNC 10d34 c6 0 static UnDecorator::getExternalDataType(DName const&)
FUNC 10e2c 556 0 static UnDecorator::getFunctionIndirectType(DName const&)
FUNC 114d8 19 0 static UnDecorator::getGuardNumber()
FUNC 114f8 19 0 DName::getLastChar() const
FUNC 11518 c 0 DNameStatusNode::getLastChar() const
FUNC 11528 4 0 charNode::getLastChar() const
FUNC 1152c 29 0 pDNameNode::getLastChar() const
FUNC 11560 35 0 pairNode::getLastChar() const
FUNC 115a4 14 0 pcharNode::getLastChar() const
FUNC 115c0 71 0 static UnDecorator::getLexicalFrame()
FUNC 11650 a9 0 _HeapManager::getMemory(unsigned long long, int)
FUNC 11724 45 0 static UnDecorator::getNoexcept()
FUNC 1177c 73 0 static UnDecorator::getNumberOfDimensions()
FUNC 1180c 76d 0 static UnDecorator::getOperatorName(bool, bool*)
FUNC 12154 1e 0 static UnDecorator::getPointerType(DName const&, DName const&)
FUNC 1217c 1e 0 static UnDecorator::getPointerTypeArray(DName const&, DName const&)
FUNC 121a4 24d 0 static UnDecorator::getPrimaryDataType(DName const&)
FUNC 12484 162 0 static UnDecorator::getPtrRefDataType(DName const&, int)
FUNC 12640 136 0 static UnDecorator::getPtrRefType(DName const&, DName const&, char const*)
FUNC 127c4 17 0 static UnDecorator::getReferenceType(DName const&, DName const&, char const*)
FUNC 127e0 13d 0 static UnDecorator::getRestrictionSpec()
FUNC 1296c 34 0 static UnDecorator::getReturnType(DName*)
FUNC 129b0 478 0 static UnDecorator::getScope()
FUNC 12f48 103 0 static UnDecorator::getScopedName()
FUNC 1308c 94 0 static UnDecorator::getSignedDimension()
FUNC 13148 3e 0 static UnDecorator::getStorageConvention()
FUNC 13198 1a 0 DName::getString(char*, char*) const
FUNC 131b8 94 0 DName::getString(char*, int) const
FUNC 13274 46 0 DNameStatusNode::getString(char*, char*) const
FUNC 132cc 11 0 charNode::getString(char*, char*) const
FUNC 132e4 2d 0 pDNameNode::getString(char*, char*) const
FUNC 1331c 4b 0 pairNode::getString(char*, char*) const
FUNC 1337c 36 0 pcharNode::getString(char*, char*) const
FUNC 133c0 d0 0 static UnDecorator::getStringEncoding(char const*, int)
FUNC 134c4 2d 0 getStringHelper(char*, char const*, char const*, int)
FUNC 134fc 4c 0 static UnDecorator::getSymbolName()
FUNC 1355c 31a 0 static UnDecorator::getTemplateArgumentList()
FUNC 1393c 3a0 0 static UnDecorator::getTemplateConstant()
FUNC 13dc4 1fa 0 static UnDecorator::getTemplateName(bool)
FUNC 1403c 42 0 static UnDecorator::getThisType()
FUNC 14090 23 0 static UnDecorator::getThrowTypes()
FUNC 140bc 35e 0 static UnDecorator::getTypeEncoding()
FUNC 144f4 109 0 UnDecorator::getUndecoratedName(char*, int)
FUNC 14640 58 0 static UnDecorator::getVCallThunkType()
FUNC 146b0 17 0 static UnDecorator::getVbTableType(DName const&)
FUNC 146cc 5f 0 static UnDecorator::getVdispMapType(DName const&)
FUNC 14744 1fd 0 static UnDecorator::getVfTableType(DName const&)
FUNC 149c0 2d9 0 static UnDecorator::getZName(bool, bool)
FUNC 14d50 c 0 static UnDecorator::haveTemplateParameters()
FUNC 14d60 a 0 DName::isArray() const
FUNC 14d6c a 0 DName::isComArray() const
FUNC 14d78 9 0 DName::isEmpty() const
FUNC 14d84 9 0 Replicator::isFull() const
FUNC 14d90 a 0 DName::isNoTE() const
FUNC 14d9c a 0 DName::isPinPtr() const
FUNC 14da8 a 0 DName::isPtrRef() const
FUNC 14db4 16 0 DName::isUDC() const
FUNC 14dd0 16 0 DName::isUDTThunk() const
FUNC 14dec a 0 DName::isVCallThunk() const
FUNC 14df8 a 0 DName::isValid() const
FUNC 14e04 18 0 DName::length() const
FUNC 14e24 4 0 DNameStatusNode::length() const
FUNC 14e28 6 0 charNode::length() const
FUNC 14e30 28 0 pDNameNode::length() const
FUNC 14e64 53 0 pairNode::length() const
FUNC 14ecc 4 0 pcharNode::length() const
FUNC 14ed0 1f 0 static DNameStatusNode::make(DNameStatus)
FUNC 14ef8 f5 0 static UnDecorator::parseDecoratedName()
FUNC 1502c 6 0 DName::setIsArray()
FUNC 15034 6 0 DName::setIsComArray()
FUNC 1503c 6 0 DName::setIsNoTE()
FUNC 15044 6 0 DName::setIsPinPtr()
FUNC 1504c c 0 DName::setIsUDC()
FUNC 1505c 6 0 DName::setIsVCallThunk()
FUNC 15064 9 0 DName::setPtrRef()
FUNC 15070 5 0 DName::status() const
FUNC 15078 1a 0 und_memcpy(char*, char const*, unsigned int)
FUNC 15098 11 0 und_strlen(char const*)
FUNC 150b0 2c 0 und_strncmp(char const*, char const*, unsigned int)
FUNC 150e8 27 0 _unDName(char*, char const*, int, void* (*)(unsigned long long), void (*)(void*), unsigned short)
FUNC 15118 132 0 _unDNameEx(char*, char const*, int, void* (*)(unsigned long long), void (*)(void*), char* (*)(long), unsigned long)
FUNC 15298 62 0 vsprintf_s_l(char* const, const unsigned long long, char const* const, __crt_locale_pointers* const, char*)
FUNC 15314 52 0 sprintf_s(char* const, const unsigned long long, char const* const, <NoType>)
FUNC 1537c 106 0 unDNameGenerateCHPE(char*, char const*, int, void* (*)(unsigned long long), void (*)(void*), unsigned long)
FUNC 154c4 16 0 __crt_fast_decode_pointer<void (__cdecl*)(void)>(void (* const)())
FUNC 154e0 7 0 __crt_interlocked_exchange_pointer<void __cdecl(void),void (__cdecl*)(void)>(void (* const*)(), void (* const)())
FUNC 154e8 4 0 __crt_interlocked_read_pointer<void __cdecl(void)>(void (* const*)())
FUNC 154ec 1a 0 get_purecall_handler()
FUNC 1550c 2e 0 purecall()
FUNC 15548 37 0 set_purecall_handler(void (*)())
FUNC 1558c 14 0 std::pair<__FrameHandler3::TryBlockMap::iterator,__FrameHandler3::TryBlockMap::iterator>::pair<__FrameHandler3::TryBlockMap::iterator,__FrameHandler3::TryBlockMap::iterator><__FrameHandler3::TryBlockMap::iterator &,__FrameHandler3::TryBlockMap::iterator &,0>(__FrameHandler3::TryBlockMap::iterator&, __FrameHandler3::TryBlockMap::iterator&)
FUNC 155a8 14 0 std::pair<__FrameHandler4::TryBlockMap::iterator,__FrameHandler4::TryBlockMap::iterator>::pair<__FrameHandler4::TryBlockMap::iterator,__FrameHandler4::TryBlockMap::iterator><__FrameHandler4::TryBlockMap::iterator &,__FrameHandler4::TryBlockMap::iterator &,0>(__FrameHandler4::TryBlockMap::iterator&, __FrameHandler4::TryBlockMap::iterator&)
FUNC 155c4 95 0 SehTransFilter<__FrameHandler3>(_EXCEPTION_POINTERS*, EHExceptionRecord*, unsigned long long*, _CONTEXT*, _xDISPATCHER_CONTEXT*, _s_FuncInfo const*, int*)
FUNC 15680 95 0 SehTransFilter<__FrameHandler4>(_EXCEPTION_POINTERS*, EHExceptionRecord*, unsigned long long*, _CONTEXT*, _xDISPATCHER_CONTEXT*, FuncInfo4*, int*)
FUNC 1573c 51 0 _CallSETranslator<__FrameHandler3>(EHExceptionRecord*, unsigned long long*, _CONTEXT*, _xDISPATCHER_CONTEXT*, _s_FuncInfo const*, unsigned long, unsigned long long*)
FUNC 157a4 51 0 _CallSETranslator<__FrameHandler4>(EHExceptionRecord*, unsigned long long*, _CONTEXT*, _xDISPATCHER_CONTEXT*, FuncInfo4*, unsigned long, unsigned long long*)
FUNC 1580c 4 0 std::forward<__FrameHandler3::TryBlockMap::iterator &>(__FrameHandler3::TryBlockMap::iterator&)
FUNC 15810 4 0 std::forward<__FrameHandler4::TryBlockMap::iterator &>(__FrameHandler4::TryBlockMap::iterator&)
FUNC 15814 13 0 FuncInfo4::FuncInfo4()
FUNC 1582c b 0 __FrameHandler3::TryBlockMap::iterator::iterator(__FrameHandler3::TryBlockMap&, unsigned int)
FUNC 1583c b 0 __FrameHandler4::TryBlockMap::iterator::iterator(__FrameHandler4::TryBlockMap&, unsigned int)
FUNC 1584c a 0 __FrameHandler4::TryBlockMap::iterator::operator=(__FrameHandler4::TryBlockMap::iterator const&)
FUNC 15858 a 0 __FrameHandler4::TryBlockMap::iterator::operator!=(__FrameHandler4::TryBlockMap::iterator const&) const
FUNC 15864 8 0 __FrameHandler4::TryBlockMap::iterator::operator*()
FUNC 15870 a8 0 __FrameHandler4::TryBlockMap::iterator::operator++()
FUNC 15944 56 0 static __FrameHandler3::CatchTryBlock(_s_FuncInfo const*, int)
FUNC 159b0 94 0 DecompFuncInfo(unsigned char*, FuncInfo4&)
FUNC 15a6c 9e 0 __FrameHandler4::TryBlockMap::DecompTryBlock()
FUNC 15b34 2a 0 static __FrameHandler3::ExecutionInCatch(_xDISPATCHER_CONTEXT*, _s_FuncInfo const*)
FUNC 15b68 a 0 static __FrameHandler4::ExecutionInCatch(_xDISPATCHER_CONTEXT*, FuncInfo4*)
FUNC 15b74 64 0 static __FrameHandler3::FrameUnwindToEmptyState(unsigned long long*, _xDISPATCHER_CONTEXT*, _s_FuncInfo const*)
FUNC 15bf4 35 0 static __FrameHandler4::FrameUnwindToEmptyState(unsigned long long*, _xDISPATCHER_CONTEXT*, FuncInfo4*)
FUNC 15c38 c9 0 static __FrameHandler3::GetEstablisherFrame(unsigned long long*, _xDISPATCHER_CONTEXT*, _s_FuncInfo const*, unsigned long long*)
FUNC 15d34 24 0 static __FrameHandler4::GetEstablisherFrame(unsigned long long*, _xDISPATCHER_CONTEXT*, FuncInfo4*, unsigned long long*)
FUNC 15d64 159 0 static __FrameHandler3::GetRangeOfTrysToCheck(__FrameHandler3::TryBlockMap&, int, int)
FUNC 15f14 d3 0 static __FrameHandler4::GetRangeOfTrysToCheck(__FrameHandler4::TryBlockMap&, int, int)
FUNC 1601c d 0 ReadInt(unsigned char**)
FUNC 1602c 30 0 ReadUnsigned(unsigned char**)
FUNC 16068 121 0 static __FrameHandler3::UnwindNestedFrames(unsigned long long*, EHExceptionRecord*, _CONTEXT*, unsigned long long*, void*, _s_FuncInfo const*, int, int, _s_HandlerType const*, _xDISPATCHER_CONTEXT*, unsigned char)
FUNC 161d4 170 0 static __FrameHandler4::UnwindNestedFrames(unsigned long long*, EHExceptionRecord*, _CONTEXT*, unsigned long long*, void*, FuncInfo4*, int, int, HandlerType4*, _xDISPATCHER_CONTEXT*, unsigned char)
FUNC 163a0 10 0 __FuncToImageRelOffset(_xDISPATCHER_CONTEXT*, unsigned int)
FUNC 163b4 b 0 __FrameHandler4::TryBlockMap::begin()
FUNC 163c4 c 0 __FrameHandler4::TryBlockMap::end()
FUNC 163d4 4 0 __FrameHandler3::TryBlockMap::getFuncInfo()
FUNC 163d8 5 0 __FrameHandler3::TryBlockMap::getpDC()
FUNC 163e0 4 0 __FrameHandler4::TryBlockMap::iterator::incrementToSentinel()
FUNC 163e4 175 0 __FrameHandler4::TryBlockMap::setBuffer(__FrameHandler4::TryBlockMap::iterator)
FUNC 165b8 3a 0 CreateFrameInfo(FrameInfo*, void*)
FUNC 16600 53 0 FindAndUnlinkFrame(FrameInfo*)
FUNC 16668 12 0 GetImageBase()
FUNC 16680 12 0 GetThrowImageBase()
FUNC 16698 18 0 SetImageBase(unsigned long long)
FUNC 166b8 18 0 SetThrowImageBase(unsigned long long)
FUNC 166d8 5 0 _CxxFrameHandler(EHExceptionRecord*, unsigned long long, _CONTEXT*, _xDISPATCHER_CONTEXT*)
FUNC 166e0 5 0 _CxxFrameHandler2(EHExceptionRecord*, unsigned long long, _CONTEXT*, _xDISPATCHER_CONTEXT*)
FUNC 166e8 7d 0 _CxxFrameHandler3(EHExceptionRecord*, unsigned long long, _CONTEXT*, _xDISPATCHER_CONTEXT*)
FUNC 16784 a1 0 _CxxFrameHandler4(EHExceptionRecord*, unsigned long long, _CONTEXT*, _xDISPATCHER_CONTEXT*)
FUNC 16860 13 0 memcpy_repmovs()
FUNC 16880 435 0 memcpy()
FUNC 16dd0 27 0 static __FrameHandler3::GetCurrentState(unsigned long long*, _xDISPATCHER_CONTEXT*, _s_FuncInfo const*)
FUNC 16e00 29 0 static __FrameHandler3::GetUnwindTryBlock(unsigned long long*, _xDISPATCHER_CONTEXT*, _s_FuncInfo const*)
FUNC 16e34 c 0 static __FrameHandler3::SetState(unsigned long long*, _s_FuncInfo const*, int)
FUNC 16e44 3b 0 static __FrameHandler3::SetUnwindTryBlock(unsigned long long*, _xDISPATCHER_CONTEXT*, _s_FuncInfo const*, int)
FUNC 16e90 8 0 static __FrameHandler3::StateFromControlPc(_s_FuncInfo const*, _xDISPATCHER_CONTEXT*)
FUNC 16e9c 8 0 static __FrameHandler4::StateFromControlPc(FuncInfo4*, _xDISPATCHER_CONTEXT*)
FUNC 16ea8 66 0 static __FrameHandler3::StateFromIp(_s_FuncInfo const*, _xDISPATCHER_CONTEXT*, unsigned long long)
FUNC 16f28 ed 0 static __FrameHandler4::StateFromIp(FuncInfo4*, _xDISPATCHER_CONTEXT*, unsigned long long)
FUNC 17050 4 0 adjustIp(_xDISPATCHER_CONTEXT*, unsigned long long)
FUNC 17054 1fd 0 BuildCatchObjectHelperInternal<__FrameHandler3>(EHExceptionRecord*, void*, _s_HandlerType const*, _s_CatchableType const*)
FUNC 172d0 201 0 BuildCatchObjectHelperInternal<__FrameHandler4>(EHExceptionRecord*, void*, HandlerType4*, _s_CatchableType const*)
FUNC 17554 c0 0 BuildCatchObjectInternal<__FrameHandler3>(EHExceptionRecord*, void*, _s_HandlerType const*, _s_CatchableType const*)
FUNC 17644 c1 0 BuildCatchObjectInternal<__FrameHandler4>(EHExceptionRecord*, void*, HandlerType4*, _s_CatchableType const*)
FUNC 17738 cd 0 CatchIt<__FrameHandler3>(EHExceptionRecord*, unsigned long long*, _CONTEXT*, _xDISPATCHER_CONTEXT*, _s_FuncInfo const*, _s_HandlerType const*, _s_CatchableType const*, _s_TryBlockMapEntry const*, int, unsigned long long*, unsigned char, unsigned char)
FUNC 17838 cd 0 CatchIt<__FrameHandler4>(EHExceptionRecord*, unsigned long long*, _CONTEXT*, _xDISPATCHER_CONTEXT*, FuncInfo4*, HandlerType4*, _s_CatchableType const*, TryBlockMapEntry4*, int, unsigned long long*, unsigned char, unsigned char)
FUNC 17938 461 0 FindHandler<__FrameHandler3>(EHExceptionRecord*, unsigned long long*, _CONTEXT*, _xDISPATCHER_CONTEXT*, _s_FuncInfo const*, unsigned char, int, unsigned long long*)
FUNC 17eb4 400 0 FindHandler<__FrameHandler4>(EHExceptionRecord*, unsigned long long*, _CONTEXT*, _xDISPATCHER_CONTEXT*, FuncInfo4*, unsigned char, int, unsigned long long*)
FUNC 183b4 22e 0 FindHandlerForForeignException<__FrameHandler3>(EHExceptionRecord*, unsigned long long*, _CONTEXT*, _xDISPATCHER_CONTEXT*, _s_FuncInfo const*, int, int, unsigned long long*)
FUNC 18670 237 0 FindHandlerForForeignException<__FrameHandler4>(EHExceptionRecord*, unsigned long long*, _CONTEXT*, _xDISPATCHER_CONTEXT*, FuncInfo4*, int, int, unsigned long long*)
FUNC 18934 141 0 TypeMatchHelper<__FrameHandler3>(_s_HandlerType const*, _s_CatchableType const*, _s_ThrowInfo const*)
FUNC 18ac8 146 0 TypeMatchHelper<__FrameHandler4>(HandlerType4*, _s_CatchableType const*, _s_ThrowInfo const*)
FUNC 18c60 246 0 __InternalCxxFrameHandler<__FrameHandler3>(EHExceptionRecord*, unsigned long long*, _CONTEXT*, _xDISPATCHER_CONTEXT*, _s_FuncInfo const*, int, unsigned long long*, unsigned char)
FUNC 18f38 29f 0 __InternalCxxFrameHandler<__FrameHandler4>(EHExceptionRecord*, unsigned long long*, _CONTEXT*, _xDISPATCHER_CONTEXT*, FuncInfo4*, int, unsigned long long*, unsigned char)
FUNC 19280 15 0 __FrameHandler3::HandlerMap::HandlerMap(_s_TryBlockMapEntry const*, _xDISPATCHER_CONTEXT*)
FUNC 1929c 6b 0 __FrameHandler4::HandlerMap::HandlerMap(TryBlockMapEntry4*, _xDISPATCHER_CONTEXT*)
FUNC 19324 14 0 HandlerType4::HandlerType4()
FUNC 19340 b 0 __FrameHandler3::TryBlockMap::TryBlockMap(_s_FuncInfo const*, _xDISPATCHER_CONTEXT*)
FUNC 19350 eb 0 __FrameHandler4::TryBlockMap::TryBlockMap(FuncInfo4*, _xDISPATCHER_CONTEXT*)
FUNC 19478 38 0 UWMap::UWMap(unsigned char*)
FUNC 194c0 3f 0 std::bad_exception::bad_exception(std::bad_exception const&)
FUNC 19510 1e 0 std::bad_exception::bad_exception()
FUNC 19538 35 0 std::exception::exception(std::exception const&)
FUNC 1957c 17 0 std::exception::exception(char const* const, int)
FUNC 19598 b 0 __FrameHandler3::HandlerMap::iterator::iterator(__FrameHandler3::HandlerMap&, unsigned int)
FUNC 195a8 b 0 __FrameHandler4::HandlerMap::iterator::iterator(__FrameHandler4::HandlerMap&, unsigned int)
FUNC 195b8 b 0 UWMap::iterator::iterator(UWMap&, unsigned char*)
FUNC 195c8 13 0 std::bad_exception::~bad_exception()
FUNC 195e0 13 0 std::exception::~exception()
FUNC 195f8 c 0 UWMap::iterator::operator=(UWMap::iterator const&)
FUNC 19608 a 0 __FrameHandler3::HandlerMap::iterator::operator==(__FrameHandler3::HandlerMap::iterator const&) const
FUNC 19614 a 0 __FrameHandler4::HandlerMap::iterator::operator==(__FrameHandler4::HandlerMap::iterator const&) const
FUNC 19620 1b 0 type_info::operator==(type_info const&) const
FUNC 19644 a 0 __FrameHandler3::HandlerMap::iterator::operator!=(__FrameHandler3::HandlerMap::iterator const&) const
FUNC 19650 a 0 __FrameHandler4::HandlerMap::iterator::operator!=(__FrameHandler4::HandlerMap::iterator const&) const
FUNC 1965c 13 0 __FrameHandler3::HandlerMap::iterator::operator*()
FUNC 19674 8 0 __FrameHandler4::HandlerMap::iterator::operator*()
FUNC 19680 1e 0 __FrameHandler3::TryBlockMap::iterator::operator*()
FUNC 196a8 3c 0 UWMap::iterator::operator*()
FUNC 196f4 7 0 __FrameHandler3::HandlerMap::iterator::operator++()
FUNC 196fc 1d 0 __FrameHandler4::HandlerMap::iterator::operator++()
FUNC 19720 7 0 __FrameHandler3::TryBlockMap::iterator::operator++()
FUNC 19728 4d 0 UWMap::iterator::operator++()
FUNC 19788 9 0 UWMap::iterator::operator-(UWMap::iterator const&) const
FUNC 19794 a 0 __FrameHandler3::TryBlockMap::iterator::operator<(__FrameHandler3::TryBlockMap::iterator const&) const
FUNC 197a0 a 0 __FrameHandler4::TryBlockMap::iterator::operator<(__FrameHandler4::TryBlockMap::iterator const&) const
FUNC 197ac c 0 UWMap::iterator::operator>(UWMap::iterator const&) const
FUNC 197bc c 0 UWMap::iterator::operator>=(UWMap::iterator const&) const
FUNC 197cc 42 0 std::bad_exception::`scalar deleting destructor'(unsigned int)
FUNC 19820 42 0 std::exception::`scalar deleting destructor'(unsigned int)
FUNC 19874 5 0 static __FrameHandler3::BuildCatchObject(EHExceptionRecord*, void*, _s_HandlerType const*, _s_CatchableType const*)
FUNC 1987c 5 0 static __FrameHandler4::BuildCatchObject(EHExceptionRecord*, void*, HandlerType4*, _s_CatchableType const*)
FUNC 19884 5 0 static __FrameHandler3::BuildCatchObjectHelper(EHExceptionRecord*, void*, _s_HandlerType const*, _s_CatchableType const*)
FUNC 1988c 5 0 static __FrameHandler4::BuildCatchObjectHelper(EHExceptionRecord*, void*, HandlerType4*, _s_CatchableType const*)
FUNC 19894 1ea 0 static __FrameHandler3::CxxCallCatchBlock(_EXCEPTION_RECORD*)
FUNC 19af8 240 0 static __FrameHandler4::CxxCallCatchBlock(_EXCEPTION_RECORD*)
FUNC 19dc8 147 0 __FrameHandler4::HandlerMap::DecompHandler()
FUNC 19f60 87 0 ExFilterRethrow(_EXCEPTION_POINTERS*, EHExceptionRecord*, int*)
FUNC 1a008 193 0 static __FrameHandler3::FrameUnwindToState(unsigned long long*, _xDISPATCHER_CONTEXT*, _s_FuncInfo const*, int)
FUNC 1a200 2d9 0 static __FrameHandler4::FrameUnwindToState(unsigned long long*, _xDISPATCHER_CONTEXT*, FuncInfo4*, int)
FUNC 1a590 96 0 static __FrameHandler3::GetHandlerSearchState(unsigned long long*, _xDISPATCHER_CONTEXT*, _s_FuncInfo const*)
FUNC 1a64c 37 0 static __FrameHandler4::GetHandlerSearchState(unsigned long long*, _xDISPATCHER_CONTEXT*, FuncInfo4*)
FUNC 1a690 4 0 static __FrameHandler3::GetMaxState(_xDISPATCHER_CONTEXT*, _s_FuncInfo const*)
FUNC 1a694 38 0 static __FrameHandler4::GetMaxState(_xDISPATCHER_CONTEXT*, FuncInfo4*)
FUNC 1a6dc d6 0 IsInExceptionSpec(EHExceptionRecord*, _s_ESTypeList const*)
FUNC 1a7e8 91 0 Is_bad_exception_allowed(_s_ESTypeList const*)
FUNC 1a8a0 99 0 UWMap::ReadEntry()
FUNC 1a960 5 0 static __FrameHandler3::TypeMatch(_s_HandlerType const*, _s_CatchableType const*, _s_ThrowInfo const*)
FUNC 1a968 5 0 static __FrameHandler4::TypeMatch(HandlerType4*, _s_CatchableType const*, _s_ThrowInfo const*)
FUNC 1a970 2e 0 UWMap::WalkBack()
FUNC 1a9ac 9 0 _CallMemberFunction1(void* const, void* const, void* const)
FUNC 1a9b8 f 0 _CallMemberFunction2(void* const, void* const, void* const, const int)
FUNC 1a9cc 7 0 _ValidateExecute(long long (*)())
FUNC 1a9d4 7 0 _ValidateRead(void const*, unsigned int)
FUNC 1a9dc 7 0 _ValidateWrite(void*, unsigned int)
FUNC 1a9e4 14 0 __RethrowException(EHExceptionRecord*)
FUNC 1aa00 b 0 __FrameHandler3::HandlerMap::begin()
FUNC 1aa10 b 0 __FrameHandler4::HandlerMap::begin()
FUNC 1aa20 f 0 UWMap::begin()
FUNC 1aa34 c 0 __FrameHandler3::HandlerMap::end()
FUNC 1aa44 c 0 __FrameHandler4::HandlerMap::end()
FUNC 1aa54 28 0 static __FrameHandler3::getESTypes(_s_FuncInfo const*)
FUNC 1aa88 3 0 static __FrameHandler4::getESTypes(FuncInfo4*)
FUNC 1aa8c 13 0 __FrameHandler3::HandlerMap::getLastEntry()
FUNC 1aaa4 4e 0 __FrameHandler4::HandlerMap::getLastEntry()
FUNC 1ab08 8 0 static __FrameHandler3::getMagicNum(_s_FuncInfo const*)
FUNC 1ab14 6 0 static __FrameHandler4::getMagicNum(FuncInfo4*)
FUNC 1ab1c 7 0 __FrameHandler3::TryBlockMap::getNumTryBlocks()
FUNC 1ab24 3 0 __FrameHandler4::TryBlockMap::getNumTryBlocks()
FUNC 1ab28 12 0 UWMap::getOffsetIter(long long)
FUNC 1ab40 a1 0 UWMap::getStartStop(int, int, UWMap::iterator&, UWMap::iterator&)
FUNC 1ac0c 86 0 UWMap::getStateIter(int)
FUNC 1acb4 6 0 static __FrameHandler3::isEHs(_s_FuncInfo const*)
FUNC 1acbc 8 0 static __FrameHandler4::isEHs(FuncInfo4*)
FUNC 1acc8 9 0 static __FrameHandler3::isNoExcept(_s_FuncInfo const*)
FUNC 1acd4 8 0 static __FrameHandler4::isNoExcept(FuncInfo4*)
FUNC 1ace0 11 0 HandlerType4::reset()
FUNC 1acf8 d 0 __FrameHandler4::HandlerMap::resetBuffer()
FUNC 1ad08 39 0 __FrameHandler4::HandlerMap::setBuffer(unsigned int)
FUNC 1ad50 12 0 std::exception::what() const
FUNC 1ad68 5 0 _BuildCatchObject(EHExceptionRecord*, void*, _s_HandlerType const*, _s_CatchableType const*)
FUNC 1ad70 5 0 _BuildCatchObjectHelper(EHExceptionRecord*, void*, _s_HandlerType const*, _s_CatchableType const*)
FUNC 1ad78 5 0 _TypeMatch(_s_HandlerType const*, _s_CatchableType const*, _s_ThrowInfo const*)
FUNC 1ad80 7 0 _vcrt_EncodePointer(void* const)
FUNC 1ada0 40 0 CallSettingFrame()
FUNC 1adf0 47 0 CallSettingFrameEncoded()
FUNC 1ae60 8 0 __crt_public_free_policy::operator()<char>(char const* const) const
FUNC 1ae6c 7 0 __crt_unique_heap_ptr<char,__crt_public_free_policy>::__crt_unique_heap_ptr<char,__crt_public_free_policy>(char* const)
FUNC 1ae74 1b 0 __crt_unique_heap_ptr<char,__crt_public_free_policy>::~__crt_unique_heap_ptr<char,__crt_public_free_policy>()
FUNC 1ae98 8 0 __crt_unique_heap_ptr<char,__crt_public_free_policy>::operator bool() const
FUNC 1aea4 8 0 __crt_unique_heap_ptr<char,__crt_public_free_policy>::detach()
FUNC 1aeb0 4 0 __crt_unique_heap_ptr<char,__crt_public_free_policy>::get() const
FUNC 1aeb4 8 0 __crt_unique_heap_ptr<char,__crt_public_free_policy>::is_valid() const
FUNC 1aec0 1b 0 __crt_unique_heap_ptr<char,__crt_public_free_policy>::release()
FUNC 1aee4 8d 0 _std_exception_copy(__std_exception_data const*, __std_exception_data*)
FUNC 1af94 25 0 _std_exception_destroy(__std_exception_data*)
FUNC 1afc4 bf 0 CxxThrowException(void*, _s__ThrowInfo const*)
FUNC 1b0b4 81 0 __crt_stdio_output::format_validation_base<char,__crt_stdio_output::stream_output_adapter<char> >::format_validation_base<char,__crt_stdio_output::stream_output_adapter<char> ><__crt_stdio_output::stream_output_adapter<char> const & __ptr64,unsigned __int64 const & __ptr64,char const * __ptr64 const & __ptr64,__crt_locale_pointers * __ptr64 const & __ptr64,char * __ptr64 const & __ptr64>(__crt_stdio_output::stream_output_adapter<char> const&, unsigned long long const&, char const* const&, __crt_locale_pointers* const&, char* const&)
FUNC 1b158 9e 0 __crt_stdio_output::positional_parameter_base<char,__crt_stdio_output::stream_output_adapter<char> >::positional_parameter_base<char,__crt_stdio_output::stream_output_adapter<char> ><__crt_stdio_output::stream_output_adapter<char> const & __ptr64,unsigned __int64 const & __ptr64,char const * __ptr64 const & __ptr64,__crt_locale_pointers * __ptr64 const & __ptr64,char * __ptr64 const & __ptr64>(__crt_stdio_output::stream_output_adapter<char> const&, unsigned long long const&, char const* const&, __crt_locale_pointers* const&, char* const&)
FUNC 1b220 81 0 __crt_stdio_output::standard_base<char,__crt_stdio_output::stream_output_adapter<char> >::standard_base<char,__crt_stdio_output::stream_output_adapter<char> ><__crt_stdio_output::stream_output_adapter<char> const & __ptr64,unsigned __int64 const & __ptr64,char const * __ptr64 const & __ptr64,__crt_locale_pointers * __ptr64 const & __ptr64,char * __ptr64 const & __ptr64>(__crt_stdio_output::stream_output_adapter<char> const&, unsigned long long const&, char const* const&, __crt_locale_pointers* const&, char* const&)
FUNC 1b2c4 85 0 __crt_stdio_output::format_validation_base<wchar_t,__crt_stdio_output::stream_output_adapter<wchar_t> >::format_validation_base<wchar_t,__crt_stdio_output::stream_output_adapter<wchar_t> ><__crt_stdio_output::stream_output_adapter<wchar_t> const & __ptr64,unsigned __int64 const & __ptr64,wchar_t const * __ptr64 const & __ptr64,__crt_locale_pointers * __ptr64 const & __ptr64,char * __ptr64 const & __ptr64>(__crt_stdio_output::stream_output_adapter<wchar_t> const&, unsigned long long const&, wchar_t const* const&, __crt_locale_pointers* const&, char* const&)
FUNC 1b36c a2 0 __crt_stdio_output::positional_parameter_base<wchar_t,__crt_stdio_output::stream_output_adapter<wchar_t> >::positional_parameter_base<wchar_t,__crt_stdio_output::stream_output_adapter<wchar_t> ><__crt_stdio_output::stream_output_adapter<wchar_t> const & __ptr64,unsigned __int64 const & __ptr64,wchar_t const * __ptr64 const & __ptr64,__crt_locale_pointers * __ptr64 const & __ptr64,char * __ptr64 const & __ptr64>(__crt_stdio_output::stream_output_adapter<wchar_t> const&, unsigned long long const&, wchar_t const* const&, __crt_locale_pointers* const&, char* const&)
FUNC 1b438 85 0 __crt_stdio_output::standard_base<wchar_t,__crt_stdio_output::stream_output_adapter<wchar_t> >::standard_base<wchar_t,__crt_stdio_output::stream_output_adapter<wchar_t> ><__crt_stdio_output::stream_output_adapter<wchar_t> const & __ptr64,unsigned __int64 const & __ptr64,wchar_t const * __ptr64 const & __ptr64,__crt_locale_pointers * __ptr64 const & __ptr64,char * __ptr64 const & __ptr64>(__crt_stdio_output::stream_output_adapter<wchar_t> const&, unsigned long long const&, wchar_t const* const&, __crt_locale_pointers* const&, char* const&)
FUNC 1b4e0 81 0 __crt_stdio_output::format_validation_base<char,__crt_stdio_output::string_output_adapter<char> >::format_validation_base<char,__crt_stdio_output::string_output_adapter<char> ><__crt_stdio_output::string_output_adapter<char> const & __ptr64,unsigned __int64 const & __ptr64,char const * __ptr64 const & __ptr64,__crt_locale_pointers * __ptr64 const & __ptr64,char * __ptr64 const & __ptr64>(__crt_stdio_output::string_output_adapter<char> const&, unsigned long long const&, char const* const&, __crt_locale_pointers* const&, char* const&)
FUNC 1b584 9e 0 __crt_stdio_output::positional_parameter_base<char,__crt_stdio_output::string_output_adapter<char> >::positional_parameter_base<char,__crt_stdio_output::string_output_adapter<char> ><__crt_stdio_output::string_output_adapter<char> const & __ptr64,unsigned __int64 const & __ptr64,char const * __ptr64 const & __ptr64,__crt_locale_pointers * __ptr64 const & __ptr64,char * __ptr64 const & __ptr64>(__crt_stdio_output::string_output_adapter<char> const&, unsigned long long const&, char const* const&, __crt_locale_pointers* const&, char* const&)
FUNC 1b64c 81 0 __crt_stdio_output::standard_base<char,__crt_stdio_output::string_output_adapter<char> >::standard_base<char,__crt_stdio_output::string_output_adapter<char> ><__crt_stdio_output::string_output_adapter<char> const & __ptr64,unsigned __int64 const & __ptr64,char const * __ptr64 const & __ptr64,__crt_locale_pointers * __ptr64 const & __ptr64,char * __ptr64 const & __ptr64>(__crt_stdio_output::string_output_adapter<char> const&, unsigned long long const&, char const* const&, __crt_locale_pointers* const&, char* const&)
FUNC 1b6f0 85 0 __crt_stdio_output::format_validation_base<wchar_t,__crt_stdio_output::string_output_adapter<wchar_t> >::format_validation_base<wchar_t,__crt_stdio_output::string_output_adapter<wchar_t> ><__crt_stdio_output::string_output_adapter<wchar_t> const & __ptr64,unsigned __int64 const & __ptr64,wchar_t const * __ptr64 const & __ptr64,__crt_locale_pointers * __ptr64 const & __ptr64,char * __ptr64 const & __ptr64>(__crt_stdio_output::string_output_adapter<wchar_t> const&, unsigned long long const&, wchar_t const* const&, __crt_locale_pointers* const&, char* const&)
FUNC 1b798 a2 0 __crt_stdio_output::positional_parameter_base<wchar_t,__crt_stdio_output::string_output_adapter<wchar_t> >::positional_parameter_base<wchar_t,__crt_stdio_output::string_output_adapter<wchar_t> ><__crt_stdio_output::string_output_adapter<wchar_t> const & __ptr64,unsigned __int64 const & __ptr64,wchar_t const * __ptr64 const & __ptr64,__crt_locale_pointers * __ptr64 const & __ptr64,char * __ptr64 const & __ptr64>(__crt_stdio_output::string_output_adapter<wchar_t> const&, unsigned long long const&, wchar_t const* const&, __crt_locale_pointers* const&, char* const&)
FUNC 1b864 85 0 __crt_stdio_output::standard_base<wchar_t,__crt_stdio_output::string_output_adapter<wchar_t> >::standard_base<wchar_t,__crt_stdio_output::string_output_adapter<wchar_t> ><__crt_stdio_output::string_output_adapter<wchar_t> const & __ptr64,unsigned __int64 const & __ptr64,wchar_t const * __ptr64 const & __ptr64,__crt_locale_pointers * __ptr64 const & __ptr64,char * __ptr64 const & __ptr64>(__crt_stdio_output::string_output_adapter<wchar_t> const&, unsigned long long const&, wchar_t const* const&, __crt_locale_pointers* const&, char* const&)
FUNC 1b90c 3d 0 __crt_seh_guarded_call<int>::operator()<<lambda_0d412022a4b28cc8a401ea49574e8ae6>,<lambda_a775ed57af18ba8e4d5dc780aa9068fe> & __ptr64,<lambda_975a71a6baa488a08f4e15f6b0339b9e> >(__acrt_lock_stream_and_call::__l2::<lambda_0d412022a4b28cc8a401ea49574e8ae6>&&, common_vfprintf::__l2::<lambda_a775ed57af18ba8e4d5dc780aa9068fe>&, __acrt_lock_stream_and_call::__l2::<lambda_975a71a6baa488a08f4e15f6b0339b9e>&&)
FUNC 1b958 3d 0 __crt_seh_guarded_call<int>::operator()<<lambda_55577cdf4457e05136e8c1bc6549f697>,<lambda_ee59099aa97e0ff6f003b984c1584058> & __ptr64,<lambda_cd4250c7ac9eb50c05cf8bb6b444cf42> >(__acrt_lock_stream_and_call::__l2::<lambda_55577cdf4457e05136e8c1bc6549f697>&&, common_vfprintf::__l2::<lambda_ee59099aa97e0ff6f003b984c1584058>&, __acrt_lock_stream_and_call::__l2::<lambda_cd4250c7ac9eb50c05cf8bb6b444cf42>&&)
FUNC 1b9a4 3d 0 __crt_seh_guarded_call<int>::operator()<<lambda_74b93660f2d9eb3fb15c5de9eff9db7b>,<lambda_32f117a32e8f8eb613cbf2ca819ed45e> & __ptr64,<lambda_7322894ee7c8a2d41153fedefeab09e3> >(__acrt_lock_stream_and_call::__l2::<lambda_74b93660f2d9eb3fb15c5de9eff9db7b>&&, common_vfprintf::__l2::<lambda_32f117a32e8f8eb613cbf2ca819ed45e>&, __acrt_lock_stream_and_call::__l2::<lambda_7322894ee7c8a2d41153fedefeab09e3>&&)
FUNC 1b9f0 3d 0 __crt_seh_guarded_call<int>::operator()<<lambda_a62c933ada0517137acf5807a1eeac1f>,<lambda_a31071773b9a94e445cbd5d04ef99106> & __ptr64,<lambda_56065050dbf3ada7e59a83db45153de3> >(__acrt_lock_stream_and_call::__l2::<lambda_a62c933ada0517137acf5807a1eeac1f>&&, common_vfprintf::__l2::<lambda_a31071773b9a94e445cbd5d04ef99106>&, __acrt_lock_stream_and_call::__l2::<lambda_56065050dbf3ada7e59a83db45153de3>&&)
FUNC 1ba3c 3d 0 __crt_seh_guarded_call<int>::operator()<<lambda_d1aaa8c864b24422b55e9201296d78b9>,<lambda_a2288fdbbd702c8f223b438290af01a4> & __ptr64,<lambda_4f4c57057ae4c2bc431a3fc6ace2791f> >(__acrt_lock_stream_and_call::__l2::<lambda_d1aaa8c864b24422b55e9201296d78b9>&&, common_vfprintf::__l2::<lambda_a2288fdbbd702c8f223b438290af01a4>&, __acrt_lock_stream_and_call::__l2::<lambda_4f4c57057ae4c2bc431a3fc6ace2791f>&&)
FUNC 1ba88 3d 0 __crt_seh_guarded_call<int>::operator()<<lambda_e823f95267a816de70ce630183b86bc2>,<lambda_7e489fec146d5348dbc86d3cce37c1b5> & __ptr64,<lambda_57931389d27d3dce8b0bd13c3d0d8333> >(__acrt_lock_stream_and_call::__l2::<lambda_e823f95267a816de70ce630183b86bc2>&&, common_vfprintf::__l2::<lambda_7e489fec146d5348dbc86d3cce37c1b5>&, __acrt_lock_stream_and_call::__l2::<lambda_57931389d27d3dce8b0bd13c3d0d8333>&&)
FUNC 1bad4 28 0 __acrt_lock_stream_and_call<<lambda_32f117a32e8f8eb613cbf2ca819ed45e> >(_iobuf* const, common_vfprintf::__l2::<lambda_32f117a32e8f8eb613cbf2ca819ed45e>&&)
FUNC 1bb08 28 0 __acrt_lock_stream_and_call<<lambda_7e489fec146d5348dbc86d3cce37c1b5> >(_iobuf* const, common_vfprintf::__l2::<lambda_7e489fec146d5348dbc86d3cce37c1b5>&&)
FUNC 1bb3c 28 0 __acrt_lock_stream_and_call<<lambda_a2288fdbbd702c8f223b438290af01a4> >(_iobuf* const, common_vfprintf::__l2::<lambda_a2288fdbbd702c8f223b438290af01a4>&&)
FUNC 1bb70 28 0 __acrt_lock_stream_and_call<<lambda_a31071773b9a94e445cbd5d04ef99106> >(_iobuf* const, common_vfprintf::__l2::<lambda_a31071773b9a94e445cbd5d04ef99106>&&)
FUNC 1bba4 28 0 __acrt_lock_stream_and_call<<lambda_a775ed57af18ba8e4d5dc780aa9068fe> >(_iobuf* const, common_vfprintf::__l2::<lambda_a775ed57af18ba8e4d5dc780aa9068fe>&&)
FUNC 1bbd8 28 0 __acrt_lock_stream_and_call<<lambda_ee59099aa97e0ff6f003b984c1584058> >(_iobuf* const, common_vfprintf::__l2::<lambda_ee59099aa97e0ff6f003b984c1584058>&&)
FUNC 1bc0c 3 0 __crt_interlocked_read<long>(long const*)
FUNC 1bc10 85 0 common_vfprintf<__crt_stdio_output::format_validation_base,char>(const unsigned long long, _iobuf* const, char const* const, __crt_locale_pointers* const, char* const)
FUNC 1bcb8 85 0 common_vfprintf<__crt_stdio_output::format_validation_base,wchar_t>(const unsigned long long, _iobuf* const, wchar_t const* const, __crt_locale_pointers* const, char* const)
FUNC 1bd60 85 0 common_vfprintf<__crt_stdio_output::positional_parameter_base,char>(const unsigned long long, _iobuf* const, char const* const, __crt_locale_pointers* const, char* const)
FUNC 1be08 85 0 common_vfprintf<__crt_stdio_output::positional_parameter_base,wchar_t>(const unsigned long long, _iobuf* const, wchar_t const* const, __crt_locale_pointers* const, char* const)
FUNC 1beb0 85 0 common_vfprintf<__crt_stdio_output::standard_base,char>(const unsigned long long, _iobuf* const, char const* const, __crt_locale_pointers* const, char* const)
FUNC 1bf58 85 0 common_vfprintf<__crt_stdio_output::standard_base,wchar_t>(const unsigned long long, _iobuf* const, wchar_t const* const, __crt_locale_pointers* const, char* const)
FUNC 1c000 114 0 common_vsnprintf_s<char>(const unsigned long long, char* const, const unsigned long long, const unsigned long long, char const* const, __crt_locale_pointers* const, char* const)
FUNC 1c15c 117 0 common_vsnprintf_s<wchar_t>(const unsigned long long, wchar_t* const, const unsigned long long, const unsigned long long, wchar_t const* const, __crt_locale_pointers* const, char* const)
FUNC 1c2b8 1cb 0 common_vsprintf<__crt_stdio_output::format_validation_base,char>(const unsigned long long, char* const, const unsigned long long, char const* const, __crt_locale_pointers* const, char* const)
FUNC 1c4f8 1d2 0 common_vsprintf<__crt_stdio_output::format_validation_base,wchar_t>(const unsigned long long, wchar_t* const, const unsigned long long, wchar_t const* const, __crt_locale_pointers* const, char* const)
FUNC 1c740 1e7 0 common_vsprintf<__crt_stdio_output::positional_parameter_base,char>(const unsigned long long, char* const, const unsigned long long, char const* const, __crt_locale_pointers* const, char* const)
FUNC 1c9a0 1ee 0 common_vsprintf<__crt_stdio_output::positional_parameter_base,wchar_t>(const unsigned long long, wchar_t* const, const unsigned long long, wchar_t const* const, __crt_locale_pointers* const, char* const)
FUNC 1cc0c 1cb 0 common_vsprintf<__crt_stdio_output::standard_base,char>(const unsigned long long, char* const, const unsigned long long, char const* const, __crt_locale_pointers* const, char* const)
FUNC 1ce4c 1d2 0 common_vsprintf<__crt_stdio_output::standard_base,wchar_t>(const unsigned long long, wchar_t* const, const unsigned long long, wchar_t const* const, __crt_locale_pointers* const, char* const)
FUNC 1d094 63 0 common_vsprintf_s<char>(const unsigned long long, char* const, const unsigned long long, char const* const, __crt_locale_pointers* const, char* const)
FUNC 1d110 6e 0 common_vsprintf_s<wchar_t>(const unsigned long long, wchar_t* const, const unsigned long long, wchar_t const* const, __crt_locale_pointers* const, char* const)
FUNC 1d19c 1b 0 __crt_stdio_output::formatting_buffer::count<char>() const
FUNC 1d1c0 1c 0 __crt_stdio_output::formatting_buffer::count<wchar_t>() const
FUNC 1d1e4 f 0 __crt_stdio_output::formatting_buffer::data<char>()
FUNC 1d1f8 f 0 __crt_stdio_output::formatting_buffer::data<wchar_t>()
FUNC 1d20c a6 0 __crt_stdio_output::formatting_buffer::ensure_buffer_is_big_enough<char>(const unsigned long long)
FUNC 1d2dc a9 0 __crt_stdio_output::formatting_buffer::ensure_buffer_is_big_enough<wchar_t>(const unsigned long long)
FUNC 1d3b0 bc 0 __crt_stdio_output::positional_parameter_base<char,__crt_stdio_output::stream_output_adapter<char> >::extract_argument_from_va_list<signed char,__int64>(long long&)
FUNC 1d49c bc 0 __crt_stdio_output::positional_parameter_base<char,__crt_stdio_output::string_output_adapter<char> >::extract_argument_from_va_list<signed char,__int64>(long long&)
FUNC 1d588 be 0 __crt_stdio_output::positional_parameter_base<wchar_t,__crt_stdio_output::stream_output_adapter<wchar_t> >::extract_argument_from_va_list<signed char,__int64>(long long&)
FUNC 1d678 be 0 __crt_stdio_output::positional_parameter_base<wchar_t,__crt_stdio_output::string_output_adapter<wchar_t> >::extract_argument_from_va_list<signed char,__int64>(long long&)
FUNC 1d768 14 0 __crt_stdio_output::standard_base<char,__crt_stdio_output::stream_output_adapter<char> >::extract_argument_from_va_list<signed char,__int64>(long long&)
FUNC 1d784 14 0 __crt_stdio_output::standard_base<char,__crt_stdio_output::string_output_adapter<char> >::extract_argument_from_va_list<signed char,__int64>(long long&)
FUNC 1d7a0 14 0 __crt_stdio_output::standard_base<wchar_t,__crt_stdio_output::stream_output_adapter<wchar_t> >::extract_argument_from_va_list<signed char,__int64>(long long&)
FUNC 1d7bc 14 0 __crt_stdio_output::standard_base<wchar_t,__crt_stdio_output::string_output_adapter<wchar_t> >::extract_argument_from_va_list<signed char,__int64>(long long&)
FUNC 1d7d8 bb 0 __crt_stdio_output::positional_parameter_base<char,__crt_stdio_output::stream_output_adapter<char> >::extract_argument_from_va_list<unsigned char,__int64>(long long&)
FUNC 1d8c4 bb 0 __crt_stdio_output::positional_parameter_base<char,__crt_stdio_output::string_output_adapter<char> >::extract_argument_from_va_list<unsigned char,__int64>(long long&)
FUNC 1d9b0 bd 0 __crt_stdio_output::positional_parameter_base<wchar_t,__crt_stdio_output::stream_output_adapter<wchar_t> >::extract_argument_from_va_list<unsigned char,__int64>(long long&)
FUNC 1da9c bd 0 __crt_stdio_output::positional_parameter_base<wchar_t,__crt_stdio_output::string_output_adapter<wchar_t> >::extract_argument_from_va_list<unsigned char,__int64>(long long&)
FUNC 1db88 13 0 __crt_stdio_output::standard_base<char,__crt_stdio_output::stream_output_adapter<char> >::extract_argument_from_va_list<unsigned char,__int64>(long long&)
FUNC 1dba0 13 0 __crt_stdio_output::standard_base<char,__crt_stdio_output::string_output_adapter<char> >::extract_argument_from_va_list<unsigned char,__int64>(long long&)
FUNC 1dbb8 13 0 __crt_stdio_output::standard_base<wchar_t,__crt_stdio_output::stream_output_adapter<wchar_t> >::extract_argument_from_va_list<unsigned char,__int64>(long long&)
FUNC 1dbd0 13 0 __crt_stdio_output::standard_base<wchar_t,__crt_stdio_output::string_output_adapter<wchar_t> >::extract_argument_from_va_list<unsigned char,__int64>(long long&)
FUNC 1dbe8 bc 0 __crt_stdio_output::positional_parameter_base<char,__crt_stdio_output::stream_output_adapter<char> >::extract_argument_from_va_list<short,__int64>(long long&)
FUNC 1dcd4 bc 0 __crt_stdio_output::positional_parameter_base<char,__crt_stdio_output::string_output_adapter<char> >::extract_argument_from_va_list<short,__int64>(long long&)
FUNC 1ddc0 be 0 __crt_stdio_output::positional_parameter_base<wchar_t,__crt_stdio_output::stream_output_adapter<wchar_t> >::extract_argument_from_va_list<short,__int64>(long long&)
FUNC 1deb0 be 0 __crt_stdio_output::positional_parameter_base<wchar_t,__crt_stdio_output::string_output_adapter<wchar_t> >::extract_argument_from_va_list<short,__int64>(long long&)
FUNC 1dfa0 14 0 __crt_stdio_output::standard_base<char,__crt_stdio_output::stream_output_adapter<char> >::extract_argument_from_va_list<short,__int64>(long long&)
FUNC 1dfbc 14 0 __crt_stdio_output::standard_base<char,__crt_stdio_output::string_output_adapter<char> >::extract_argument_from_va_list<short,__int64>(long long&)
FUNC 1dfd8 14 0 __crt_stdio_output::standard_base<wchar_t,__crt_stdio_output::stream_output_adapter<wchar_t> >::extract_argument_from_va_list<short,__int64>(long long&)
FUNC 1dff4 14 0 __crt_stdio_output::standard_base<wchar_t,__crt_stdio_output::string_output_adapter<wchar_t> >::extract_argument_from_va_list<short,__int64>(long long&)
FUNC 1e010 b8 0 __crt_stdio_output::positional_parameter_base<char,__crt_stdio_output::stream_output_adapter<char> >::extract_argument_from_va_list<unsigned short,char>(char&)
FUNC 1e0f8 b8 0 __crt_stdio_output::positional_parameter_base<char,__crt_stdio_output::string_output_adapter<char> >::extract_argument_from_va_list<unsigned short,char>(char&)
FUNC 1e1e0 11 0 __crt_stdio_output::standard_base<char,__crt_stdio_output::stream_output_adapter<char> >::extract_argument_from_va_list<unsigned short,char>(char&)
FUNC 1e1f8 11 0 __crt_stdio_output::standard_base<char,__crt_stdio_output::string_output_adapter<char> >::extract_argument_from_va_list<unsigned short,char>(char&)
FUNC 1e210 bb 0 __crt_stdio_output::positional_parameter_base<char,__crt_stdio_output::stream_output_adapter<char> >::extract_argument_from_va_list<unsigned short,__int64>(long long&)
FUNC 1e2fc bb 0 __crt_stdio_output::positional_parameter_base<char,__crt_stdio_output::string_output_adapter<char> >::extract_argument_from_va_list<unsigned short,__int64>(long long&)
FUNC 1e3e8 bd 0 __crt_stdio_output::positional_parameter_base<wchar_t,__crt_stdio_output::stream_output_adapter<wchar_t> >::extract_argument_from_va_list<unsigned short,__int64>(long long&)
FUNC 1e4d4 bd 0 __crt_stdio_output::positional_parameter_base<wchar_t,__crt_stdio_output::string_output_adapter<wchar_t> >::extract_argument_from_va_list<unsigned short,__int64>(long long&)
FUNC 1e5c0 13 0 __crt_stdio_output::standard_base<char,__crt_stdio_output::stream_output_adapter<char> >::extract_argument_from_va_list<unsigned short,__int64>(long long&)
FUNC 1e5d8 13 0 __crt_stdio_output::standard_base<char,__crt_stdio_output::string_output_adapter<char> >::extract_argument_from_va_list<unsigned short,__int64>(long long&)
FUNC 1e5f0 13 0 __crt_stdio_output::standard_base<wchar_t,__crt_stdio_output::stream_output_adapter<wchar_t> >::extract_argument_from_va_list<unsigned short,__int64>(long long&)
FUNC 1e608 13 0 __crt_stdio_output::standard_base<wchar_t,__crt_stdio_output::string_output_adapter<wchar_t> >::extract_argument_from_va_list<unsigned short,__int64>(long long&)
FUNC 1e620 ba 0 __crt_stdio_output::positional_parameter_base<char,__crt_stdio_output::stream_output_adapter<char> >::extract_argument_from_va_list<int,__int64>(long long&)
FUNC 1e708 ba 0 __crt_stdio_output::positional_parameter_base<char,__crt_stdio_output::string_output_adapter<char> >::extract_argument_from_va_list<int,__int64>(long long&)
FUNC 1e7f0 bc 0 __crt_stdio_output::positional_parameter_base<wchar_t,__crt_stdio_output::stream_output_adapter<wchar_t> >::extract_argument_from_va_list<int,__int64>(long long&)
FUNC 1e8dc bc 0 __crt_stdio_output::positional_parameter_base<wchar_t,__crt_stdio_output::string_output_adapter<wchar_t> >::extract_argument_from_va_list<int,__int64>(long long&)
FUNC 1e9c8 13 0 __crt_stdio_output::standard_base<char,__crt_stdio_output::stream_output_adapter<char> >::extract_argument_from_va_list<int,__int64>(long long&)
FUNC 1e9e0 13 0 __crt_stdio_output::standard_base<char,__crt_stdio_output::string_output_adapter<char> >::extract_argument_from_va_list<int,__int64>(long long&)
FUNC 1e9f8 13 0 __crt_stdio_output::standard_base<wchar_t,__crt_stdio_output::stream_output_adapter<wchar_t> >::extract_argument_from_va_list<int,__int64>(long long&)
FUNC 1ea10 13 0 __crt_stdio_output::standard_base<wchar_t,__crt_stdio_output::string_output_adapter<wchar_t> >::extract_argument_from_va_list<int,__int64>(long long&)
FUNC 1ea28 b9 0 __crt_stdio_output::positional_parameter_base<char,__crt_stdio_output::stream_output_adapter<char> >::extract_argument_from_va_list<unsigned int,__int64>(long long&)
FUNC 1eb10 b9 0 __crt_stdio_output::positional_parameter_base<char,__crt_stdio_output::string_output_adapter<char> >::extract_argument_from_va_list<unsigned int,__int64>(long long&)
FUNC 1ebf8 bb 0 __crt_stdio_output::positional_parameter_base<wchar_t,__crt_stdio_output::stream_output_adapter<wchar_t> >::extract_argument_from_va_list<unsigned int,__int64>(long long&)
FUNC 1ece4 bb 0 __crt_stdio_output::positional_parameter_base<wchar_t,__crt_stdio_output::string_output_adapter<wchar_t> >::extract_argument_from_va_list<unsigned int,__int64>(long long&)
FUNC 1edd0 12 0 __crt_stdio_output::standard_base<char,__crt_stdio_output::stream_output_adapter<char> >::extract_argument_from_va_list<unsigned int,__int64>(long long&)
FUNC 1ede8 12 0 __crt_stdio_output::standard_base<char,__crt_stdio_output::string_output_adapter<char> >::extract_argument_from_va_list<unsigned int,__int64>(long long&)
FUNC 1ee00 12 0 __crt_stdio_output::standard_base<wchar_t,__crt_stdio_output::stream_output_adapter<wchar_t> >::extract_argument_from_va_list<unsigned int,__int64>(long long&)
FUNC 1ee18 12 0 __crt_stdio_output::standard_base<wchar_t,__crt_stdio_output::string_output_adapter<wchar_t> >::extract_argument_from_va_list<unsigned int,__int64>(long long&)
FUNC 1ee30 ba 0 __crt_stdio_output::positional_parameter_base<char,__crt_stdio_output::stream_output_adapter<char> >::extract_argument_from_va_list<char * __ptr64,char * __ptr64>(char*&)
FUNC 1ef18 ba 0 __crt_stdio_output::positional_parameter_base<char,__crt_stdio_output::string_output_adapter<char> >::extract_argument_from_va_list<char * __ptr64,char * __ptr64>(char*&)
FUNC 1f000 bc 0 __crt_stdio_output::positional_parameter_base<wchar_t,__crt_stdio_output::stream_output_adapter<wchar_t> >::extract_argument_from_va_list<char * __ptr64,char * __ptr64>(char*&)
FUNC 1f0ec bc 0 __crt_stdio_output::positional_parameter_base<wchar_t,__crt_stdio_output::string_output_adapter<wchar_t> >::extract_argument_from_va_list<char * __ptr64,char * __ptr64>(char*&)
FUNC 1f1d8 13 0 __crt_stdio_output::standard_base<char,__crt_stdio_output::stream_output_adapter<char> >::extract_argument_from_va_list<char * __ptr64,char * __ptr64>(char*&)
FUNC 1f1f0 13 0 __crt_stdio_output::standard_base<char,__crt_stdio_output::string_output_adapter<char> >::extract_argument_from_va_list<char * __ptr64,char * __ptr64>(char*&)
FUNC 1f208 13 0 __crt_stdio_output::standard_base<wchar_t,__crt_stdio_output::stream_output_adapter<wchar_t> >::extract_argument_from_va_list<char * __ptr64,char * __ptr64>(char*&)
FUNC 1f220 13 0 __crt_stdio_output::standard_base<wchar_t,__crt_stdio_output::string_output_adapter<wchar_t> >::extract_argument_from_va_list<char * __ptr64,char * __ptr64>(char*&)
FUNC 1f238 13 0 __crt_stdio_output::standard_base<char,__crt_stdio_output::stream_output_adapter<char> >::extract_argument_from_va_list<`__crt_stdio_output::output_processor<char,__crt_stdio_output::stream_output_adapter<char>,__crt_stdio_output::format_validation_base<char,__crt_stdio_output::stream_output_adapter<char> > >::type_case_Z'::`2'::ansi_string * __ptr64,`__crt_stdio_output::output_processor<char,__crt_stdio_output::stream_output_adapter<char>,__crt_stdio_output::format_validation_base<char,__crt_stdio_output::stream_output_adapter<char> > >::type_case_Z'::`2'::ansi_string * __ptr64>(__crt_stdio_output::output_processor<char,__crt_stdio_output::stream_output_adapter<char>,__crt_stdio_output::format_validation_base<char,__crt_stdio_output::stream_output_adapter<char> > >::type_case_Z::__l2::ansi_string*&)
FUNC 1f250 ba 0 __crt_stdio_output::positional_parameter_base<char,__crt_stdio_output::stream_output_adapter<char> >::extract_argument_from_va_list<`__crt_stdio_output::output_processor<char,__crt_stdio_output::stream_output_adapter<char>,__crt_stdio_output::positional_parameter_base<char,__crt_stdio_output::stream_output_adapter<char> > >::type_case_Z'::`2'::ansi_string * __ptr64,`__crt_stdio_output::output_processor<char,__crt_stdio_output::stream_output_adapter<char>,__crt_stdio_output::positional_parameter_base<char,__crt_stdio_output::stream_output_adapter<char> > >::type_case_Z'::`2'::ansi_string * __ptr64>(__crt_stdio_output::output_processor<char,__crt_stdio_output::stream_output_adapter<char>,__crt_stdio_output::positional_parameter_base<char,__crt_stdio_output::stream_output_adapter<char> > >::type_case_Z::__l2::ansi_string*&)
FUNC 1f338 13 0 __crt_stdio_output::standard_base<char,__crt_stdio_output::stream_output_adapter<char> >::extract_argument_from_va_list<`__crt_stdio_output::output_processor<char,__crt_stdio_output::stream_output_adapter<char>,__crt_stdio_output::positional_parameter_base<char,__crt_stdio_output::stream_output_adapter<char> > >::type_case_Z'::`2'::ansi_string * __ptr64,`__crt_stdio_output::output_processor<char,__crt_stdio_output::stream_output_adapter<char>,__crt_stdio_output::positional_parameter_base<char,__crt_stdio_output::stream_output_adapter<char> > >::type_case_Z'::`2'::ansi_string * __ptr64>(__crt_stdio_output::output_processor<char,__crt_stdio_output::stream_output_adapter<char>,__crt_stdio_output::positional_parameter_base<char,__crt_stdio_output::stream_output_adapter<char> > >::type_case_Z::__l2::ansi_string*&)
FUNC 1f350 13 0 __crt_stdio_output::standard_base<char,__crt_stdio_output::stream_output_adapter<char> >::extract_argument_from_va_list<`__crt_stdio_output::output_processor<char,__crt_stdio_output::stream_output_adapter<char>,__crt_stdio_output::standard_base<char,__crt_stdio_output::stream_output_adapter<char> > >::type_case_Z'::`2'::ansi_string * __ptr64,`__crt_stdio_output::output_processor<char,__crt_stdio_output::stream_output_adapter<char>,__crt_stdio_output::standard_base<char,__crt_stdio_output::stream_output_adapter<char> > >::type_case_Z'::`2'::ansi_string * __ptr64>(__crt_stdio_output::output_processor<char,__crt_stdio_output::stream_output_adapter<char>,__crt_stdio_output::standard_base<char,__crt_stdio_output::stream_output_adapter<char> > >::type_case_Z::__l2::ansi_string*&)
FUNC 1f368 13 0 __crt_stdio_output::standard_base<char,__crt_stdio_output::string_output_adapter<char> >::extract_argument_from_va_list<`__crt_stdio_output::output_processor<char,__crt_stdio_output::string_output_adapter<char>,__crt_stdio_output::format_validation_base<char,__crt_stdio_output::string_output_adapter<char> > >::type_case_Z'::`2'::ansi_string * __ptr64,`__crt_stdio_output::output_processor<char,__crt_stdio_output::string_output_adapter<char>,__crt_stdio_output::format_validation_base<char,__crt_stdio_output::string_output_adapter<char> > >::type_case_Z'::`2'::ansi_string * __ptr64>(__crt_stdio_output::output_processor<char,__crt_stdio_output::string_output_adapter<char>,__crt_stdio_output::format_validation_base<char,__crt_stdio_output::string_output_adapter<char> > >::type_case_Z::__l2::ansi_string*&)
FUNC 1f380 ba 0 __crt_stdio_output::positional_parameter_base<char,__crt_stdio_output::string_output_adapter<char> >::extract_argument_from_va_list<`__crt_stdio_output::output_processor<char,__crt_stdio_output::string_output_adapter<char>,__crt_stdio_output::positional_parameter_base<char,__crt_stdio_output::string_output_adapter<char> > >::type_case_Z'::`2'::ansi_string * __ptr64,`__crt_stdio_output::output_processor<char,__crt_stdio_output::string_output_adapter<char>,__crt_stdio_output::positional_parameter_base<char,__crt_stdio_output::string_output_adapter<char> > >::type_case_Z'::`2'::ansi_string * __ptr64>(__crt_stdio_output::output_processor<char,__crt_stdio_output::string_output_adapter<char>,__crt_stdio_output::positional_parameter_base<char,__crt_stdio_output::string_output_adapter<char> > >::type_case_Z::__l2::ansi_string*&)
FUNC 1f468 13 0 __crt_stdio_output::standard_base<char,__crt_stdio_output::string_output_adapter<char> >::extract_argument_from_va_list<`__crt_stdio_output::output_processor<char,__crt_stdio_output::string_output_adapter<char>,__crt_stdio_output::positional_parameter_base<char,__crt_stdio_output::string_output_adapter<char> > >::type_case_Z'::`2'::ansi_string * __ptr64,`__crt_stdio_output::output_processor<char,__crt_stdio_output::string_output_adapter<char>,__crt_stdio_output::positional_parameter_base<char,__crt_stdio_output::string_output_adapter<char> > >::type_case_Z'::`2'::ansi_string * __ptr64>(__crt_stdio_output::output_processor<char,__crt_stdio_output::string_output_adapter<char>,__crt_stdio_output::positional_parameter_base<char,__crt_stdio_output::string_output_adapter<char> > >::type_case_Z::__l2::ansi_string*&)
FUNC 1f480 13 0 __crt_stdio_output::standard_base<char,__crt_stdio_output::string_output_adapter<char> >::extract_argument_from_va_list<`__crt_stdio_output::output_processor<char,__crt_stdio_output::string_output_adapter<char>,__crt_stdio_output::standard_base<char,__crt_stdio_output::string_output_adapter<char> > >::type_case_Z'::`2'::ansi_string * __ptr64,`__crt_stdio_output::output_processor<char,__crt_stdio_output::string_output_adapter<char>,__crt_stdio_output::standard_base<char,__crt_stdio_output::string_output_adapter<char> > >::type_case_Z'::`2'::ansi_string * __ptr64>(__crt_stdio_output::output_processor<char,__crt_stdio_output::string_output_adapter<char>,__crt_stdio_output::standard_base<char,__crt_stdio_output::string_output_adapter<char> > >::type_case_Z::__l2::ansi_string*&)
FUNC 1f498 13 0 __crt_stdio_output::standard_base<wchar_t,__crt_stdio_output::stream_output_adapter<wchar_t> >::extract_argument_from_va_list<`__crt_stdio_output::output_processor<wchar_t,__crt_stdio_output::stream_output_adapter<wchar_t>,__crt_stdio_output::format_validation_base<wchar_t,__crt_stdio_output::stream_output_adapter<wchar_t> > >::type_case_Z'::`2'::ansi_string * __ptr64,`__crt_stdio_output::output_processor<wchar_t,__crt_stdio_output::stream_output_adapter<wchar_t>,__crt_stdio_output::format_validation_base<wchar_t,__crt_stdio_output::stream_output_adapter<wchar_t> > >::type_case_Z'::`2'::ansi_string * __ptr64>(__crt_stdio_output::output_processor<wchar_t,__crt_stdio_output::stream_output_adapter<wchar_t>,__crt_stdio_output::format_validation_base<wchar_t,__crt_stdio_output::stream_output_adapter<wchar_t> > >::type_case_Z::__l2::ansi_string*&)
FUNC 1f4b0 bc 0 __crt_stdio_output::positional_parameter_base<wchar_t,__crt_stdio_output::stream_output_adapter<wchar_t> >::extract_argument_from_va_list<`__crt_stdio_output::output_processor<wchar_t,__crt_stdio_output::stream_output_adapter<wchar_t>,__crt_stdio_output::positional_parameter_base<wchar_t,__crt_stdio_output::stream_output_adapter<wchar_t> > >::type_case_Z'::`2'::ansi_string * __ptr64,`__crt_stdio_output::output_processor<wchar_t,__crt_stdio_output::stream_output_adapter<wchar_t>,__crt_stdio_output::positional_parameter_base<wchar_t,__crt_stdio_output::stream_output_adapter<wchar_t> > >::type_case_Z'::`2'::ansi_string * __ptr64>(__crt_stdio_output::output_processor<wchar_t,__crt_stdio_output::stream_output_adapter<wchar_t>,__crt_stdio_output::positional_parameter_base<wchar_t,__crt_stdio_output::stream_output_adapter<wchar_t> > >::type_case_Z::__l2::ansi_string*&)
FUNC 1f59c 13 0 __crt_stdio_output::standard_base<wchar_t,__crt_stdio_output::stream_output_adapter<wchar_t> >::extract_argument_from_va_list<`__crt_stdio_output::output_processor<wchar_t,__crt_stdio_output::stream_output_adapter<wchar_t>,__crt_stdio_output::positional_parameter_base<wchar_t,__crt_stdio_output::stream_output_adapter<wchar_t> > >::type_case_Z'::`2'::ansi_string * __ptr64,`__crt_stdio_output::output_processor<wchar_t,__crt_stdio_output::stream_output_adapter<wchar_t>,__crt_stdio_output::positional_parameter_base<wchar_t,__crt_stdio_output::stream_output_adapter<wchar_t> > >::type_case_Z'::`2'::ansi_string * __ptr64>(__crt_stdio_output::output_processor<wchar_t,__crt_stdio_output::stream_output_adapter<wchar_t>,__crt_stdio_output::positional_parameter_base<wchar_t,__crt_stdio_output::stream_output_adapter<wchar_t> > >::type_case_Z::__l2::ansi_string*&)
FUNC 1f5b4 13 0 __crt_stdio_output::standard_base<wchar_t,__crt_stdio_output::stream_output_adapter<wchar_t> >::extract_argument_from_va_list<`__crt_stdio_output::output_processor<wchar_t,__crt_stdio_output::stream_output_adapter<wchar_t>,__crt_stdio_output::standard_base<wchar_t,__crt_stdio_output::stream_output_adapter<wchar_t> > >::type_case_Z'::`2'::ansi_string * __ptr64,`__crt_stdio_output::output_processor<wchar_t,__crt_stdio_output::stream_output_adapter<wchar_t>,__crt_stdio_output::standard_base<wchar_t,__crt_stdio_output::stream_output_adapter<wchar_t> > >::type_case_Z'::`2'::ansi_string * __ptr64>(__crt_stdio_output::output_processor<wchar_t,__crt_stdio_output::stream_output_adapter<wchar_t>,__crt_stdio_output::standard_base<wchar_t,__crt_stdio_output::stream_output_adapter<wchar_t> > >::type_case_Z::__l2::ansi_string*&)
FUNC 1f5cc 13 0 __crt_stdio_output::standard_base<wchar_t,__crt_stdio_output::string_output_adapter<wchar_t> >::extract_argument_from_va_list<`__crt_stdio_output::output_processor<wchar_t,__crt_stdio_output::string_output_adapter<wchar_t>,__crt_stdio_output::format_validation_base<wchar_t,__crt_stdio_output::string_output_adapter<wchar_t> > >::type_case_Z'::`2'::ansi_string * __ptr64,`__crt_stdio_output::output_processor<wchar_t,__crt_stdio_output::string_output_adapter<wchar_t>,__crt_stdio_output::format_validation_base<wchar_t,__crt_stdio_output::string_output_adapter<wchar_t> > >::type_case_Z'::`2'::ansi_string * __ptr64>(__crt_stdio_output::output_processor<wchar_t,__crt_stdio_output::string_output_adapter<wchar_t>,__crt_stdio_output::format_validation_base<wchar_t,__crt_stdio_output::string_output_adapter<wchar_t> > >::type_case_Z::__l2::ansi_string*&)
FUNC 1f5e4 bc 0 __crt_stdio_output::positional_parameter_base<wchar_t,__crt_stdio_output::string_output_adapter<wchar_t> >::extract_argument_from_va_list<`__crt_stdio_output::output_processor<wchar_t,__crt_stdio_output::string_output_adapter<wchar_t>,__crt_stdio_output::positional_parameter_base<wchar_t,__crt_stdio_output::string_output_adapter<wchar_t> > >::type_case_Z'::`2'::ansi_string * __ptr64,`__crt_stdio_output::output_processor<wchar_t,__crt_stdio_output::string_output_adapter<wchar_t>,__crt_stdio_output::positional_parameter_base<wchar_t,__crt_stdio_output::string_output_adapter<wchar_t> > >::type_case_Z'::`2'::ansi_string * __ptr64>(__crt_stdio_output::output_processor<wchar_t,__crt_stdio_output::string_output_adapter<wchar_t>,__crt_stdio_output::positional_parameter_base<wchar_t,__crt_stdio_output::string_output_adapter<wchar_t> > >::type_case_Z::__l2::ansi_string*&)
FUNC 1f6d0 13 0 __crt_stdio_output::standard_base<wchar_t,__crt_stdio_output::string_output_adapter<wchar_t> >::extract_argument_from_va_list<`__crt_stdio_output::output_processor<wchar_t,__crt_stdio_output::string_output_adapter<wchar_t>,__crt_stdio_output::positional_parameter_base<wchar_t,__crt_stdio_output::string_output_adapter<wchar_t> > >::type_case_Z'::`2'::ansi_string * __ptr64,`__crt_stdio_output::output_processor<wchar_t,__crt_stdio_output::string_output_adapter<wchar_t>,__crt_stdio_output::positional_parameter_base<wchar_t,__crt_stdio_output::string_output_adapter<wchar_t> > >::type_case_Z'::`2'::ansi_string * __ptr64>(__crt_stdio_output::output_processor<wchar_t,__crt_stdio_output::string_output_adapter<wchar_t>,__crt_stdio_output::positional_parameter_base<wchar_t,__crt_stdio_output::string_output_adapter<wchar_t> > >::type_case_Z::__l2::ansi_string*&)
FUNC 1f6e8 13 0 __crt_stdio_output::standard_base<wchar_t,__crt_stdio_output::string_output_adapter<wchar_t> >::extract_argument_from_va_list<`__crt_stdio_output::output_processor<wchar_t,__crt_stdio_output::string_output_adapter<wchar_t>,__crt_stdio_output::standard_base<wchar_t,__crt_stdio_output::string_output_adapter<wchar_t> > >::type_case_Z'::`2'::ansi_string * __ptr64,`__crt_stdio_output::output_processor<wchar_t,__crt_stdio_output::string_output_adapter<wchar_t>,__crt_stdio_output::standard_base<wchar_t,__crt_stdio_output::string_output_adapter<wchar_t> > >::type_case_Z'::`2'::ansi_string * __ptr64>(__crt_stdio_output::output_processor<wchar_t,__crt_stdio_output::string_output_adapter<wchar_t>,__crt_stdio_output::standard_base<wchar_t,__crt_stdio_output::string_output_adapter<wchar_t> > >::type_case_Z::__l2::ansi_string*&)
FUNC 1f700 ba 0 __crt_stdio_output::positional_parameter_base<char,__crt_stdio_output::stream_output_adapter<char> >::extract_argument_from_va_list<void * __ptr64,void * __ptr64>(void*&)
FUNC 1f7e8 ba 0 __crt_stdio_output::positional_parameter_base<char,__crt_stdio_output::string_output_adapter<char> >::extract_argument_from_va_list<void * __ptr64,void * __ptr64>(void*&)
FUNC 1f8d0 bc 0 __crt_stdio_output::positional_parameter_base<wchar_t,__crt_stdio_output::stream_output_adapter<wchar_t> >::extract_argument_from_va_list<void * __ptr64,void * __ptr64>(void*&)
FUNC 1f9bc bc 0 __crt_stdio_output::positional_parameter_base<wchar_t,__crt_stdio_output::string_output_adapter<wchar_t> >::extract_argument_from_va_list<void * __ptr64,void * __ptr64>(void*&)
FUNC 1faa8 13 0 __crt_stdio_output::standard_base<char,__crt_stdio_output::stream_output_adapter<char> >::extract_argument_from_va_list<void * __ptr64,void * __ptr64>(void*&)
FUNC 1fac0 13 0 __crt_stdio_output::standard_base<char,__crt_stdio_output::string_output_adapter<char> >::extract_argument_from_va_list<void * __ptr64,void * __ptr64>(void*&)
FUNC 1fad8 13 0 __crt_stdio_output::standard_base<wchar_t,__crt_stdio_output::stream_output_adapter<wchar_t> >::extract_argument_from_va_list<void * __ptr64,void * __ptr64>(void*&)
FUNC 1faf0 13 0 __crt_stdio_output::standard_base<wchar_t,__crt_stdio_output::string_output_adapter<wchar_t> >::extract_argument_from_va_list<void * __ptr64,void * __ptr64>(void*&)
FUNC 1fb08 ba 0 __crt_stdio_output::positional_parameter_base<char,__crt_stdio_output::stream_output_adapter<char> >::extract_argument_from_va_list<_CRT_DOUBLE,_CRT_DOUBLE>(_CRT_DOUBLE&)
FUNC 1fbf0 ba 0 __crt_stdio_output::positional_parameter_base<char,__crt_stdio_output::string_output_adapter<char> >::extract_argument_from_va_list<_CRT_DOUBLE,_CRT_DOUBLE>(_CRT_DOUBLE&)
FUNC 1fcd8 bc 0 __crt_stdio_output::positional_parameter_base<wchar_t,__crt_stdio_output::stream_output_adapter<wchar_t> >::extract_argument_from_va_list<_CRT_DOUBLE,_CRT_DOUBLE>(_CRT_DOUBLE&)
FUNC 1fdc4 bc 0 __crt_stdio_output::positional_parameter_base<wchar_t,__crt_stdio_output::string_output_adapter<wchar_t> >::extract_argument_from_va_list<_CRT_DOUBLE,_CRT_DOUBLE>(_CRT_DOUBLE&)
FUNC 1feb0 15 0 __crt_stdio_output::standard_base<char,__crt_stdio_output::stream_output_adapter<char> >::extract_argument_from_va_list<_CRT_DOUBLE,_CRT_DOUBLE>(_CRT_DOUBLE&)
FUNC 1fecc 15 0 __crt_stdio_output::standard_base<char,__crt_stdio_output::string_output_adapter<char> >::extract_argument_from_va_list<_CRT_DOUBLE,_CRT_DOUBLE>(_CRT_DOUBLE&)
FUNC 1fee8 15 0 __crt_stdio_output::standard_base<wchar_t,__crt_stdio_output::stream_output_adapter<wchar_t> >::extract_argument_from_va_list<_CRT_DOUBLE,_CRT_DOUBLE>(_CRT_DOUBLE&)
FUNC 1ff04 15 0 __crt_stdio_output::standard_base<wchar_t,__crt_stdio_output::string_output_adapter<wchar_t> >::extract_argument_from_va_list<_CRT_DOUBLE,_CRT_DOUBLE>(_CRT_DOUBLE&)
FUNC 1ff20 ba 0 __crt_stdio_output::positional_parameter_base<char,__crt_stdio_output::stream_output_adapter<char> >::extract_argument_from_va_list<__int64,__int64>(long long&)
FUNC 20008 ba 0 __crt_stdio_output::positional_parameter_base<char,__crt_stdio_output::string_output_adapter<char> >::extract_argument_from_va_list<__int64,__int64>(long long&)
FUNC 200f0 bc 0 __crt_stdio_output::positional_parameter_base<wchar_t,__crt_stdio_output::stream_output_adapter<wchar_t> >::extract_argument_from_va_list<__int64,__int64>(long long&)
FUNC 201dc bc 0 __crt_stdio_output::positional_parameter_base<wchar_t,__crt_stdio_output::string_output_adapter<wchar_t> >::extract_argument_from_va_list<__int64,__int64>(long long&)
FUNC 202c8 13 0 __crt_stdio_output::standard_base<char,__crt_stdio_output::stream_output_adapter<char> >::extract_argument_from_va_list<__int64,__int64>(long long&)
FUNC 202e0 13 0 __crt_stdio_output::standard_base<char,__crt_stdio_output::string_output_adapter<char> >::extract_argument_from_va_list<__int64,__int64>(long long&)
FUNC 202f8 13 0 __crt_stdio_output::standard_base<wchar_t,__crt_stdio_output::stream_output_adapter<wchar_t> >::extract_argument_from_va_list<__int64,__int64>(long long&)
FUNC 20310 13 0 __crt_stdio_output::standard_base<wchar_t,__crt_stdio_output::string_output_adapter<wchar_t> >::extract_argument_from_va_list<__int64,__int64>(long long&)
FUNC 20328 ba 0 __crt_stdio_output::positional_parameter_base<char,__crt_stdio_output::stream_output_adapter<char> >::extract_argument_from_va_list<unsigned __int64,__int64>(long long&)
FUNC 20410 ba 0 __crt_stdio_output::positional_parameter_base<char,__crt_stdio_output::string_output_adapter<char> >::extract_argument_from_va_list<unsigned __int64,__int64>(long long&)
FUNC 204f8 bc 0 __crt_stdio_output::positional_parameter_base<wchar_t,__crt_stdio_output::stream_output_adapter<wchar_t> >::extract_argument_from_va_list<unsigned __int64,__int64>(long long&)
FUNC 205e4 bc 0 __crt_stdio_output::positional_parameter_base<wchar_t,__crt_stdio_output::string_output_adapter<wchar_t> >::extract_argument_from_va_list<unsigned __int64,__int64>(long long&)
FUNC 206d0 13 0 __crt_stdio_output::standard_base<char,__crt_stdio_output::stream_output_adapter<char> >::extract_argument_from_va_list<unsigned __int64,__int64>(long long&)
FUNC 206e8 13 0 __crt_stdio_output::standard_base<char,__crt_stdio_output::string_output_adapter<char> >::extract_argument_from_va_list<unsigned __int64,__int64>(long long&)
FUNC 20700 13 0 __crt_stdio_output::standard_base<wchar_t,__crt_stdio_output::stream_output_adapter<wchar_t> >::extract_argument_from_va_list<unsigned __int64,__int64>(long long&)
FUNC 20718 13 0 __crt_stdio_output::standard_base<wchar_t,__crt_stdio_output::string_output_adapter<wchar_t> >::extract_argument_from_va_list<unsigned __int64,__int64>(long long&)
FUNC 20730 bc 0 __crt_stdio_output::positional_parameter_base<char,__crt_stdio_output::stream_output_adapter<char> >::extract_argument_from_va_list<wchar_t,wchar_t>(wchar_t&)
FUNC 2081c bc 0 __crt_stdio_output::positional_parameter_base<char,__crt_stdio_output::string_output_adapter<char> >::extract_argument_from_va_list<wchar_t,wchar_t>(wchar_t&)
FUNC 20908 be 0 __crt_stdio_output::positional_parameter_base<wchar_t,__crt_stdio_output::stream_output_adapter<wchar_t> >::extract_argument_from_va_list<wchar_t,wchar_t>(wchar_t&)
FUNC 209f8 be 0 __crt_stdio_output::positional_parameter_base<wchar_t,__crt_stdio_output::string_output_adapter<wchar_t> >::extract_argument_from_va_list<wchar_t,wchar_t>(wchar_t&)
FUNC 20ae8 13 0 __crt_stdio_output::standard_base<char,__crt_stdio_output::stream_output_adapter<char> >::extract_argument_from_va_list<wchar_t,wchar_t>(wchar_t&)
FUNC 20b00 13 0 __crt_stdio_output::standard_base<char,__crt_stdio_output::string_output_adapter<char> >::extract_argument_from_va_list<wchar_t,wchar_t>(wchar_t&)
FUNC 20b18 13 0 __crt_stdio_output::standard_base<wchar_t,__crt_stdio_output::stream_output_adapter<wchar_t> >::extract_argument_from_va_list<wchar_t,wchar_t>(wchar_t&)
FUNC 20b30 13 0 __crt_stdio_output::standard_base<wchar_t,__crt_stdio_output::string_output_adapter<wchar_t> >::extract_argument_from_va_list<wchar_t,wchar_t>(wchar_t&)
FUNC 20b48 6 0 static __crt_stdio_output::positional_parameter_base<char,__crt_stdio_output::stream_output_adapter<char> >::get_parameter_type<char>(char*)
FUNC 20b50 6 0 static __crt_stdio_output::positional_parameter_base<char,__crt_stdio_output::string_output_adapter<char> >::get_parameter_type<char>(char*)
FUNC 20b58 6 0 static __crt_stdio_output::positional_parameter_base<wchar_t,__crt_stdio_output::stream_output_adapter<wchar_t> >::get_parameter_type<char>(char*)
FUNC 20b60 6 0 static __crt_stdio_output::positional_parameter_base<wchar_t,__crt_stdio_output::string_output_adapter<wchar_t> >::get_parameter_type<char>(char*)
FUNC 20b68 6 0 static __crt_stdio_output::positional_parameter_base<char,__crt_stdio_output::stream_output_adapter<char> >::get_parameter_type<`__crt_stdio_output::output_processor<char,__crt_stdio_output::stream_output_adapter<char>,__crt_stdio_output::positional_parameter_base<char,__crt_stdio_output::stream_output_adapter<char> > >::type_case_Z'::`2'::ansi_string>(__crt_stdio_output::output_processor<char,__crt_stdio_output::stream_output_adapter<char>,__crt_stdio_output::positional_parameter_base<char,__crt_stdio_output::stream_output_adapter<char> > >::type_case_Z::__l2::ansi_string*)
FUNC 20b70 6 0 static __crt_stdio_output::positional_parameter_base<char,__crt_stdio_output::string_output_adapter<char> >::get_parameter_type<`__crt_stdio_output::output_processor<char,__crt_stdio_output::string_output_adapter<char>,__crt_stdio_output::positional_parameter_base<char,__crt_stdio_output::string_output_adapter<char> > >::type_case_Z'::`2'::ansi_string>(__crt_stdio_output::output_processor<char,__crt_stdio_output::string_output_adapter<char>,__crt_stdio_output::positional_parameter_base<char,__crt_stdio_output::string_output_adapter<char> > >::type_case_Z::__l2::ansi_string*)
FUNC 20b78 6 0 static __crt_stdio_output::positional_parameter_base<wchar_t,__crt_stdio_output::stream_output_adapter<wchar_t> >::get_parameter_type<`__crt_stdio_output::output_processor<wchar_t,__crt_stdio_output::stream_output_adapter<wchar_t>,__crt_stdio_output::positional_parameter_base<wchar_t,__crt_stdio_output::stream_output_adapter<wchar_t> > >::type_case_Z'::`2'::ansi_string>(__crt_stdio_output::output_processor<wchar_t,__crt_stdio_output::stream_output_adapter<wchar_t>,__crt_stdio_output::positional_parameter_base<wchar_t,__crt_stdio_output::stream_output_adapter<wchar_t> > >::type_case_Z::__l2::ansi_string*)
FUNC 20b80 6 0 static __crt_stdio_output::positional_parameter_base<wchar_t,__crt_stdio_output::string_output_adapter<wchar_t> >::get_parameter_type<`__crt_stdio_output::output_processor<wchar_t,__crt_stdio_output::string_output_adapter<wchar_t>,__crt_stdio_output::positional_parameter_base<wchar_t,__crt_stdio_output::string_output_adapter<wchar_t> > >::type_case_Z'::`2'::ansi_string>(__crt_stdio_output::output_processor<wchar_t,__crt_stdio_output::string_output_adapter<wchar_t>,__crt_stdio_output::positional_parameter_base<wchar_t,__crt_stdio_output::string_output_adapter<wchar_t> > >::type_case_Z::__l2::ansi_string*)
FUNC 20b88 6 0 static __crt_stdio_output::positional_parameter_base<char,__crt_stdio_output::stream_output_adapter<char> >::get_parameter_type<void>(void*)
FUNC 20b90 6 0 static __crt_stdio_output::positional_parameter_base<char,__crt_stdio_output::string_output_adapter<char> >::get_parameter_type<void>(void*)
FUNC 20b98 6 0 static __crt_stdio_output::positional_parameter_base<wchar_t,__crt_stdio_output::stream_output_adapter<wchar_t> >::get_parameter_type<void>(void*)
FUNC 20ba0 6 0 static __crt_stdio_output::positional_parameter_base<wchar_t,__crt_stdio_output::string_output_adapter<wchar_t> >::get_parameter_type<void>(void*)
FUNC 20ba8 a 0 static __crt_stdio_output::positional_parameter_base<char,__crt_stdio_output::stream_output_adapter<char> >::is_character_specifier<char>(const char)
FUNC 20bb4 a 0 static __crt_stdio_output::positional_parameter_base<char,__crt_stdio_output::string_output_adapter<char> >::is_character_specifier<char>(const char)
FUNC 20bc0 10 0 static __crt_stdio_output::positional_parameter_base<wchar_t,__crt_stdio_output::stream_output_adapter<wchar_t> >::is_character_specifier<wchar_t>(const wchar_t)
FUNC 20bd4 10 0 static __crt_stdio_output::positional_parameter_base<wchar_t,__crt_stdio_output::string_output_adapter<wchar_t> >::is_character_specifier<wchar_t>(const wchar_t)
FUNC 20be8 26 0 static __crt_stdio_output::positional_parameter_base<char,__crt_stdio_output::stream_output_adapter<char> >::is_integral_specifier<char>(const char)
FUNC 20c18 26 0 static __crt_stdio_output::positional_parameter_base<char,__crt_stdio_output::string_output_adapter<char> >::is_integral_specifier<char>(const char)
FUNC 20c48 28 0 static __crt_stdio_output::positional_parameter_base<wchar_t,__crt_stdio_output::stream_output_adapter<wchar_t> >::is_integral_specifier<wchar_t>(const wchar_t)
FUNC 20c7c 28 0 static __crt_stdio_output::positional_parameter_base<wchar_t,__crt_stdio_output::string_output_adapter<wchar_t> >::is_integral_specifier<wchar_t>(const wchar_t)
FUNC 20cb0 7 0 static __crt_stdio_output::positional_parameter_base<char,__crt_stdio_output::stream_output_adapter<char> >::is_pointer_specifier<char>(const char)
FUNC 20cb8 7 0 static __crt_stdio_output::positional_parameter_base<char,__crt_stdio_output::string_output_adapter<char> >::is_pointer_specifier<char>(const char)
FUNC 20cc0 8 0 static __crt_stdio_output::positional_parameter_base<wchar_t,__crt_stdio_output::stream_output_adapter<wchar_t> >::is_pointer_specifier<wchar_t>(const wchar_t)
FUNC 20ccc 8 0 static __crt_stdio_output::positional_parameter_base<wchar_t,__crt_stdio_output::string_output_adapter<wchar_t> >::is_pointer_specifier<wchar_t>(const wchar_t)
FUNC 20cd8 a 0 static __crt_stdio_output::positional_parameter_base<char,__crt_stdio_output::stream_output_adapter<char> >::is_string_specifier<char>(const char)
FUNC 20ce4 a 0 static __crt_stdio_output::positional_parameter_base<char,__crt_stdio_output::string_output_adapter<char> >::is_string_specifier<char>(const char)
FUNC 20cf0 10 0 static __crt_stdio_output::positional_parameter_base<wchar_t,__crt_stdio_output::stream_output_adapter<wchar_t> >::is_string_specifier<wchar_t>(const wchar_t)
FUNC 20d04 10 0 static __crt_stdio_output::positional_parameter_base<wchar_t,__crt_stdio_output::string_output_adapter<wchar_t> >::is_string_specifier<wchar_t>(const wchar_t)
FUNC 20d18 28 0 __crt_stdio_output::is_wide_character_specifier<char>(const unsigned long long, const char, const __crt_stdio_output::length_modifier)
FUNC 20d4c 3e 0 __crt_stdio_output::is_wide_character_specifier<wchar_t>(const unsigned long long, const wchar_t, const __crt_stdio_output::length_modifier)
FUNC 20d9c 3 0 __crt_stdio_output::peek_va_arg<signed char>(char*)
FUNC 20da0 3 0 __crt_stdio_output::peek_va_arg<unsigned char>(char*)
FUNC 20da4 4 0 __crt_stdio_output::peek_va_arg<short>(char*)
FUNC 20da8 4 0 __crt_stdio_output::peek_va_arg<unsigned short>(char*)
FUNC 20dac 3 0 __crt_stdio_output::peek_va_arg<int>(char*)
FUNC 20db0 3 0 __crt_stdio_output::peek_va_arg<unsigned int>(char*)
FUNC 20db4 4 0 __crt_stdio_output::peek_va_arg<char * __ptr64>(char*)
FUNC 20db8 4 0 __crt_stdio_output::peek_va_arg<`__crt_stdio_output::output_processor<char,__crt_stdio_output::stream_output_adapter<char>,__crt_stdio_output::positional_parameter_base<char,__crt_stdio_output::stream_output_adapter<char> > >::type_case_Z'::`2'::ansi_string * __ptr64>(char*)
FUNC 20dbc 4 0 __crt_stdio_output::peek_va_arg<`__crt_stdio_output::output_processor<char,__crt_stdio_output::string_output_adapter<char>,__crt_stdio_output::positional_parameter_base<char,__crt_stdio_output::string_output_adapter<char> > >::type_case_Z'::`2'::ansi_string * __ptr64>(char*)
FUNC 20dc0 4 0 __crt_stdio_output::peek_va_arg<`__crt_stdio_output::output_processor<wchar_t,__crt_stdio_output::stream_output_adapter<wchar_t>,__crt_stdio_output::positional_parameter_base<wchar_t,__crt_stdio_output::stream_output_adapter<wchar_t> > >::type_case_Z'::`2'::ansi_string * __ptr64>(char*)
FUNC 20dc4 4 0 __crt_stdio_output::peek_va_arg<`__crt_stdio_output::output_processor<wchar_t,__crt_stdio_output::string_output_adapter<wchar_t>,__crt_stdio_output::positional_parameter_base<wchar_t,__crt_stdio_output::string_output_adapter<wchar_t> > >::type_case_Z'::`2'::ansi_string * __ptr64>(char*)
FUNC 20dc8 4 0 __crt_stdio_output::peek_va_arg<void * __ptr64>(char*)
FUNC 20dcc 4 0 __crt_stdio_output::peek_va_arg<_CRT_DOUBLE>(char*)
FUNC 20dd0 4 0 __crt_stdio_output::peek_va_arg<__int64>(char*)
FUNC 20dd4 4 0 __crt_stdio_output::peek_va_arg<unsigned __int64>(char*)
FUNC 20dd8 4 0 __crt_stdio_output::peek_va_arg<wchar_t>(char*)
FUNC 20ddc b 0 static __crt_char_traits<char>::puttc_nolock<char const & __ptr64,_iobuf * __ptr64>(char const&, _iobuf*&&)
FUNC 20dec b 0 static __crt_char_traits<wchar_t>::puttc_nolock<wchar_t const & __ptr64,_iobuf * __ptr64>(wchar_t const&, _iobuf*&&)
FUNC 20dfc b 0 __crt_stdio_output::read_va_arg<signed char>(char*&)
FUNC 20e0c b 0 __crt_stdio_output::read_va_arg<unsigned char>(char*&)
FUNC 20e1c c 0 __crt_stdio_output::read_va_arg<short>(char*&)
FUNC 20e2c c 0 __crt_stdio_output::read_va_arg<unsigned short>(char*&)
FUNC 20e3c b 0 __crt_stdio_output::read_va_arg<int>(char*&)
FUNC 20e4c b 0 __crt_stdio_output::read_va_arg<unsigned int>(char*&)
FUNC 20e5c c 0 __crt_stdio_output::read_va_arg<char * __ptr64>(char*&)
FUNC 20e6c c 0 __crt_stdio_output::read_va_arg<`__crt_stdio_output::output_processor<char,__crt_stdio_output::stream_output_adapter<char>,__crt_stdio_output::format_validation_base<char,__crt_stdio_output::stream_output_adapter<char> > >::type_case_Z'::`2'::ansi_string * __ptr64>(char*&)
FUNC 20e7c c 0 __crt_stdio_output::read_va_arg<`__crt_stdio_output::output_processor<char,__crt_stdio_output::stream_output_adapter<char>,__crt_stdio_output::positional_parameter_base<char,__crt_stdio_output::stream_output_adapter<char> > >::type_case_Z'::`2'::ansi_string * __ptr64>(char*&)
FUNC 20e8c c 0 __crt_stdio_output::read_va_arg<`__crt_stdio_output::output_processor<char,__crt_stdio_output::stream_output_adapter<char>,__crt_stdio_output::standard_base<char,__crt_stdio_output::stream_output_adapter<char> > >::type_case_Z'::`2'::ansi_string * __ptr64>(char*&)
FUNC 20e9c c 0 __crt_stdio_output::read_va_arg<`__crt_stdio_output::output_processor<char,__crt_stdio_output::string_output_adapter<char>,__crt_stdio_output::format_validation_base<char,__crt_stdio_output::string_output_adapter<char> > >::type_case_Z'::`2'::ansi_string * __ptr64>(char*&)
FUNC 20eac c 0 __crt_stdio_output::read_va_arg<`__crt_stdio_output::output_processor<char,__crt_stdio_output::string_output_adapter<char>,__crt_stdio_output::positional_parameter_base<char,__crt_stdio_output::string_output_adapter<char> > >::type_case_Z'::`2'::ansi_string * __ptr64>(char*&)
FUNC 20ebc c 0 __crt_stdio_output::read_va_arg<`__crt_stdio_output::output_processor<char,__crt_stdio_output::string_output_adapter<char>,__crt_stdio_output::standard_base<char,__crt_stdio_output::string_output_adapter<char> > >::type_case_Z'::`2'::ansi_string * __ptr64>(char*&)
FUNC 20ecc c 0 __crt_stdio_output::read_va_arg<`__crt_stdio_output::output_processor<wchar_t,__crt_stdio_output::stream_output_adapter<wchar_t>,__crt_stdio_output::format_validation_base<wchar_t,__crt_stdio_output::stream_output_adapter<wchar_t> > >::type_case_Z'::`2'::ansi_string * __ptr64>(char*&)
FUNC 20edc c 0 __crt_stdio_output::read_va_arg<`__crt_stdio_output::output_processor<wchar_t,__crt_stdio_output::stream_output_adapter<wchar_t>,__crt_stdio_output::positional_parameter_base<wchar_t,__crt_stdio_output::stream_output_adapter<wchar_t> > >::type_case_Z'::`2'::ansi_string * __ptr64>(char*&)
FUNC 20eec c 0 __crt_stdio_output::read_va_arg<`__crt_stdio_output::output_processor<wchar_t,__crt_stdio_output::stream_output_adapter<wchar_t>,__crt_stdio_output::standard_base<wchar_t,__crt_stdio_output::stream_output_adapter<wchar_t> > >::type_case_Z'::`2'::ansi_string * __ptr64>(char*&)
FUNC 20efc c 0 __crt_stdio_output::read_va_arg<`__crt_stdio_output::output_processor<wchar_t,__crt_stdio_output::string_output_adapter<wchar_t>,__crt_stdio_output::format_validation_base<wchar_t,__crt_stdio_output::string_output_adapter<wchar_t> > >::type_case_Z'::`2'::ansi_string * __ptr64>(char*&)
FUNC 20f0c c 0 __crt_stdio_output::read_va_arg<`__crt_stdio_output::output_processor<wchar_t,__crt_stdio_output::string_output_adapter<wchar_t>,__crt_stdio_output::positional_parameter_base<wchar_t,__crt_stdio_output::string_output_adapter<wchar_t> > >::type_case_Z'::`2'::ansi_string * __ptr64>(char*&)
FUNC 20f1c c 0 __crt_stdio_output::read_va_arg<`__crt_stdio_output::output_processor<wchar_t,__crt_stdio_output::string_output_adapter<wchar_t>,__crt_stdio_output::standard_base<wchar_t,__crt_stdio_output::string_output_adapter<wchar_t> > >::type_case_Z'::`2'::ansi_string * __ptr64>(char*&)
FUNC 20f2c c 0 __crt_stdio_output::read_va_arg<void * __ptr64>(char*&)
FUNC 20f3c c 0 __crt_stdio_output::read_va_arg<_CRT_DOUBLE>(char*&)
FUNC 20f4c c 0 __crt_stdio_output::read_va_arg<__int64>(char*&)
FUNC 20f5c c 0 __crt_stdio_output::read_va_arg<unsigned __int64>(char*&)
FUNC 20f6c c 0 __crt_stdio_output::read_va_arg<wchar_t>(char*&)
FUNC 20f7c 1b 0 __crt_stdio_output::formatting_buffer::scratch_count<char>() const
FUNC 20fa0 22 0 __crt_stdio_output::formatting_buffer::scratch_data<char>()
FUNC 20fcc e 0 static __crt_char_traits<char>::tcstol<char const * __ptr64 & __ptr64,char * __ptr64 * __ptr64,int>(char const*&, char**&&, int&&)
FUNC 20fe0 e 0 static __crt_char_traits<wchar_t>::tcstol<wchar_t const * __ptr64 & __ptr64,wchar_t * __ptr64 * __ptr64,int>(wchar_t const*&, wchar_t**&&, int&&)
FUNC 20ff4 e 0 static __crt_char_traits<char>::tcstol<char const * __ptr64,char * __ptr64 * __ptr64,int>(char const*&&, char**&&, int&&)
FUNC 21008 e 0 static __crt_char_traits<wchar_t>::tcstol<wchar_t const * __ptr64,wchar_t * __ptr64 * __ptr64,int>(wchar_t const*&&, wchar_t**&&, int&&)
FUNC 2101c 8e 0 __crt_stdio_output::output_processor<char,__crt_stdio_output::stream_output_adapter<char>,__crt_stdio_output::format_validation_base<char,__crt_stdio_output::stream_output_adapter<char> > >::type_case_integer_parse_into_buffer<unsigned int>(unsigned int, const unsigned int, const bool)
FUNC 210d0 8e 0 __crt_stdio_output::output_processor<char,__crt_stdio_output::stream_output_adapter<char>,__crt_stdio_output::positional_parameter_base<char,__crt_stdio_output::stream_output_adapter<char> > >::type_case_integer_parse_into_buffer<unsigned int>(unsigned int, const unsigned int, const bool)
FUNC 21184 8e 0 __crt_stdio_output::output_processor<char,__crt_stdio_output::stream_output_adapter<char>,__crt_stdio_output::standard_base<char,__crt_stdio_output::stream_output_adapter<char> > >::type_case_integer_parse_into_buffer<unsigned int>(unsigned int, const unsigned int, const bool)
FUNC 21238 8e 0 __crt_stdio_output::output_processor<char,__crt_stdio_output::string_output_adapter<char>,__crt_stdio_output::format_validation_base<char,__crt_stdio_output::string_output_adapter<char> > >::type_case_integer_parse_into_buffer<unsigned int>(unsigned int, const unsigned int, const bool)
FUNC 212ec 8e 0 __crt_stdio_output::output_processor<char,__crt_stdio_output::string_output_adapter<char>,__crt_stdio_output::positional_parameter_base<char,__crt_stdio_output::string_output_adapter<char> > >::type_case_integer_parse_into_buffer<unsigned int>(unsigned int, const unsigned int, const bool)
FUNC 213a0 8e 0 __crt_stdio_output::output_processor<char,__crt_stdio_output::string_output_adapter<char>,__crt_stdio_output::standard_base<char,__crt_stdio_output::string_output_adapter<char> > >::type_case_integer_parse_into_buffer<unsigned int>(unsigned int, const unsigned int, const bool)
FUNC 21454 a3 0 __crt_stdio_output::output_processor<wchar_t,__crt_stdio_output::stream_output_adapter<wchar_t>,__crt_stdio_output::format_validation_base<wchar_t,__crt_stdio_output::stream_output_adapter<wchar_t> > >::type_case_integer_parse_into_buffer<unsigned int>(unsigned int, const unsigned int, const bool)
FUNC 21520 a3 0 __crt_stdio_output::output_processor<wchar_t,__crt_stdio_output::stream_output_adapter<wchar_t>,__crt_stdio_output::positional_parameter_base<wchar_t,__crt_stdio_output::stream_output_adapter<wchar_t> > >::type_case_integer_parse_into_buffer<unsigned int>(unsigned int, const unsigned int, const bool)
FUNC 215ec a3 0 __crt_stdio_output::output_processor<wchar_t,__crt_stdio_output::stream_output_adapter<wchar_t>,__crt_stdio_output::standard_base<wchar_t,__crt_stdio_output::stream_output_adapter<wchar_t> > >::type_case_integer_parse_into_buffer<unsigned int>(unsigned int, const unsigned int, const bool)
FUNC 216b8 a3 0 __crt_stdio_output::output_processor<wchar_t,__crt_stdio_output::string_output_adapter<wchar_t>,__crt_stdio_output::format_validation_base<wchar_t,__crt_stdio_output::string_output_adapter<wchar_t> > >::type_case_integer_parse_into_buffer<unsigned int>(unsigned int, const unsigned int, const bool)
FUNC 21784 a3 0 __crt_stdio_output::output_processor<wchar_t,__crt_stdio_output::string_output_adapter<wchar_t>,__crt_stdio_output::positional_parameter_base<wchar_t,__crt_stdio_output::string_output_adapter<wchar_t> > >::type_case_integer_parse_into_buffer<unsigned int>(unsigned int, const unsigned int, const bool)
FUNC 21850 a3 0 __crt_stdio_output::output_processor<wchar_t,__crt_stdio_output::string_output_adapter<wchar_t>,__crt_stdio_output::standard_base<wchar_t,__crt_stdio_output::string_output_adapter<wchar_t> > >::type_case_integer_parse_into_buffer<unsigned int>(unsigned int, const unsigned int, const bool)
FUNC 2191c 94 0 __crt_stdio_output::output_processor<char,__crt_stdio_output::stream_output_adapter<char>,__crt_stdio_output::format_validation_base<char,__crt_stdio_output::stream_output_adapter<char> > >::type_case_integer_parse_into_buffer<unsigned __int64>(unsigned long long, const unsigned int, const bool)
FUNC 219d8 94 0 __crt_stdio_output::output_processor<char,__crt_stdio_output::stream_output_adapter<char>,__crt_stdio_output::positional_parameter_base<char,__crt_stdio_output::stream_output_adapter<char> > >::type_case_integer_parse_into_buffer<unsigned __int64>(unsigned long long, const unsigned int, const bool)
FUNC 21a94 94 0 __crt_stdio_output::output_processor<char,__crt_stdio_output::stream_output_adapter<char>,__crt_stdio_output::standard_base<char,__crt_stdio_output::stream_output_adapter<char> > >::type_case_integer_parse_into_buffer<unsigned __int64>(unsigned long long, const unsigned int, const bool)
FUNC 21b50 94 0 __crt_stdio_output::output_processor<char,__crt_stdio_output::string_output_adapter<char>,__crt_stdio_output::format_validation_base<char,__crt_stdio_output::string_output_adapter<char> > >::type_case_integer_parse_into_buffer<unsigned __int64>(unsigned long long, const unsigned int, const bool)
FUNC 21c0c 94 0 __crt_stdio_output::output_processor<char,__crt_stdio_output::string_output_adapter<char>,__crt_stdio_output::positional_parameter_base<char,__crt_stdio_output::string_output_adapter<char> > >::type_case_integer_parse_into_buffer<unsigned __int64>(unsigned long long, const unsigned int, const bool)
FUNC 21cc8 94 0 __crt_stdio_output::output_processor<char,__crt_stdio_output::string_output_adapter<char>,__crt_stdio_output::standard_base<char,__crt_stdio_output::string_output_adapter<char> > >::type_case_integer_parse_into_buffer<unsigned __int64>(unsigned long long, const unsigned int, const bool)
FUNC 21d84 a4 0 __crt_stdio_output::output_processor<wchar_t,__crt_stdio_output::stream_output_adapter<wchar_t>,__crt_stdio_output::format_validation_base<wchar_t,__crt_stdio_output::stream_output_adapter<wchar_t> > >::type_case_integer_parse_into_buffer<unsigned __int64>(unsigned long long, const unsigned int, const bool)
FUNC 21e54 a4 0 __crt_stdio_output::output_processor<wchar_t,__crt_stdio_output::stream_output_adapter<wchar_t>,__crt_stdio_output::positional_parameter_base<wchar_t,__crt_stdio_output::stream_output_adapter<wchar_t> > >::type_case_integer_parse_into_buffer<unsigned __int64>(unsigned long long, const unsigned int, const bool)
FUNC 21f24 a4 0 __crt_stdio_output::output_processor<wchar_t,__crt_stdio_output::stream_output_adapter<wchar_t>,__crt_stdio_output::standard_base<wchar_t,__crt_stdio_output::stream_output_adapter<wchar_t> > >::type_case_integer_parse_into_buffer<unsigned __int64>(unsigned long long, const unsigned int, const bool)
FUNC 21ff4 a4 0 __crt_stdio_output::output_processor<wchar_t,__crt_stdio_output::string_output_adapter<wchar_t>,__crt_stdio_output::format_validation_base<wchar_t,__crt_stdio_output::string_output_adapter<wchar_t> > >::type_case_integer_parse_into_buffer<unsigned __int64>(unsigned long long, const unsigned int, const bool)
FUNC 220c4 a4 0 __crt_stdio_output::output_processor<wchar_t,__crt_stdio_output::string_output_adapter<wchar_t>,__crt_stdio_output::positional_parameter_base<wchar_t,__crt_stdio_output::string_output_adapter<wchar_t> > >::type_case_integer_parse_into_buffer<unsigned __int64>(unsigned long long, const unsigned int, const bool)
FUNC 22194 a4 0 __crt_stdio_output::output_processor<wchar_t,__crt_stdio_output::string_output_adapter<wchar_t>,__crt_stdio_output::standard_base<wchar_t,__crt_stdio_output::string_output_adapter<wchar_t> > >::type_case_integer_parse_into_buffer<unsigned __int64>(unsigned long long, const unsigned int, const bool)
FUNC 22264 8b 0 __crt_stdio_output::write_multiple_characters<__crt_stdio_output::stream_output_adapter<char>,char>(__crt_stdio_output::stream_output_adapter<char> const&, const char, const int, int* const)
FUNC 22314 91 0 __crt_stdio_output::write_multiple_characters<__crt_stdio_output::stream_output_adapter<wchar_t>,char>(__crt_stdio_output::stream_output_adapter<wchar_t> const&, const char, const int, int* const)
FUNC 223cc 75 0 __crt_stdio_output::write_multiple_characters<__crt_stdio_output::string_output_adapter<char>,char>(__crt_stdio_output::string_output_adapter<char> const&, const char, const int, int* const)
FUNC 22460 7a 0 __crt_stdio_output::write_multiple_characters<__crt_stdio_output::string_output_adapter<wchar_t>,char>(__crt_stdio_output::string_output_adapter<wchar_t> const&, const char, const int, int* const)
FUNC 224f8 a 0 <lambda_0d412022a4b28cc8a401ea49574e8ae6>::<lambda_0d412022a4b28cc8a401ea49574e8ae6>(_iobuf* const&)
FUNC 22504 21 0 <lambda_32f117a32e8f8eb613cbf2ca819ed45e>::<lambda_32f117a32e8f8eb613cbf2ca819ed45e>(_iobuf* const&, __crt_locale_pointers* const&, unsigned long long const&, char const* const&, char* const&)
FUNC 22530 a 0 <lambda_4f4c57057ae4c2bc431a3fc6ace2791f>::<lambda_4f4c57057ae4c2bc431a3fc6ace2791f>(_iobuf* const&)
FUNC 2253c a 0 <lambda_55577cdf4457e05136e8c1bc6549f697>::<lambda_55577cdf4457e05136e8c1bc6549f697>(_iobuf* const&)
FUNC 22548 a 0 <lambda_56065050dbf3ada7e59a83db45153de3>::<lambda_56065050dbf3ada7e59a83db45153de3>(_iobuf* const&)
FUNC 22554 a 0 <lambda_57931389d27d3dce8b0bd13c3d0d8333>::<lambda_57931389d27d3dce8b0bd13c3d0d8333>(_iobuf* const&)
FUNC 22560 a 0 <lambda_7322894ee7c8a2d41153fedefeab09e3>::<lambda_7322894ee7c8a2d41153fedefeab09e3>(_iobuf* const&)
FUNC 2256c a 0 <lambda_74b93660f2d9eb3fb15c5de9eff9db7b>::<lambda_74b93660f2d9eb3fb15c5de9eff9db7b>(_iobuf* const&)
FUNC 22578 21 0 <lambda_7e489fec146d5348dbc86d3cce37c1b5>::<lambda_7e489fec146d5348dbc86d3cce37c1b5>(_iobuf* const&, __crt_locale_pointers* const&, unsigned long long const&, wchar_t const* const&, char* const&)
FUNC 225a4 a 0 <lambda_975a71a6baa488a08f4e15f6b0339b9e>::<lambda_975a71a6baa488a08f4e15f6b0339b9e>(_iobuf* const&)
FUNC 225b0 21 0 <lambda_a2288fdbbd702c8f223b438290af01a4>::<lambda_a2288fdbbd702c8f223b438290af01a4>(_iobuf* const&, __crt_locale_pointers* const&, unsigned long long const&, char const* const&, char* const&)
FUNC 225dc 21 0 <lambda_a31071773b9a94e445cbd5d04ef99106>::<lambda_a31071773b9a94e445cbd5d04ef99106>(_iobuf* const&, __crt_locale_pointers* const&, unsigned long long const&, char const* const&, char* const&)
FUNC 22608 a 0 <lambda_a62c933ada0517137acf5807a1eeac1f>::<lambda_a62c933ada0517137acf5807a1eeac1f>(_iobuf* const&)
FUNC 22614 21 0 <lambda_a775ed57af18ba8e4d5dc780aa9068fe>::<lambda_a775ed57af18ba8e4d5dc780aa9068fe>(_iobuf* const&, __crt_locale_pointers* const&, unsigned long long const&, wchar_t const* const&, char* const&)
FUNC 22640 a 0 <lambda_cd4250c7ac9eb50c05cf8bb6b444cf42>::<lambda_cd4250c7ac9eb50c05cf8bb6b444cf42>(_iobuf* const&)
FUNC 2264c a 0 <lambda_d1aaa8c864b24422b55e9201296d78b9>::<lambda_d1aaa8c864b24422b55e9201296d78b9>(_iobuf* const&)
FUNC 22658 a 0 <lambda_e823f95267a816de70ce630183b86bc2>::<lambda_e823f95267a816de70ce630183b86bc2>(_iobuf* const&)
FUNC 22664 21 0 <lambda_ee59099aa97e0ff6f003b984c1584058>::<lambda_ee59099aa97e0ff6f003b984c1584058>(_iobuf* const&, __crt_locale_pointers* const&, unsigned long long const&, wchar_t const* const&, char* const&)
FUNC 22690 3c 0 __crt_stdio_output::common_data<char>::common_data<char>()
FUNC 226dc 3f 0 __crt_stdio_output::common_data<wchar_t>::common_data<wchar_t>()
FUNC 2272c 5f 0 __crt_stdio_output::output_adapter_data<char,__crt_stdio_output::stream_output_adapter<char> >::output_adapter_data<char,__crt_stdio_output::stream_output_adapter<char> >(__crt_stdio_output::stream_output_adapter<char> const&, const unsigned long long, char const* const, __crt_locale_pointers* const, char* const)
FUNC 227a4 5f 0 __crt_stdio_output::output_adapter_data<char,__crt_stdio_output::string_output_adapter<char> >::output_adapter_data<char,__crt_stdio_output::string_output_adapter<char> >(__crt_stdio_output::string_output_adapter<char> const&, const unsigned long long, char const* const, __crt_locale_pointers* const, char* const)
FUNC 2281c 62 0 __crt_stdio_output::output_adapter_data<wchar_t,__crt_stdio_output::stream_output_adapter<wchar_t> >::output_adapter_data<wchar_t,__crt_stdio_output::stream_output_adapter<wchar_t> >(__crt_stdio_output::stream_output_adapter<wchar_t> const&, const unsigned long long, wchar_t const* const, __crt_locale_pointers* const, char* const)
FUNC 22898 62 0 __crt_stdio_output::output_adapter_data<wchar_t,__crt_stdio_output::string_output_adapter<wchar_t> >::output_adapter_data<wchar_t,__crt_stdio_output::string_output_adapter<wchar_t> >(__crt_stdio_output::string_output_adapter<wchar_t> const&, const unsigned long long, wchar_t const* const, __crt_locale_pointers* const, char* const)
FUNC 22914 6b 0 __crt_stdio_output::output_processor<char,__crt_stdio_output::stream_output_adapter<char>,__crt_stdio_output::format_validation_base<char,__crt_stdio_output::stream_output_adapter<char> > >::output_processor<char,__crt_stdio_output::stream_output_adapter<char>,__crt_stdio_output::format_validation_base<char,__crt_stdio_output::stream_output_adapter<char> > >(__crt_stdio_output::stream_output_adapter<char> const&, const unsigned long long, char const* const, __crt_locale_pointers* const, char* const)
FUNC 2299c 88 0 __crt_stdio_output::output_processor<char,__crt_stdio_output::stream_output_adapter<char>,__crt_stdio_output::positional_parameter_base<char,__crt_stdio_output::stream_output_adapter<char> > >::output_processor<char,__crt_stdio_output::stream_output_adapter<char>,__crt_stdio_output::positional_parameter_base<char,__crt_stdio_output::stream_output_adapter<char> > >(__crt_stdio_output::stream_output_adapter<char> const&, const unsigned long long, char const* const, __crt_locale_pointers* const, char* const)
FUNC 22a48 6b 0 __crt_stdio_output::output_processor<char,__crt_stdio_output::stream_output_adapter<char>,__crt_stdio_output::standard_base<char,__crt_stdio_output::stream_output_adapter<char> > >::output_processor<char,__crt_stdio_output::stream_output_adapter<char>,__crt_stdio_output::standard_base<char,__crt_stdio_output::stream_output_adapter<char> > >(__crt_stdio_output::stream_output_adapter<char> const&, const unsigned long long, char const* const, __crt_locale_pointers* const, char* const)
FUNC 22ad0 6b 0 __crt_stdio_output::output_processor<char,__crt_stdio_output::string_output_adapter<char>,__crt_stdio_output::format_validation_base<char,__crt_stdio_output::string_output_adapter<char> > >::output_processor<char,__crt_stdio_output::string_output_adapter<char>,__crt_stdio_output::format_validation_base<char,__crt_stdio_output::string_output_adapter<char> > >(__crt_stdio_output::string_output_adapter<char> const&, const unsigned long long, char const* const, __crt_locale_pointers* const, char* const)
FUNC 22b58 88 0 __crt_stdio_output::output_processor<char,__crt_stdio_output::string_output_adapter<char>,__crt_stdio_output::positional_parameter_base<char,__crt_stdio_output::string_output_adapter<char> > >::output_processor<char,__crt_stdio_output::string_output_adapter<char>,__crt_stdio_output::positional_parameter_base<char,__crt_stdio_output::string_output_adapter<char> > >(__crt_stdio_output::string_output_adapter<char> const&, const unsigned long long, char const* const, __crt_locale_pointers* const, char* const)
FUNC 22c04 6b 0 __crt_stdio_output::output_processor<char,__crt_stdio_output::string_output_adapter<char>,__crt_stdio_output::standard_base<char,__crt_stdio_output::string_output_adapter<char> > >::output_processor<char,__crt_stdio_output::string_output_adapter<char>,__crt_stdio_output::standard_base<char,__crt_stdio_output::string_output_adapter<char> > >(__crt_stdio_output::string_output_adapter<char> const&, const unsigned long long, char const* const, __crt_locale_pointers* const, char* const)
FUNC 22c8c 6f 0 __crt_stdio_output::output_processor<wchar_t,__crt_stdio_output::stream_output_adapter<wchar_t>,__crt_stdio_output::format_validation_base<wchar_t,__crt_stdio_output::stream_output_adapter<wchar_t> > >::output_processor<wchar_t,__crt_stdio_output::stream_output_adapter<wchar_t>,__crt_stdio_output::format_validation_base<wchar_t,__crt_stdio_output::stream_output_adapter<wchar_t> > >(__crt_stdio_output::stream_output_adapter<wchar_t> const&, const unsigned long long, wchar_t const* const, __crt_locale_pointers* const, char* const)
FUNC 22d18 8c 0 __crt_stdio_output::output_processor<wchar_t,__crt_stdio_output::stream_output_adapter<wchar_t>,__crt_stdio_output::positional_parameter_base<wchar_t,__crt_stdio_output::stream_output_adapter<wchar_t> > >::output_processor<wchar_t,__crt_stdio_output::stream_output_adapter<wchar_t>,__crt_stdio_output::positional_parameter_base<wchar_t,__crt_stdio_output::stream_output_adapter<wchar_t> > >(__crt_stdio_output::stream_output_adapter<wchar_t> const&, const unsigned long long, wchar_t const* const, __crt_locale_pointers* const, char* const)
FUNC 22dc8 6f 0 __crt_stdio_output::output_processor<wchar_t,__crt_stdio_output::stream_output_adapter<wchar_t>,__crt_stdio_output::standard_base<wchar_t,__crt_stdio_output::stream_output_adapter<wchar_t> > >::output_processor<wchar_t,__crt_stdio_output::stream_output_adapter<wchar_t>,__crt_stdio_output::standard_base<wchar_t,__crt_stdio_output::stream_output_adapter<wchar_t> > >(__crt_stdio_output::stream_output_adapter<wchar_t> const&, const unsigned long long, wchar_t const* const, __crt_locale_pointers* const, char* const)
FUNC 22e54 6f 0 __crt_stdio_output::output_processor<wchar_t,__crt_stdio_output::string_output_adapter<wchar_t>,__crt_stdio_output::format_validation_base<wchar_t,__crt_stdio_output::string_output_adapter<wchar_t> > >::output_processor<wchar_t,__crt_stdio_output::string_output_adapter<wchar_t>,__crt_stdio_output::format_validation_base<wchar_t,__crt_stdio_output::string_output_adapter<wchar_t> > >(__crt_stdio_output::string_output_adapter<wchar_t> const&, const unsigned long long, wchar_t const* const, __crt_locale_pointers* const, char* const)
FUNC 22ee0 8c 0 __crt_stdio_output::output_processor<wchar_t,__crt_stdio_output::string_output_adapter<wchar_t>,__crt_stdio_output::positional_parameter_base<wchar_t,__crt_stdio_output::string_output_adapter<wchar_t> > >::output_processor<wchar_t,__crt_stdio_output::string_output_adapter<wchar_t>,__crt_stdio_output::positional_parameter_base<wchar_t,__crt_stdio_output::string_output_adapter<wchar_t> > >(__crt_stdio_output::string_output_adapter<wchar_t> const&, const unsigned long long, wchar_t const* const, __crt_locale_pointers* const, char* const)
FUNC 22f90 6f 0 __crt_stdio_output::output_processor<wchar_t,__crt_stdio_output::string_output_adapter<wchar_t>,__crt_stdio_output::standard_base<wchar_t,__crt_stdio_output::string_output_adapter<wchar_t> > >::output_processor<wchar_t,__crt_stdio_output::string_output_adapter<wchar_t>,__crt_stdio_output::standard_base<wchar_t,__crt_stdio_output::string_output_adapter<wchar_t> > >(__crt_stdio_output::string_output_adapter<wchar_t> const&, const unsigned long long, wchar_t const* const, __crt_locale_pointers* const, char* const)
FUNC 2301c 7 0 __crt_stdio_output::stream_output_adapter<char>::stream_output_adapter<char>(_iobuf* const)
FUNC 23024 7 0 __crt_stdio_output::stream_output_adapter<wchar_t>::stream_output_adapter<wchar_t>(_iobuf* const)
FUNC 2302c 7 0 __crt_stdio_output::string_output_adapter<char>::string_output_adapter<char>(__crt_stdio_output::string_output_adapter_context<char>* const)
FUNC 23034 7 0 __crt_stdio_output::string_output_adapter<wchar_t>::string_output_adapter<wchar_t>(__crt_stdio_output::string_output_adapter_context<wchar_t>* const)
FUNC 2303c 9b 0 _LocaleUpdate::_LocaleUpdate(__crt_locale_pointers* const)
FUNC 23100 20 0 __acrt_stdio_temporary_buffering_guard::__acrt_stdio_temporary_buffering_guard(_iobuf* const)
FUNC 23128 8 0 __crt_deferred_errno_cache::__crt_deferred_errno_cache()
FUNC 23134 f 0 __crt_errno_guard::__crt_errno_guard(int* const)
FUNC 23148 7 0 __crt_stdio_stream::__crt_stdio_stream(_iobuf* const)
FUNC 23150 14 0 __crt_stdio_output::formatting_buffer::formatting_buffer()
FUNC 2316c 23 0 __crt_stdio_output::common_data<char>::~common_data<char>()
FUNC 23198 23 0 __crt_stdio_output::common_data<wchar_t>::~common_data<wchar_t>()
FUNC 231c4 23 0 __crt_stdio_output::format_validation_base<char,__crt_stdio_output::stream_output_adapter<char> >::~format_validation_base<char,__crt_stdio_output::stream_output_adapter<char> >()
FUNC 231f0 23 0 __crt_stdio_output::format_validation_base<char,__crt_stdio_output::string_output_adapter<char> >::~format_validation_base<char,__crt_stdio_output::string_output_adapter<char> >()
FUNC 2321c 23 0 __crt_stdio_output::format_validation_base<wchar_t,__crt_stdio_output::stream_output_adapter<wchar_t> >::~format_validation_base<wchar_t,__crt_stdio_output::stream_output_adapter<wchar_t> >()
FUNC 23248 23 0 __crt_stdio_output::format_validation_base<wchar_t,__crt_stdio_output::string_output_adapter<wchar_t> >::~format_validation_base<wchar_t,__crt_stdio_output::string_output_adapter<wchar_t> >()
FUNC 23274 23 0 __crt_stdio_output::output_adapter_data<char,__crt_stdio_output::stream_output_adapter<char> >::~output_adapter_data<char,__crt_stdio_output::stream_output_adapter<char> >()
FUNC 232a0 23 0 __crt_stdio_output::output_adapter_data<char,__crt_stdio_output::string_output_adapter<char> >::~output_adapter_data<char,__crt_stdio_output::string_output_adapter<char> >()
FUNC 232cc 23 0 __crt_stdio_output::output_adapter_data<wchar_t,__crt_stdio_output::stream_output_adapter<wchar_t> >::~output_adapter_data<wchar_t,__crt_stdio_output::stream_output_adapter<wchar_t> >()
FUNC 232f8 23 0 __crt_stdio_output::output_adapter_data<wchar_t,__crt_stdio_output::string_output_adapter<wchar_t> >::~output_adapter_data<wchar_t,__crt_stdio_output::string_output_adapter<wchar_t> >()
FUNC 23324 23 0 __crt_stdio_output::output_processor<char,__crt_stdio_output::stream_output_adapter<char>,__crt_stdio_output::format_validation_base<char,__crt_stdio_output::stream_output_adapter<char> > >::~output_processor<char,__crt_stdio_output::stream_output_adapter<char>,__crt_stdio_output::format_validation_base<char,__crt_stdio_output::stream_output_adapter<char> > >()
FUNC 23350 23 0 __crt_stdio_output::output_processor<char,__crt_stdio_output::stream_output_adapter<char>,__crt_stdio_output::positional_parameter_base<char,__crt_stdio_output::stream_output_adapter<char> > >::~output_processor<char,__crt_stdio_output::stream_output_adapter<char>,__crt_stdio_output::positional_parameter_base<char,__crt_stdio_output::stream_output_adapter<char> > >()
FUNC 2337c 23 0 __crt_stdio_output::output_processor<char,__crt_stdio_output::stream_output_adapter<char>,__crt_stdio_output::standard_base<char,__crt_stdio_output::stream_output_adapter<char> > >::~output_processor<char,__crt_stdio_output::stream_output_adapter<char>,__crt_stdio_output::standard_base<char,__crt_stdio_output::stream_output_adapter<char> > >()
FUNC 233a8 23 0 __crt_stdio_output::output_processor<char,__crt_stdio_output::string_output_adapter<char>,__crt_stdio_output::format_validation_base<char,__crt_stdio_output::string_output_adapter<char> > >::~output_processor<char,__crt_stdio_output::string_output_adapter<char>,__crt_stdio_output::format_validation_base<char,__crt_stdio_output::string_output_adapter<char> > >()
FUNC 233d4 23 0 __crt_stdio_output::output_processor<char,__crt_stdio_output::string_output_adapter<char>,__crt_stdio_output::positional_parameter_base<char,__crt_stdio_output::string_output_adapter<char> > >::~output_processor<char,__crt_stdio_output::string_output_adapter<char>,__crt_stdio_output::positional_parameter_base<char,__crt_stdio_output::string_output_adapter<char> > >()
FUNC 23400 23 0 __crt_stdio_output::output_processor<char,__crt_stdio_output::string_output_adapter<char>,__crt_stdio_output::standard_base<char,__crt_stdio_output::string_output_adapter<char> > >::~output_processor<char,__crt_stdio_output::string_output_adapter<char>,__crt_stdio_output::standard_base<char,__crt_stdio_output::string_output_adapter<char> > >()
FUNC 2342c 23 0 __crt_stdio_output::output_processor<wchar_t,__crt_stdio_output::stream_output_adapter<wchar_t>,__crt_stdio_output::format_validation_base<wchar_t,__crt_stdio_output::stream_output_adapter<wchar_t> > >::~output_processor<wchar_t,__crt_stdio_output::stream_output_adapter<wchar_t>,__crt_stdio_output::format_validation_base<wchar_t,__crt_stdio_output::stream_output_adapter<wchar_t> > >()
FUNC 23458 23 0 __crt_stdio_output::output_processor<wchar_t,__crt_stdio_output::stream_output_adapter<wchar_t>,__crt_stdio_output::positional_parameter_base<wchar_t,__crt_stdio_output::stream_output_adapter<wchar_t> > >::~output_processor<wchar_t,__crt_stdio_output::stream_output_adapter<wchar_t>,__crt_stdio_output::positional_parameter_base<wchar_t,__crt_stdio_output::stream_output_adapter<wchar_t> > >()
FUNC 23484 23 0 __crt_stdio_output::output_processor<wchar_t,__crt_stdio_output::stream_output_adapter<wchar_t>,__crt_stdio_output::standard_base<wchar_t,__crt_stdio_output::stream_output_adapter<wchar_t> > >::~output_processor<wchar_t,__crt_stdio_output::stream_output_adapter<wchar_t>,__crt_stdio_output::standard_base<wchar_t,__crt_stdio_output::stream_output_adapter<wchar_t> > >()
FUNC 234b0 23 0 __crt_stdio_output::output_processor<wchar_t,__crt_stdio_output::string_output_adapter<wchar_t>,__crt_stdio_output::format_validation_base<wchar_t,__crt_stdio_output::string_output_adapter<wchar_t> > >::~output_processor<wchar_t,__crt_stdio_output::string_output_adapter<wchar_t>,__crt_stdio_output::format_validation_base<wchar_t,__crt_stdio_output::string_output_adapter<wchar_t> > >()
FUNC 234dc 23 0 __crt_stdio_output::output_processor<wchar_t,__crt_stdio_output::string_output_adapter<wchar_t>,__crt_stdio_output::positional_parameter_base<wchar_t,__crt_stdio_output::string_output_adapter<wchar_t> > >::~output_processor<wchar_t,__crt_stdio_output::string_output_adapter<wchar_t>,__crt_stdio_output::positional_parameter_base<wchar_t,__crt_stdio_output::string_output_adapter<wchar_t> > >()
FUNC 23508 23 0 __crt_stdio_output::output_processor<wchar_t,__crt_stdio_output::string_output_adapter<wchar_t>,__crt_stdio_output::standard_base<wchar_t,__crt_stdio_output::string_output_adapter<wchar_t> > >::~output_processor<wchar_t,__crt_stdio_output::string_output_adapter<wchar_t>,__crt_stdio_output::standard_base<wchar_t,__crt_stdio_output::string_output_adapter<wchar_t> > >()
FUNC 23534 23 0 __crt_stdio_output::positional_parameter_base<char,__crt_stdio_output::stream_output_adapter<char> >::~positional_parameter_base<char,__crt_stdio_output::stream_output_adapter<char> >()
FUNC 23560 23 0 __crt_stdio_output::positional_parameter_base<char,__crt_stdio_output::string_output_adapter<char> >::~positional_parameter_base<char,__crt_stdio_output::string_output_adapter<char> >()
FUNC 2358c 23 0 __crt_stdio_output::positional_parameter_base<wchar_t,__crt_stdio_output::stream_output_adapter<wchar_t> >::~positional_parameter_base<wchar_t,__crt_stdio_output::stream_output_adapter<wchar_t> >()
FUNC 235b8 23 0 __crt_stdio_output::positional_parameter_base<wchar_t,__crt_stdio_output::string_output_adapter<wchar_t> >::~positional_parameter_base<wchar_t,__crt_stdio_output::string_output_adapter<wchar_t> >()
FUNC 235e4 23 0 __crt_stdio_output::standard_base<char,__crt_stdio_output::stream_output_adapter<char> >::~standard_base<char,__crt_stdio_output::stream_output_adapter<char> >()
FUNC 23610 23 0 __crt_stdio_output::standard_base<char,__crt_stdio_output::string_output_adapter<char> >::~standard_base<char,__crt_stdio_output::string_output_adapter<char> >()
FUNC 2363c 23 0 __crt_stdio_output::standard_base<wchar_t,__crt_stdio_output::stream_output_adapter<wchar_t> >::~standard_base<wchar_t,__crt_stdio_output::stream_output_adapter<wchar_t> >()
FUNC 23668 23 0 __crt_stdio_output::standard_base<wchar_t,__crt_stdio_output::string_output_adapter<wchar_t> >::~standard_base<wchar_t,__crt_stdio_output::string_output_adapter<wchar_t> >()
FUNC 23694 11 0 _LocaleUpdate::~_LocaleUpdate()
FUNC 236ac b 0 __acrt_stdio_temporary_buffering_guard::~__acrt_stdio_temporary_buffering_guard()
FUNC 236bc 12 0 __crt_errno_guard::~__crt_errno_guard()
FUNC 236d4 23 0 __crt_stdio_output::formatting_buffer::~formatting_buffer()
FUNC 23700 34 0 __crt_unique_heap_ptr<char,__crt_internal_free_policy>::operator=(__crt_unique_heap_ptr<char,__crt_internal_free_policy>&&)
FUNC 23744 4 0 __crt_stdio_stream::operator->() const
FUNC 23748 8 0 <lambda_0d412022a4b28cc8a401ea49574e8ae6>::operator()() const
FUNC 23754 12d 0 <lambda_32f117a32e8f8eb613cbf2ca819ed45e>::operator()() const
FUNC 238cc 8 0 <lambda_4f4c57057ae4c2bc431a3fc6ace2791f>::operator()() const
FUNC 238d8 8 0 <lambda_55577cdf4457e05136e8c1bc6549f697>::operator()() const
FUNC 238e4 8 0 <lambda_56065050dbf3ada7e59a83db45153de3>::operator()() const
FUNC 238f0 8 0 <lambda_57931389d27d3dce8b0bd13c3d0d8333>::operator()() const
FUNC 238fc 8 0 <lambda_7322894ee7c8a2d41153fedefeab09e3>::operator()() const
FUNC 23908 8 0 <lambda_74b93660f2d9eb3fb15c5de9eff9db7b>::operator()() const
FUNC 23914 131 0 <lambda_7e489fec146d5348dbc86d3cce37c1b5>::operator()() const
FUNC 23a94 8 0 <lambda_975a71a6baa488a08f4e15f6b0339b9e>::operator()() const
FUNC 23aa0 14a 0 <lambda_a2288fdbbd702c8f223b438290af01a4>::operator()() const
FUNC 23c3c 12d 0 <lambda_a31071773b9a94e445cbd5d04ef99106>::operator()() const
FUNC 23db4 8 0 <lambda_a62c933ada0517137acf5807a1eeac1f>::operator()() const
FUNC 23dc0 131 0 <lambda_a775ed57af18ba8e4d5dc780aa9068fe>::operator()() const
FUNC 23f40 8 0 <lambda_cd4250c7ac9eb50c05cf8bb6b444cf42>::operator()() const
FUNC 23f4c 8 0 <lambda_d1aaa8c864b24422b55e9201296d78b9>::operator()() const
FUNC 23f58 8 0 <lambda_e823f95267a816de70ce630183b86bc2>::operator()() const
FUNC 23f64 14e 0 <lambda_ee59099aa97e0ff6f003b984c1584058>::operator()() const
FUNC 24108 5 0 _LocaleUpdate::GetLocaleT()
FUNC 24110 3 0 __crt_interlocked_read_32(int const*)
FUNC 24114 c 0 static __crt_stdio_output::output_processor<char,__crt_stdio_output::stream_output_adapter<char>,__crt_stdio_output::format_validation_base<char,__crt_stdio_output::stream_output_adapter<char> > >::adjust_hexit(const int, const bool)
FUNC 24124 c 0 static __crt_stdio_output::output_processor<char,__crt_stdio_output::stream_output_adapter<char>,__crt_stdio_output::positional_parameter_base<char,__crt_stdio_output::stream_output_adapter<char> > >::adjust_hexit(const int, const bool)
FUNC 24134 c 0 static __crt_stdio_output::output_processor<char,__crt_stdio_output::stream_output_adapter<char>,__crt_stdio_output::standard_base<char,__crt_stdio_output::stream_output_adapter<char> > >::adjust_hexit(const int, const bool)
FUNC 24144 c 0 static __crt_stdio_output::output_processor<char,__crt_stdio_output::string_output_adapter<char>,__crt_stdio_output::format_validation_base<char,__crt_stdio_output::string_output_adapter<char> > >::adjust_hexit(const int, const bool)
FUNC 24154 c 0 static __crt_stdio_output::output_processor<char,__crt_stdio_output::string_output_adapter<char>,__crt_stdio_output::positional_parameter_base<char,__crt_stdio_output::string_output_adapter<char> > >::adjust_hexit(const int, const bool)
FUNC 24164 c 0 static __crt_stdio_output::output_processor<char,__crt_stdio_output::string_output_adapter<char>,__crt_stdio_output::standard_base<char,__crt_stdio_output::string_output_adapter<char> > >::adjust_hexit(const int, const bool)
FUNC 24174 c 0 static __crt_stdio_output::output_processor<wchar_t,__crt_stdio_output::stream_output_adapter<wchar_t>,__crt_stdio_output::format_validation_base<wchar_t,__crt_stdio_output::stream_output_adapter<wchar_t> > >::adjust_hexit(const int, const bool)
FUNC 24184 c 0 static __crt_stdio_output::output_processor<wchar_t,__crt_stdio_output::stream_output_adapter<wchar_t>,__crt_stdio_output::positional_parameter_base<wchar_t,__crt_stdio_output::stream_output_adapter<wchar_t> > >::adjust_hexit(const int, const bool)
FUNC 24194 c 0 static __crt_stdio_output::output_processor<wchar_t,__crt_stdio_output::stream_output_adapter<wchar_t>,__crt_stdio_output::standard_base<wchar_t,__crt_stdio_output::stream_output_adapter<wchar_t> > >::adjust_hexit(const int, const bool)
FUNC 241a4 c 0 static __crt_stdio_output::output_processor<wchar_t,__crt_stdio_output::string_output_adapter<wchar_t>,__crt_stdio_output::format_validation_base<wchar_t,__crt_stdio_output::string_output_adapter<wchar_t> > >::adjust_hexit(const int, const bool)
FUNC 241b4 c 0 static __crt_stdio_output::output_processor<wchar_t,__crt_stdio_output::string_output_adapter<wchar_t>,__crt_stdio_output::positional_parameter_base<wchar_t,__crt_stdio_output::string_output_adapter<wchar_t> > >::adjust_hexit(const int, const bool)
FUNC 241c4 c 0 static __crt_stdio_output::output_processor<wchar_t,__crt_stdio_output::string_output_adapter<wchar_t>,__crt_stdio_output::standard_base<wchar_t,__crt_stdio_output::string_output_adapter<wchar_t> > >::adjust_hexit(const int, const bool)
FUNC 241d4 50 0 __crt_stdio_output::positional_parameter_base<char,__crt_stdio_output::stream_output_adapter<char> >::advance_to_next_pass()
FUNC 24238 50 0 __crt_stdio_output::positional_parameter_base<char,__crt_stdio_output::string_output_adapter<char> >::advance_to_next_pass()
FUNC 2429c 50 0 __crt_stdio_output::positional_parameter_base<wchar_t,__crt_stdio_output::stream_output_adapter<wchar_t> >::advance_to_next_pass()
FUNC 24300 50 0 __crt_stdio_output::positional_parameter_base<wchar_t,__crt_stdio_output::string_output_adapter<wchar_t> >::advance_to_next_pass()
FUNC 24364 11 0 __crt_stdio_output::standard_base<char,__crt_stdio_output::stream_output_adapter<char> >::advance_to_next_pass()
FUNC 2437c 11 0 __crt_stdio_output::standard_base<char,__crt_stdio_output::string_output_adapter<char> >::advance_to_next_pass()
FUNC 24394 11 0 __crt_stdio_output::standard_base<wchar_t,__crt_stdio_output::stream_output_adapter<wchar_t> >::advance_to_next_pass()
FUNC 243ac 11 0 __crt_stdio_output::standard_base<wchar_t,__crt_stdio_output::string_output_adapter<wchar_t> >::advance_to_next_pass()
FUNC 243c4 69 0 __crt_stdio_output::crop_zeroes(char*, __crt_locale_pointers* const)
FUNC 24448 31 0 __crt_stdio_output::output_processor<char,__crt_stdio_output::stream_output_adapter<char>,__crt_stdio_output::format_validation_base<char,__crt_stdio_output::stream_output_adapter<char> > >::find_next_state(const char, const __crt_stdio_output::state) const
FUNC 24488 31 0 __crt_stdio_output::output_processor<char,__crt_stdio_output::stream_output_adapter<char>,__crt_stdio_output::positional_parameter_base<char,__crt_stdio_output::stream_output_adapter<char> > >::find_next_state(const char, const __crt_stdio_output::state) const
FUNC 244c8 2f 0 __crt_stdio_output::output_processor<char,__crt_stdio_output::stream_output_adapter<char>,__crt_stdio_output::standard_base<char,__crt_stdio_output::stream_output_adapter<char> > >::find_next_state(const char, const __crt_stdio_output::state) const
FUNC 24504 31 0 __crt_stdio_output::output_processor<char,__crt_stdio_output::string_output_adapter<char>,__crt_stdio_output::format_validation_base<char,__crt_stdio_output::string_output_adapter<char> > >::find_next_state(const char, const __crt_stdio_output::state) const
FUNC 24544 31 0 __crt_stdio_output::output_processor<char,__crt_stdio_output::string_output_adapter<char>,__crt_stdio_output::positional_parameter_base<char,__crt_stdio_output::string_output_adapter<char> > >::find_next_state(const char, const __crt_stdio_output::state) const
FUNC 24584 2f 0 __crt_stdio_output::output_processor<char,__crt_stdio_output::string_output_adapter<char>,__crt_stdio_output::standard_base<char,__crt_stdio_output::string_output_adapter<char> > >::find_next_state(const char, const __crt_stdio_output::state) const
FUNC 245c0 32 0 __crt_stdio_output::output_processor<wchar_t,__crt_stdio_output::stream_output_adapter<wchar_t>,__crt_stdio_output::format_validation_base<wchar_t,__crt_stdio_output::stream_output_adapter<wchar_t> > >::find_next_state(const wchar_t, const __crt_stdio_output::state) const
FUNC 24600 32 0 __crt_stdio_output::output_processor<wchar_t,__crt_stdio_output::stream_output_adapter<wchar_t>,__crt_stdio_output::positional_parameter_base<wchar_t,__crt_stdio_output::stream_output_adapter<wchar_t> > >::find_next_state(const wchar_t, const __crt_stdio_output::state) const
FUNC 24640 30 0 __crt_stdio_output::output_processor<wchar_t,__crt_stdio_output::stream_output_adapter<wchar_t>,__crt_stdio_output::standard_base<wchar_t,__crt_stdio_output::stream_output_adapter<wchar_t> > >::find_next_state(const wchar_t, const __crt_stdio_output::state) const
FUNC 2467c 32 0 __crt_stdio_output::output_processor<wchar_t,__crt_stdio_output::string_output_adapter<wchar_t>,__crt_stdio_output::format_validation_base<wchar_t,__crt_stdio_output::string_output_adapter<wchar_t> > >::find_next_state(const wchar_t, const __crt_stdio_output::state) const
FUNC 246bc 32 0 __crt_stdio_output::output_processor<wchar_t,__crt_stdio_output::string_output_adapter<wchar_t>,__crt_stdio_output::positional_parameter_base<wchar_t,__crt_stdio_output::string_output_adapter<wchar_t> > >::find_next_state(const wchar_t, const __crt_stdio_output::state) const
FUNC 246fc 30 0 __crt_stdio_output::output_processor<wchar_t,__crt_stdio_output::string_output_adapter<wchar_t>,__crt_stdio_output::standard_base<wchar_t,__crt_stdio_output::string_output_adapter<wchar_t> > >::find_next_state(const wchar_t, const __crt_stdio_output::state) const
FUNC 24738 6d 0 __crt_stdio_output::force_decimal_point(char*, __crt_locale_pointers* const)
FUNC 247c0 1f 0 __crt_deferred_errno_cache::get()
FUNC 247e8 7 0 __crt_stdio_stream::get_flags() const
FUNC 247f0 6 0 static __crt_stdio_output::positional_parameter_base<char,__crt_stdio_output::stream_output_adapter<char> >::get_parameter_type(short)
FUNC 247f8 6 0 static __crt_stdio_output::positional_parameter_base<char,__crt_stdio_output::stream_output_adapter<char> >::get_parameter_type(unsigned short)
FUNC 24800 6 0 static __crt_stdio_output::positional_parameter_base<char,__crt_stdio_output::stream_output_adapter<char> >::get_parameter_type(int)
FUNC 24808 6 0 static __crt_stdio_output::positional_parameter_base<char,__crt_stdio_output::stream_output_adapter<char> >::get_parameter_type(unsigned int)
FUNC 24810 6 0 static __crt_stdio_output::positional_parameter_base<char,__crt_stdio_output::stream_output_adapter<char> >::get_parameter_type(_CRT_DOUBLE)
FUNC 24818 6 0 static __crt_stdio_output::positional_parameter_base<char,__crt_stdio_output::stream_output_adapter<char> >::get_parameter_type(long long)
FUNC 24820 6 0 static __crt_stdio_output::positional_parameter_base<char,__crt_stdio_output::stream_output_adapter<char> >::get_parameter_type(unsigned long long)
FUNC 24828 6 0 static __crt_stdio_output::positional_parameter_base<char,__crt_stdio_output::stream_output_adapter<char> >::get_parameter_type(wchar_t)
FUNC 24830 6 0 static __crt_stdio_output::positional_parameter_base<char,__crt_stdio_output::string_output_adapter<char> >::get_parameter_type(short)
FUNC 24838 6 0 static __crt_stdio_output::positional_parameter_base<char,__crt_stdio_output::string_output_adapter<char> >::get_parameter_type(unsigned short)
FUNC 24840 6 0 static __crt_stdio_output::positional_parameter_base<char,__crt_stdio_output::string_output_adapter<char> >::get_parameter_type(int)
FUNC 24848 6 0 static __crt_stdio_output::positional_parameter_base<char,__crt_stdio_output::string_output_adapter<char> >::get_parameter_type(unsigned int)
FUNC 24850 6 0 static __crt_stdio_output::positional_parameter_base<char,__crt_stdio_output::string_output_adapter<char> >::get_parameter_type(_CRT_DOUBLE)
FUNC 24858 6 0 static __crt_stdio_output::positional_parameter_base<char,__crt_stdio_output::string_output_adapter<char> >::get_parameter_type(long long)
FUNC 24860 6 0 static __crt_stdio_output::positional_parameter_base<char,__crt_stdio_output::string_output_adapter<char> >::get_parameter_type(unsigned long long)
FUNC 24868 6 0 static __crt_stdio_output::positional_parameter_base<char,__crt_stdio_output::string_output_adapter<char> >::get_parameter_type(wchar_t)
FUNC 24870 6 0 static __crt_stdio_output::positional_parameter_base<wchar_t,__crt_stdio_output::stream_output_adapter<wchar_t> >::get_parameter_type(short)
FUNC 24878 6 0 static __crt_stdio_output::positional_parameter_base<wchar_t,__crt_stdio_output::stream_output_adapter<wchar_t> >::get_parameter_type(unsigned short)
FUNC 24880 6 0 static __crt_stdio_output::positional_parameter_base<wchar_t,__crt_stdio_output::stream_output_adapter<wchar_t> >::get_parameter_type(int)
FUNC 24888 6 0 static __crt_stdio_output::positional_parameter_base<wchar_t,__crt_stdio_output::stream_output_adapter<wchar_t> >::get_parameter_type(unsigned int)
FUNC 24890 6 0 static __crt_stdio_output::positional_parameter_base<wchar_t,__crt_stdio_output::stream_output_adapter<wchar_t> >::get_parameter_type(_CRT_DOUBLE)
FUNC 24898 6 0 static __crt_stdio_output::positional_parameter_base<wchar_t,__crt_stdio_output::stream_output_adapter<wchar_t> >::get_parameter_type(long long)
FUNC 248a0 6 0 static __crt_stdio_output::positional_parameter_base<wchar_t,__crt_stdio_output::stream_output_adapter<wchar_t> >::get_parameter_type(unsigned long long)
FUNC 248a8 6 0 static __crt_stdio_output::positional_parameter_base<wchar_t,__crt_stdio_output::stream_output_adapter<wchar_t> >::get_parameter_type(wchar_t)
FUNC 248b0 6 0 static __crt_stdio_output::positional_parameter_base<wchar_t,__crt_stdio_output::string_output_adapter<wchar_t> >::get_parameter_type(short)
FUNC 248b8 6 0 static __crt_stdio_output::positional_parameter_base<wchar_t,__crt_stdio_output::string_output_adapter<wchar_t> >::get_parameter_type(unsigned short)
FUNC 248c0 6 0 static __crt_stdio_output::positional_parameter_base<wchar_t,__crt_stdio_output::string_output_adapter<wchar_t> >::get_parameter_type(int)
FUNC 248c8 6 0 static __crt_stdio_output::positional_parameter_base<wchar_t,__crt_stdio_output::string_output_adapter<wchar_t> >::get_parameter_type(unsigned int)
FUNC 248d0 6 0 static __crt_stdio_output::positional_parameter_base<wchar_t,__crt_stdio_output::string_output_adapter<wchar_t> >::get_parameter_type(_CRT_DOUBLE)
FUNC 248d8 6 0 static __crt_stdio_output::positional_parameter_base<wchar_t,__crt_stdio_output::string_output_adapter<wchar_t> >::get_parameter_type(long long)
FUNC 248e0 6 0 static __crt_stdio_output::positional_parameter_base<wchar_t,__crt_stdio_output::string_output_adapter<wchar_t> >::get_parameter_type(unsigned long long)
FUNC 248e8 6 0 static __crt_stdio_output::positional_parameter_base<wchar_t,__crt_stdio_output::string_output_adapter<wchar_t> >::get_parameter_type(wchar_t)
FUNC 248f0 7 0 __crt_stdio_output::output_processor<char,__crt_stdio_output::stream_output_adapter<char>,__crt_stdio_output::format_validation_base<char,__crt_stdio_output::stream_output_adapter<char> > >::has_flag(const unsigned int) const
FUNC 248f8 7 0 __crt_stdio_output::output_processor<char,__crt_stdio_output::stream_output_adapter<char>,__crt_stdio_output::positional_parameter_base<char,__crt_stdio_output::stream_output_adapter<char> > >::has_flag(const unsigned int) const
FUNC 24900 7 0 __crt_stdio_output::output_processor<char,__crt_stdio_output::stream_output_adapter<char>,__crt_stdio_output::standard_base<char,__crt_stdio_output::stream_output_adapter<char> > >::has_flag(const unsigned int) const
FUNC 24908 7 0 __crt_stdio_output::output_processor<char,__crt_stdio_output::string_output_adapter<char>,__crt_stdio_output::format_validation_base<char,__crt_stdio_output::string_output_adapter<char> > >::has_flag(const unsigned int) const
FUNC 24910 7 0 __crt_stdio_output::output_processor<char,__crt_stdio_output::string_output_adapter<char>,__crt_stdio_output::positional_parameter_base<char,__crt_stdio_output::string_output_adapter<char> > >::has_flag(const unsigned int) const
FUNC 24918 7 0 __crt_stdio_output::output_processor<char,__crt_stdio_output::string_output_adapter<char>,__crt_stdio_output::standard_base<char,__crt_stdio_output::string_output_adapter<char> > >::has_flag(const unsigned int) const
FUNC 24920 7 0 __crt_stdio_output::output_processor<wchar_t,__crt_stdio_output::stream_output_adapter<wchar_t>,__crt_stdio_output::format_validation_base<wchar_t,__crt_stdio_output::stream_output_adapter<wchar_t> > >::has_flag(const unsigned int) const
FUNC 24928 7 0 __crt_stdio_output::output_processor<wchar_t,__crt_stdio_output::stream_output_adapter<wchar_t>,__crt_stdio_output::positional_parameter_base<wchar_t,__crt_stdio_output::stream_output_adapter<wchar_t> > >::has_flag(const unsigned int) const
FUNC 24930 7 0 __crt_stdio_output::output_processor<wchar_t,__crt_stdio_output::stream_output_adapter<wchar_t>,__crt_stdio_output::standard_base<wchar_t,__crt_stdio_output::stream_output_adapter<wchar_t> > >::has_flag(const unsigned int) const
FUNC 24938 7 0 __crt_stdio_output::output_processor<wchar_t,__crt_stdio_output::string_output_adapter<wchar_t>,__crt_stdio_output::format_validation_base<wchar_t,__crt_stdio_output::string_output_adapter<wchar_t> > >::has_flag(const unsigned int) const
FUNC 24940 7 0 __crt_stdio_output::output_processor<wchar_t,__crt_stdio_output::string_output_adapter<wchar_t>,__crt_stdio_output::positional_parameter_base<wchar_t,__crt_stdio_output::string_output_adapter<wchar_t> > >::has_flag(const unsigned int) const
FUNC 24948 7 0 __crt_stdio_output::output_processor<wchar_t,__crt_stdio_output::string_output_adapter<wchar_t>,__crt_stdio_output::standard_base<wchar_t,__crt_stdio_output::string_output_adapter<wchar_t> > >::has_flag(const unsigned int) const
FUNC 24950 230 0 __crt_stdio_output::positional_parameter_base<char,__crt_stdio_output::stream_output_adapter<char> >::is_positional_parameter_reappearance_consistent(__crt_stdio_output::positional_parameter_base<char,__crt_stdio_output::stream_output_adapter<char> >::parameter_data const&, const __crt_stdio_output::positional_parameter_base<char,__crt_stdio_output::stream_output_adapter<char> >::parameter_type, const char, const __crt_stdio_output::length_modifier)
FUNC 24c0c 230 0 __crt_stdio_output::positional_parameter_base<char,__crt_stdio_output::string_output_adapter<char> >::is_positional_parameter_reappearance_consistent(__crt_stdio_output::positional_parameter_base<char,__crt_stdio_output::string_output_adapter<char> >::parameter_data const&, const __crt_stdio_output::positional_parameter_base<char,__crt_stdio_output::string_output_adapter<char> >::parameter_type, const char, const __crt_stdio_output::length_modifier)
FUNC 24ec8 200 0 __crt_stdio_output::positional_parameter_base<wchar_t,__crt_stdio_output::stream_output_adapter<wchar_t> >::is_positional_parameter_reappearance_consistent(__crt_stdio_output::positional_parameter_base<wchar_t,__crt_stdio_output::stream_output_adapter<wchar_t> >::parameter_data const&, const __crt_stdio_output::positional_parameter_base<wchar_t,__crt_stdio_output::stream_output_adapter<wchar_t> >::parameter_type, const wchar_t, const __crt_stdio_output::length_modifier)
FUNC 25148 200 0 __crt_stdio_output::positional_parameter_base<wchar_t,__crt_stdio_output::string_output_adapter<wchar_t> >::is_positional_parameter_reappearance_consistent(__crt_stdio_output::positional_parameter_base<wchar_t,__crt_stdio_output::string_output_adapter<wchar_t> >::parameter_data const&, const __crt_stdio_output::positional_parameter_base<wchar_t,__crt_stdio_output::string_output_adapter<wchar_t> >::parameter_type, const wchar_t, const __crt_stdio_output::length_modifier)
FUNC 253c8 c 0 __crt_stdio_stream::is_string_backed() const
FUNC 253d8 8 0 static __crt_stdio_output::output_processor<char,__crt_stdio_output::stream_output_adapter<char>,__crt_stdio_output::format_validation_base<char,__crt_stdio_output::stream_output_adapter<char> > >::narrow_null_string()
FUNC 253e4 8 0 static __crt_stdio_output::output_processor<char,__crt_stdio_output::stream_output_adapter<char>,__crt_stdio_output::positional_parameter_base<char,__crt_stdio_output::stream_output_adapter<char> > >::narrow_null_string()
FUNC 253f0 8 0 static __crt_stdio_output::output_processor<char,__crt_stdio_output::stream_output_adapter<char>,__crt_stdio_output::standard_base<char,__crt_stdio_output::stream_output_adapter<char> > >::narrow_null_string()
FUNC 253fc 8 0 static __crt_stdio_output::output_processor<char,__crt_stdio_output::string_output_adapter<char>,__crt_stdio_output::format_validation_base<char,__crt_stdio_output::string_output_adapter<char> > >::narrow_null_string()
FUNC 25408 8 0 static __crt_stdio_output::output_processor<char,__crt_stdio_output::string_output_adapter<char>,__crt_stdio_output::positional_parameter_base<char,__crt_stdio_output::string_output_adapter<char> > >::narrow_null_string()
FUNC 25414 8 0 static __crt_stdio_output::output_processor<char,__crt_stdio_output::string_output_adapter<char>,__crt_stdio_output::standard_base<char,__crt_stdio_output::string_output_adapter<char> > >::narrow_null_string()
FUNC 25420 8 0 static __crt_stdio_output::output_processor<wchar_t,__crt_stdio_output::stream_output_adapter<wchar_t>,__crt_stdio_output::format_validation_base<wchar_t,__crt_stdio_output::stream_output_adapter<wchar_t> > >::narrow_null_string()
FUNC 2542c 8 0 static __crt_stdio_output::output_processor<wchar_t,__crt_stdio_output::stream_output_adapter<wchar_t>,__crt_stdio_output::positional_parameter_base<wchar_t,__crt_stdio_output::stream_output_adapter<wchar_t> > >::narrow_null_string()
FUNC 25438 8 0 static __crt_stdio_output::output_processor<wchar_t,__crt_stdio_output::stream_output_adapter<wchar_t>,__crt_stdio_output::standard_base<wchar_t,__crt_stdio_output::stream_output_adapter<wchar_t> > >::narrow_null_string()
FUNC 25444 8 0 static __crt_stdio_output::output_processor<wchar_t,__crt_stdio_output::string_output_adapter<wchar_t>,__crt_stdio_output::format_validation_base<wchar_t,__crt_stdio_output::string_output_adapter<wchar_t> > >::narrow_null_string()
FUNC 25450 8 0 static __crt_stdio_output::output_processor<wchar_t,__crt_stdio_output::string_output_adapter<wchar_t>,__crt_stdio_output::positional_parameter_base<wchar_t,__crt_stdio_output::string_output_adapter<wchar_t> > >::narrow_null_string()
FUNC 2545c 8 0 static __crt_stdio_output::output_processor<wchar_t,__crt_stdio_output::string_output_adapter<wchar_t>,__crt_stdio_output::standard_base<wchar_t,__crt_stdio_output::string_output_adapter<wchar_t> > >::narrow_null_string()
FUNC 25468 a1 0 __crt_stdio_output::output_processor<char,__crt_stdio_output::stream_output_adapter<char>,__crt_stdio_output::format_validation_base<char,__crt_stdio_output::stream_output_adapter<char> > >::parse_int_from_format_string(int* const)
FUNC 25534 a1 0 __crt_stdio_output::output_processor<char,__crt_stdio_output::stream_output_adapter<char>,__crt_stdio_output::positional_parameter_base<char,__crt_stdio_output::stream_output_adapter<char> > >::parse_int_from_format_string(int* const)
FUNC 25600 a1 0 __crt_stdio_output::output_processor<char,__crt_stdio_output::stream_output_adapter<char>,__crt_stdio_output::standard_base<char,__crt_stdio_output::stream_output_adapter<char> > >::parse_int_from_format_string(int* const)
FUNC 256cc a1 0 __crt_stdio_output::output_processor<char,__crt_stdio_output::string_output_adapter<char>,__crt_stdio_output::format_validation_base<char,__crt_stdio_output::string_output_adapter<char> > >::parse_int_from_format_string(int* const)
FUNC 25798 a1 0 __crt_stdio_output::output_processor<char,__crt_stdio_output::string_output_adapter<char>,__crt_stdio_output::positional_parameter_base<char,__crt_stdio_output::string_output_adapter<char> > >::parse_int_from_format_string(int* const)
FUNC 25864 a1 0 __crt_stdio_output::output_processor<char,__crt_stdio_output::string_output_adapter<char>,__crt_stdio_output::standard_base<char,__crt_stdio_output::string_output_adapter<char> > >::parse_int_from_format_string(int* const)
FUNC 25930 a3 0 __crt_stdio_output::output_processor<wchar_t,__crt_stdio_output::stream_output_adapter<wchar_t>,__crt_stdio_output::format_validation_base<wchar_t,__crt_stdio_output::stream_output_adapter<wchar_t> > >::parse_int_from_format_string(int* const)
FUNC 259fc a3 0 __crt_stdio_output::output_processor<wchar_t,__crt_stdio_output::stream_output_adapter<wchar_t>,__crt_stdio_output::positional_parameter_base<wchar_t,__crt_stdio_output::stream_output_adapter<wchar_t> > >::parse_int_from_format_string(int* const)
FUNC 25ac8 a3 0 __crt_stdio_output::output_processor<wchar_t,__crt_stdio_output::stream_output_adapter<wchar_t>,__crt_stdio_output::standard_base<wchar_t,__crt_stdio_output::stream_output_adapter<wchar_t> > >::parse_int_from_format_string(int* const)
FUNC 25b94 a3 0 __crt_stdio_output::output_processor<wchar_t,__crt_stdio_output::string_output_adapter<wchar_t>,__crt_stdio_output::format_validation_base<wchar_t,__crt_stdio_output::string_output_adapter<wchar_t> > >::parse_int_from_format_string(int* const)
FUNC 25c60 a3 0 __crt_stdio_output::output_processor<wchar_t,__crt_stdio_output::string_output_adapter<wchar_t>,__crt_stdio_output::positional_parameter_base<wchar_t,__crt_stdio_output::string_output_adapter<wchar_t> > >::parse_int_from_format_string(int* const)
FUNC 25d2c a3 0 __crt_stdio_output::output_processor<wchar_t,__crt_stdio_output::string_output_adapter<wchar_t>,__crt_stdio_output::standard_base<wchar_t,__crt_stdio_output::string_output_adapter<wchar_t> > >::parse_int_from_format_string(int* const)
FUNC 25df8 227 0 __crt_stdio_output::output_processor<char,__crt_stdio_output::stream_output_adapter<char>,__crt_stdio_output::format_validation_base<char,__crt_stdio_output::stream_output_adapter<char> > >::process()
FUNC 260a8 2a6 0 __crt_stdio_output::output_processor<char,__crt_stdio_output::stream_output_adapter<char>,__crt_stdio_output::positional_parameter_base<char,__crt_stdio_output::stream_output_adapter<char> > >::process()
FUNC 263f8 216 0 __crt_stdio_output::output_processor<char,__crt_stdio_output::stream_output_adapter<char>,__crt_stdio_output::standard_base<char,__crt_stdio_output::stream_output_adapter<char> > >::process()
FUNC 26694 218 0 __crt_stdio_output::output_processor<char,__crt_stdio_output::string_output_adapter<char>,__crt_stdio_output::format_validation_base<char,__crt_stdio_output::string_output_adapter<char> > >::process()
FUNC 26934 295 0 __crt_stdio_output::output_processor<char,__crt_stdio_output::string_output_adapter<char>,__crt_stdio_output::positional_parameter_base<char,__crt_stdio_output::string_output_adapter<char> > >::process()
FUNC 26c70 20a 0 __crt_stdio_output::output_processor<char,__crt_stdio_output::string_output_adapter<char>,__crt_stdio_output::standard_base<char,__crt_stdio_output::string_output_adapter<char> > >::process()
FUNC 26efc 277 0 __crt_stdio_output::output_processor<wchar_t,__crt_stdio_output::stream_output_adapter<wchar_t>,__crt_stdio_output::format_validation_base<wchar_t,__crt_stdio_output::stream_output_adapter<wchar_t> > >::process()
FUNC 27210 2b2 0 __crt_stdio_output::output_processor<wchar_t,__crt_stdio_output::stream_output_adapter<wchar_t>,__crt_stdio_output::positional_parameter_base<wchar_t,__crt_stdio_output::stream_output_adapter<wchar_t> > >::process()
FUNC 27570 26a 0 __crt_stdio_output::output_processor<wchar_t,__crt_stdio_output::stream_output_adapter<wchar_t>,__crt_stdio_output::standard_base<wchar_t,__crt_stdio_output::stream_output_adapter<wchar_t> > >::process()
FUNC 27874 288 0 __crt_stdio_output::output_processor<wchar_t,__crt_stdio_output::string_output_adapter<wchar_t>,__crt_stdio_output::format_validation_base<wchar_t,__crt_stdio_output::string_output_adapter<wchar_t> > >::process()
FUNC 27ba0 2b2 0 __crt_stdio_output::output_processor<wchar_t,__crt_stdio_output::string_output_adapter<wchar_t>,__crt_stdio_output::positional_parameter_base<wchar_t,__crt_stdio_output::string_output_adapter<wchar_t> > >::process()
FUNC 27f00 27b 0 __crt_stdio_output::output_processor<wchar_t,__crt_stdio_output::string_output_adapter<wchar_t>,__crt_stdio_output::standard_base<wchar_t,__crt_stdio_output::string_output_adapter<wchar_t> > >::process()
FUNC 2821c 4 0 __crt_stdio_stream::public_stream() const
FUNC 28220 4 0 __crt_stdio_output::output_processor<char,__crt_stdio_output::stream_output_adapter<char>,__crt_stdio_output::format_validation_base<char,__crt_stdio_output::stream_output_adapter<char> > >::set_flag(const unsigned int)
FUNC 28224 4 0 __crt_stdio_output::output_processor<char,__crt_stdio_output::stream_output_adapter<char>,__crt_stdio_output::positional_parameter_base<char,__crt_stdio_output::stream_output_adapter<char> > >::set_flag(const unsigned int)
FUNC 28228 4 0 __crt_stdio_output::output_processor<char,__crt_stdio_output::stream_output_adapter<char>,__crt_stdio_output::standard_base<char,__crt_stdio_output::stream_output_adapter<char> > >::set_flag(const unsigned int)
FUNC 2822c 4 0 __crt_stdio_output::output_processor<char,__crt_stdio_output::string_output_adapter<char>,__crt_stdio_output::format_validation_base<char,__crt_stdio_output::string_output_adapter<char> > >::set_flag(const unsigned int)
FUNC 28230 4 0 __crt_stdio_output::output_processor<char,__crt_stdio_output::string_output_adapter<char>,__crt_stdio_output::positional_parameter_base<char,__crt_stdio_output::string_output_adapter<char> > >::set_flag(const unsigned int)
FUNC 28234 4 0 __crt_stdio_output::output_processor<char,__crt_stdio_output::string_output_adapter<char>,__crt_stdio_output::standard_base<char,__crt_stdio_output::string_output_adapter<char> > >::set_flag(const unsigned int)
FUNC 28238 4 0 __crt_stdio_output::output_processor<wchar_t,__crt_stdio_output::stream_output_adapter<wchar_t>,__crt_stdio_output::format_validation_base<wchar_t,__crt_stdio_output::stream_output_adapter<wchar_t> > >::set_flag(const unsigned int)
FUNC 2823c 4 0 __crt_stdio_output::output_processor<wchar_t,__crt_stdio_output::stream_output_adapter<wchar_t>,__crt_stdio_output::positional_parameter_base<wchar_t,__crt_stdio_output::stream_output_adapter<wchar_t> > >::set_flag(const unsigned int)
FUNC 28240 4 0 __crt_stdio_output::output_processor<wchar_t,__crt_stdio_output::stream_output_adapter<wchar_t>,__crt_stdio_output::standard_base<wchar_t,__crt_stdio_output::stream_output_adapter<wchar_t> > >::set_flag(const unsigned int)
FUNC 28244 4 0 __crt_stdio_output::output_processor<wchar_t,__crt_stdio_output::string_output_adapter<wchar_t>,__crt_stdio_output::format_validation_base<wchar_t,__crt_stdio_output::string_output_adapter<wchar_t> > >::set_flag(const unsigned int)
FUNC 28248 4 0 __crt_stdio_output::output_processor<wchar_t,__crt_stdio_output::string_output_adapter<wchar_t>,__crt_stdio_output::positional_parameter_base<wchar_t,__crt_stdio_output::string_output_adapter<wchar_t> > >::set_flag(const unsigned int)
FUNC 2824c 4 0 __crt_stdio_output::output_processor<wchar_t,__crt_stdio_output::string_output_adapter<wchar_t>,__crt_stdio_output::standard_base<wchar_t,__crt_stdio_output::string_output_adapter<wchar_t> > >::set_flag(const unsigned int)
FUNC 28250 18 0 __crt_stdio_output::positional_parameter_base<char,__crt_stdio_output::stream_output_adapter<char> >::should_format()
FUNC 28270 18 0 __crt_stdio_output::positional_parameter_base<char,__crt_stdio_output::string_output_adapter<char> >::should_format()
FUNC 28290 18 0 __crt_stdio_output::positional_parameter_base<wchar_t,__crt_stdio_output::stream_output_adapter<wchar_t> >::should_format()
FUNC 282b0 18 0 __crt_stdio_output::positional_parameter_base<wchar_t,__crt_stdio_output::string_output_adapter<wchar_t> >::should_format()
FUNC 282d0 3 0 __crt_stdio_output::standard_base<char,__crt_stdio_output::stream_output_adapter<char> >::should_format()
FUNC 282d4 3 0 __crt_stdio_output::standard_base<char,__crt_stdio_output::string_output_adapter<char> >::should_format()
FUNC 282d8 3 0 __crt_stdio_output::standard_base<wchar_t,__crt_stdio_output::stream_output_adapter<wchar_t> >::should_format()
FUNC 282dc 3 0 __crt_stdio_output::standard_base<wchar_t,__crt_stdio_output::string_output_adapter<wchar_t> >::should_format()
FUNC 282e0 28 0 __crt_stdio_output::positional_parameter_base<char,__crt_stdio_output::stream_output_adapter<char> >::should_skip_normal_state_processing()
FUNC 28314 28 0 __crt_stdio_output::positional_parameter_base<char,__crt_stdio_output::string_output_adapter<char> >::should_skip_normal_state_processing()
FUNC 28348 28 0 __crt_stdio_output::positional_parameter_base<wchar_t,__crt_stdio_output::stream_output_adapter<wchar_t> >::should_skip_normal_state_processing()
FUNC 2837c 28 0 __crt_stdio_output::positional_parameter_base<wchar_t,__crt_stdio_output::string_output_adapter<wchar_t> >::should_skip_normal_state_processing()
FUNC 283b0 3 0 __crt_stdio_output::standard_base<char,__crt_stdio_output::stream_output_adapter<char> >::should_skip_normal_state_processing()
FUNC 283b4 3 0 __crt_stdio_output::standard_base<char,__crt_stdio_output::string_output_adapter<char> >::should_skip_normal_state_processing()
FUNC 283b8 3 0 __crt_stdio_output::standard_base<wchar_t,__crt_stdio_output::stream_output_adapter<wchar_t> >::should_skip_normal_state_processing()
FUNC 283bc 3 0 __crt_stdio_output::standard_base<wchar_t,__crt_stdio_output::string_output_adapter<wchar_t> >::should_skip_normal_state_processing()
FUNC 283c0 19 0 __crt_stdio_output::positional_parameter_base<char,__crt_stdio_output::stream_output_adapter<char> >::should_skip_type_state_output() const
FUNC 283e0 19 0 __crt_stdio_output::positional_parameter_base<char,__crt_stdio_output::string_output_adapter<char> >::should_skip_type_state_output() const
FUNC 28400 19 0 __crt_stdio_output::positional_parameter_base<wchar_t,__crt_stdio_output::stream_output_adapter<wchar_t> >::should_skip_type_state_output() const
FUNC 28420 19 0 __crt_stdio_output::positional_parameter_base<wchar_t,__crt_stdio_output::string_output_adapter<wchar_t> >::should_skip_type_state_output() const
FUNC 28440 3 0 __crt_stdio_output::standard_base<char,__crt_stdio_output::stream_output_adapter<char> >::should_skip_type_state_output() const
FUNC 28444 3 0 __crt_stdio_output::standard_base<char,__crt_stdio_output::string_output_adapter<char> >::should_skip_type_state_output() const
FUNC 28448 3 0 __crt_stdio_output::standard_base<wchar_t,__crt_stdio_output::stream_output_adapter<wchar_t> >::should_skip_type_state_output() const
FUNC 2844c 3 0 __crt_stdio_output::standard_base<wchar_t,__crt_stdio_output::string_output_adapter<wchar_t> >::should_skip_type_state_output() const
FUNC 28450 7 0 __crt_stdio_output::output_processor<char,__crt_stdio_output::stream_output_adapter<char>,__crt_stdio_output::format_validation_base<char,__crt_stdio_output::stream_output_adapter<char> > >::state_case_dot()
FUNC 28458 7 0 __crt_stdio_output::output_processor<char,__crt_stdio_output::stream_output_adapter<char>,__crt_stdio_output::positional_parameter_base<char,__crt_stdio_output::stream_output_adapter<char> > >::state_case_dot()
FUNC 28460 7 0 __crt_stdio_output::output_processor<char,__crt_stdio_output::stream_output_adapter<char>,__crt_stdio_output::standard_base<char,__crt_stdio_output::stream_output_adapter<char> > >::state_case_dot()
FUNC 28468 7 0 __crt_stdio_output::output_processor<char,__crt_stdio_output::string_output_adapter<char>,__crt_stdio_output::format_validation_base<char,__crt_stdio_output::string_output_adapter<char> > >::state_case_dot()
FUNC 28470 7 0 __crt_stdio_output::output_processor<char,__crt_stdio_output::string_output_adapter<char>,__crt_stdio_output::positional_parameter_base<char,__crt_stdio_output::string_output_adapter<char> > >::state_case_dot()
FUNC 28478 7 0 __crt_stdio_output::output_processor<char,__crt_stdio_output::string_output_adapter<char>,__crt_stdio_output::standard_base<char,__crt_stdio_output::string_output_adapter<char> > >::state_case_dot()
FUNC 28480 7 0 __crt_stdio_output::output_processor<wchar_t,__crt_stdio_output::stream_output_adapter<wchar_t>,__crt_stdio_output::format_validation_base<wchar_t,__crt_stdio_output::stream_output_adapter<wchar_t> > >::state_case_dot()
FUNC 28488 7 0 __crt_stdio_output::output_processor<wchar_t,__crt_stdio_output::stream_output_adapter<wchar_t>,__crt_stdio_output::positional_parameter_base<wchar_t,__crt_stdio_output::stream_output_adapter<wchar_t> > >::state_case_dot()
FUNC 28490 7 0 __crt_stdio_output::output_processor<wchar_t,__crt_stdio_output::stream_output_adapter<wchar_t>,__crt_stdio_output::standard_base<wchar_t,__crt_stdio_output::stream_output_adapter<wchar_t> > >::state_case_dot()
FUNC 28498 7 0 __crt_stdio_output::output_processor<wchar_t,__crt_stdio_output::string_output_adapter<wchar_t>,__crt_stdio_output::format_validation_base<wchar_t,__crt_stdio_output::string_output_adapter<wchar_t> > >::state_case_dot()
FUNC 284a0 7 0 __crt_stdio_output::output_processor<wchar_t,__crt_stdio_output::string_output_adapter<wchar_t>,__crt_stdio_output::positional_parameter_base<wchar_t,__crt_stdio_output::string_output_adapter<wchar_t> > >::state_case_dot()
FUNC 284a8 7 0 __crt_stdio_output::output_processor<wchar_t,__crt_stdio_output::string_output_adapter<wchar_t>,__crt_stdio_output::standard_base<wchar_t,__crt_stdio_output::string_output_adapter<wchar_t> > >::state_case_dot()
FUNC 284b0 36 0 __crt_stdio_output::output_processor<char,__crt_stdio_output::stream_output_adapter<char>,__crt_stdio_output::format_validation_base<char,__crt_stdio_output::stream_output_adapter<char> > >::state_case_flag()
FUNC 284f4 36 0 __crt_stdio_output::output_processor<char,__crt_stdio_output::stream_output_adapter<char>,__crt_stdio_output::positional_parameter_base<char,__crt_stdio_output::stream_output_adapter<char> > >::state_case_flag()
FUNC 28538 36 0 __crt_stdio_output::output_processor<char,__crt_stdio_output::stream_output_adapter<char>,__crt_stdio_output::standard_base<char,__crt_stdio_output::stream_output_adapter<char> > >::state_case_flag()
FUNC 2857c 36 0 __crt_stdio_output::output_processor<char,__crt_stdio_output::string_output_adapter<char>,__crt_stdio_output::format_validation_base<char,__crt_stdio_output::string_output_adapter<char> > >::state_case_flag()
FUNC 285c0 36 0 __crt_stdio_output::output_processor<char,__crt_stdio_output::string_output_adapter<char>,__crt_stdio_output::positional_parameter_base<char,__crt_stdio_output::string_output_adapter<char> > >::state_case_flag()
FUNC 28604 36 0 __crt_stdio_output::output_processor<char,__crt_stdio_output::string_output_adapter<char>,__crt_stdio_output::standard_base<char,__crt_stdio_output::string_output_adapter<char> > >::state_case_flag()
FUNC 28648 44 0 __crt_stdio_output::output_processor<wchar_t,__crt_stdio_output::stream_output_adapter<wchar_t>,__crt_stdio_output::format_validation_base<wchar_t,__crt_stdio_output::stream_output_adapter<wchar_t> > >::state_case_flag()
FUNC 286a0 44 0 __crt_stdio_output::output_processor<wchar_t,__crt_stdio_output::stream_output_adapter<wchar_t>,__crt_stdio_output::positional_parameter_base<wchar_t,__crt_stdio_output::stream_output_adapter<wchar_t> > >::state_case_flag()
FUNC 286f8 44 0 __crt_stdio_output::output_processor<wchar_t,__crt_stdio_output::stream_output_adapter<wchar_t>,__crt_stdio_output::standard_base<wchar_t,__crt_stdio_output::stream_output_adapter<wchar_t> > >::state_case_flag()
FUNC 28750 44 0 __crt_stdio_output::output_processor<wchar_t,__crt_stdio_output::string_output_adapter<wchar_t>,__crt_stdio_output::format_validation_base<wchar_t,__crt_stdio_output::string_output_adapter<wchar_t> > >::state_case_flag()
FUNC 287a8 44 0 __crt_stdio_output::output_processor<wchar_t,__crt_stdio_output::string_output_adapter<wchar_t>,__crt_stdio_output::positional_parameter_base<wchar_t,__crt_stdio_output::string_output_adapter<wchar_t> > >::state_case_flag()
FUNC 28800 44 0 __crt_stdio_output::output_processor<wchar_t,__crt_stdio_output::string_output_adapter<wchar_t>,__crt_stdio_output::standard_base<wchar_t,__crt_stdio_output::string_output_adapter<wchar_t> > >::state_case_flag()
FUNC 28858 70 0 __crt_stdio_output::output_processor<char,__crt_stdio_output::stream_output_adapter<char>,__crt_stdio_output::format_validation_base<char,__crt_stdio_output::stream_output_adapter<char> > >::state_case_normal()
FUNC 288e4 94 0 __crt_stdio_output::output_processor<char,__crt_stdio_output::stream_output_adapter<char>,__crt_stdio_output::positional_parameter_base<char,__crt_stdio_output::stream_output_adapter<char> > >::state_case_normal()
FUNC 289a0 70 0 __crt_stdio_output::output_processor<char,__crt_stdio_output::stream_output_adapter<char>,__crt_stdio_output::standard_base<char,__crt_stdio_output::stream_output_adapter<char> > >::state_case_normal()
FUNC 28a2c 74 0 __crt_stdio_output::output_processor<char,__crt_stdio_output::string_output_adapter<char>,__crt_stdio_output::format_validation_base<char,__crt_stdio_output::string_output_adapter<char> > >::state_case_normal()
FUNC 28ac0 98 0 __crt_stdio_output::output_processor<char,__crt_stdio_output::string_output_adapter<char>,__crt_stdio_output::positional_parameter_base<char,__crt_stdio_output::string_output_adapter<char> > >::state_case_normal()
FUNC 28b80 74 0 __crt_stdio_output::output_processor<char,__crt_stdio_output::string_output_adapter<char>,__crt_stdio_output::standard_base<char,__crt_stdio_output::string_output_adapter<char> > >::state_case_normal()
FUNC 28c14 58 0 __crt_stdio_output::output_processor<wchar_t,__crt_stdio_output::stream_output_adapter<wchar_t>,__crt_stdio_output::format_validation_base<wchar_t,__crt_stdio_output::stream_output_adapter<wchar_t> > >::state_case_normal()
FUNC 28c84 7c 0 __crt_stdio_output::output_processor<wchar_t,__crt_stdio_output::stream_output_adapter<wchar_t>,__crt_stdio_output::positional_parameter_base<wchar_t,__crt_stdio_output::stream_output_adapter<wchar_t> > >::state_case_normal()
FUNC 28d20 58 0 __crt_stdio_output::output_processor<wchar_t,__crt_stdio_output::stream_output_adapter<wchar_t>,__crt_stdio_output::standard_base<wchar_t,__crt_stdio_output::stream_output_adapter<wchar_t> > >::state_case_normal()
FUNC 28d90 54 0 __crt_stdio_output::output_processor<wchar_t,__crt_stdio_output::string_output_adapter<wchar_t>,__crt_stdio_output::format_validation_base<wchar_t,__crt_stdio_output::string_output_adapter<wchar_t> > >::state_case_normal()
FUNC 28dfc 78 0 __crt_stdio_output::output_processor<wchar_t,__crt_stdio_output::string_output_adapter<wchar_t>,__crt_stdio_output::positional_parameter_base<wchar_t,__crt_stdio_output::string_output_adapter<wchar_t> > >::state_case_normal()
FUNC 28e94 54 0 __crt_stdio_output::output_processor<wchar_t,__crt_stdio_output::string_output_adapter<wchar_t>,__crt_stdio_output::standard_base<wchar_t,__crt_stdio_output::string_output_adapter<wchar_t> > >::state_case_normal()
FUNC 28f00 5c 0 __crt_stdio_output::output_processor<char,__crt_stdio_output::stream_output_adapter<char>,__crt_stdio_output::format_validation_base<char,__crt_stdio_output::stream_output_adapter<char> > >::state_case_normal_common()
FUNC 28f74 5c 0 __crt_stdio_output::output_processor<char,__crt_stdio_output::stream_output_adapter<char>,__crt_stdio_output::positional_parameter_base<char,__crt_stdio_output::stream_output_adapter<char> > >::state_case_normal_common()
FUNC 28fe8 5c 0 __crt_stdio_output::output_processor<char,__crt_stdio_output::stream_output_adapter<char>,__crt_stdio_output::standard_base<char,__crt_stdio_output::stream_output_adapter<char> > >::state_case_normal_common()
FUNC 2905c 60 0 __crt_stdio_output::output_processor<char,__crt_stdio_output::string_output_adapter<char>,__crt_stdio_output::format_validation_base<char,__crt_stdio_output::string_output_adapter<char> > >::state_case_normal_common()
FUNC 290d4 60 0 __crt_stdio_output::output_processor<char,__crt_stdio_output::string_output_adapter<char>,__crt_stdio_output::positional_parameter_base<char,__crt_stdio_output::string_output_adapter<char> > >::state_case_normal_common()
FUNC 2914c 60 0 __crt_stdio_output::output_processor<char,__crt_stdio_output::string_output_adapter<char>,__crt_stdio_output::standard_base<char,__crt_stdio_output::string_output_adapter<char> > >::state_case_normal_common()
FUNC 291c4 58 0 __crt_stdio_output::output_processor<wchar_t,__crt_stdio_output::stream_output_adapter<wchar_t>,__crt_stdio_output::format_validation_base<wchar_t,__crt_stdio_output::stream_output_adapter<wchar_t> > >::state_case_normal_common()
FUNC 29234 58 0 __crt_stdio_output::output_processor<wchar_t,__crt_stdio_output::stream_output_adapter<wchar_t>,__crt_stdio_output::positional_parameter_base<wchar_t,__crt_stdio_output::stream_output_adapter<wchar_t> > >::state_case_normal_common()
FUNC 292a4 58 0 __crt_stdio_output::output_processor<wchar_t,__crt_stdio_output::stream_output_adapter<wchar_t>,__crt_stdio_output::standard_base<wchar_t,__crt_stdio_output::stream_output_adapter<wchar_t> > >::state_case_normal_common()
FUNC 29314 54 0 __crt_stdio_output::output_processor<wchar_t,__crt_stdio_output::string_output_adapter<wchar_t>,__crt_stdio_output::format_validation_base<wchar_t,__crt_stdio_output::string_output_adapter<wchar_t> > >::state_case_normal_common()
FUNC 29380 54 0 __crt_stdio_output::output_processor<wchar_t,__crt_stdio_output::string_output_adapter<wchar_t>,__crt_stdio_output::positional_parameter_base<wchar_t,__crt_stdio_output::string_output_adapter<wchar_t> > >::state_case_normal_common()
FUNC 293ec 54 0 __crt_stdio_output::output_processor<wchar_t,__crt_stdio_output::string_output_adapter<wchar_t>,__crt_stdio_output::standard_base<wchar_t,__crt_stdio_output::string_output_adapter<wchar_t> > >::state_case_normal_common()
FUNC 29458 a2 0 __crt_stdio_output::output_processor<char,__crt_stdio_output::stream_output_adapter<char>,__crt_stdio_output::format_validation_base<char,__crt_stdio_output::stream_output_adapter<char> > >::state_case_normal_tchar(char)
FUNC 29524 a2 0 __crt_stdio_output::output_processor<char,__crt_stdio_output::stream_output_adapter<char>,__crt_stdio_output::positional_parameter_base<char,__crt_stdio_output::stream_output_adapter<char> > >::state_case_normal_tchar(char)
FUNC 295f0 a2 0 __crt_stdio_output::output_processor<char,__crt_stdio_output::stream_output_adapter<char>,__crt_stdio_output::standard_base<char,__crt_stdio_output::stream_output_adapter<char> > >::state_case_normal_tchar(char)
FUNC 296bc a8 0 __crt_stdio_output::output_processor<char,__crt_stdio_output::string_output_adapter<char>,__crt_stdio_output::format_validation_base<char,__crt_stdio_output::string_output_adapter<char> > >::state_case_normal_tchar(char)
FUNC 29790 a8 0 __crt_stdio_output::output_processor<char,__crt_stdio_output::string_output_adapter<char>,__crt_stdio_output::positional_parameter_base<char,__crt_stdio_output::string_output_adapter<char> > >::state_case_normal_tchar(char)
FUNC 29864 a8 0 __crt_stdio_output::output_processor<char,__crt_stdio_output::string_output_adapter<char>,__crt_stdio_output::standard_base<char,__crt_stdio_output::string_output_adapter<char> > >::state_case_normal_tchar(char)
FUNC 29938 7 0 __crt_stdio_output::output_processor<wchar_t,__crt_stdio_output::stream_output_adapter<wchar_t>,__crt_stdio_output::format_validation_base<wchar_t,__crt_stdio_output::stream_output_adapter<wchar_t> > >::state_case_normal_tchar(wchar_t)
FUNC 29940 7 0 __crt_stdio_output::output_processor<wchar_t,__crt_stdio_output::stream_output_adapter<wchar_t>,__crt_stdio_output::positional_parameter_base<wchar_t,__crt_stdio_output::stream_output_adapter<wchar_t> > >::state_case_normal_tchar(wchar_t)
FUNC 29948 7 0 __crt_stdio_output::output_processor<wchar_t,__crt_stdio_output::stream_output_adapter<wchar_t>,__crt_stdio_output::standard_base<wchar_t,__crt_stdio_output::stream_output_adapter<wchar_t> > >::state_case_normal_tchar(wchar_t)
FUNC 29950 7 0 __crt_stdio_output::output_processor<wchar_t,__crt_stdio_output::string_output_adapter<wchar_t>,__crt_stdio_output::format_validation_base<wchar_t,__crt_stdio_output::string_output_adapter<wchar_t> > >::state_case_normal_tchar(wchar_t)
FUNC 29958 7 0 __crt_stdio_output::output_processor<wchar_t,__crt_stdio_output::string_output_adapter<wchar_t>,__crt_stdio_output::positional_parameter_base<wchar_t,__crt_stdio_output::string_output_adapter<wchar_t> > >::state_case_normal_tchar(wchar_t)
FUNC 29960 7 0 __crt_stdio_output::output_processor<wchar_t,__crt_stdio_output::string_output_adapter<wchar_t>,__crt_stdio_output::standard_base<wchar_t,__crt_stdio_output::string_output_adapter<wchar_t> > >::state_case_normal_tchar(wchar_t)
FUNC 29968 16 0 __crt_stdio_output::output_processor<char,__crt_stdio_output::stream_output_adapter<char>,__crt_stdio_output::format_validation_base<char,__crt_stdio_output::stream_output_adapter<char> > >::state_case_percent()
FUNC 29984 16 0 __crt_stdio_output::output_processor<char,__crt_stdio_output::stream_output_adapter<char>,__crt_stdio_output::positional_parameter_base<char,__crt_stdio_output::stream_output_adapter<char> > >::state_case_percent()
FUNC 299a0 16 0 __crt_stdio_output::output_processor<char,__crt_stdio_output::stream_output_adapter<char>,__crt_stdio_output::standard_base<char,__crt_stdio_output::stream_output_adapter<char> > >::state_case_percent()
FUNC 299bc 16 0 __crt_stdio_output::output_processor<char,__crt_stdio_output::string_output_adapter<char>,__crt_stdio_output::format_validation_base<char,__crt_stdio_output::string_output_adapter<char> > >::state_case_percent()
FUNC 299d8 16 0 __crt_stdio_output::output_processor<char,__crt_stdio_output::string_output_adapter<char>,__crt_stdio_output::positional_parameter_base<char,__crt_stdio_output::string_output_adapter<char> > >::state_case_percent()
FUNC 299f4 16 0 __crt_stdio_output::output_processor<char,__crt_stdio_output::string_output_adapter<char>,__crt_stdio_output::standard_base<char,__crt_stdio_output::string_output_adapter<char> > >::state_case_percent()
FUNC 29a10 16 0 __crt_stdio_output::output_processor<wchar_t,__crt_stdio_output::stream_output_adapter<wchar_t>,__crt_stdio_output::format_validation_base<wchar_t,__crt_stdio_output::stream_output_adapter<wchar_t> > >::state_case_percent()
FUNC 29a2c 16 0 __crt_stdio_output::output_processor<wchar_t,__crt_stdio_output::stream_output_adapter<wchar_t>,__crt_stdio_output::positional_parameter_base<wchar_t,__crt_stdio_output::stream_output_adapter<wchar_t> > >::state_case_percent()
FUNC 29a48 16 0 __crt_stdio_output::output_processor<wchar_t,__crt_stdio_output::stream_output_adapter<wchar_t>,__crt_stdio_output::standard_base<wchar_t,__crt_stdio_output::stream_output_adapter<wchar_t> > >::state_case_percent()
FUNC 29a64 16 0 __crt_stdio_output::output_processor<wchar_t,__crt_stdio_output::string_output_adapter<wchar_t>,__crt_stdio_output::format_validation_base<wchar_t,__crt_stdio_output::string_output_adapter<wchar_t> > >::state_case_percent()
FUNC 29a80 16 0 __crt_stdio_output::output_processor<wchar_t,__crt_stdio_output::string_output_adapter<wchar_t>,__crt_stdio_output::positional_parameter_base<wchar_t,__crt_stdio_output::string_output_adapter<wchar_t> > >::state_case_percent()
FUNC 29a9c 16 0 __crt_stdio_output::output_processor<wchar_t,__crt_stdio_output::string_output_adapter<wchar_t>,__crt_stdio_output::standard_base<wchar_t,__crt_stdio_output::string_output_adapter<wchar_t> > >::state_case_percent()
FUNC 29ab8 27 0 __crt_stdio_output::output_processor<char,__crt_stdio_output::stream_output_adapter<char>,__crt_stdio_output::format_validation_base<char,__crt_stdio_output::stream_output_adapter<char> > >::state_case_precision()
FUNC 29ae8 4a 0 __crt_stdio_output::output_processor<char,__crt_stdio_output::stream_output_adapter<char>,__crt_stdio_output::positional_parameter_base<char,__crt_stdio_output::stream_output_adapter<char> > >::state_case_precision()
FUNC 29b44 27 0 __crt_stdio_output::output_processor<char,__crt_stdio_output::stream_output_adapter<char>,__crt_stdio_output::standard_base<char,__crt_stdio_output::stream_output_adapter<char> > >::state_case_precision()
FUNC 29b74 27 0 __crt_stdio_output::output_processor<char,__crt_stdio_output::string_output_adapter<char>,__crt_stdio_output::format_validation_base<char,__crt_stdio_output::string_output_adapter<char> > >::state_case_precision()
FUNC 29ba4 4a 0 __crt_stdio_output::output_processor<char,__crt_stdio_output::string_output_adapter<char>,__crt_stdio_output::positional_parameter_base<char,__crt_stdio_output::string_output_adapter<char> > >::state_case_precision()
FUNC 29c00 27 0 __crt_stdio_output::output_processor<char,__crt_stdio_output::string_output_adapter<char>,__crt_stdio_output::standard_base<char,__crt_stdio_output::string_output_adapter<char> > >::state_case_precision()
FUNC 29c30 28 0 __crt_stdio_output::output_processor<wchar_t,__crt_stdio_output::stream_output_adapter<wchar_t>,__crt_stdio_output::format_validation_base<wchar_t,__crt_stdio_output::stream_output_adapter<wchar_t> > >::state_case_precision()
FUNC 29c64 4b 0 __crt_stdio_output::output_processor<wchar_t,__crt_stdio_output::stream_output_adapter<wchar_t>,__crt_stdio_output::positional_parameter_base<wchar_t,__crt_stdio_output::stream_output_adapter<wchar_t> > >::state_case_precision()
FUNC 29cc4 28 0 __crt_stdio_output::output_processor<wchar_t,__crt_stdio_output::stream_output_adapter<wchar_t>,__crt_stdio_output::standard_base<wchar_t,__crt_stdio_output::stream_output_adapter<wchar_t> > >::state_case_precision()
FUNC 29cf8 28 0 __crt_stdio_output::output_processor<wchar_t,__crt_stdio_output::string_output_adapter<wchar_t>,__crt_stdio_output::format_validation_base<wchar_t,__crt_stdio_output::string_output_adapter<wchar_t> > >::state_case_precision()
FUNC 29d2c 4b 0 __crt_stdio_output::output_processor<wchar_t,__crt_stdio_output::string_output_adapter<wchar_t>,__crt_stdio_output::positional_parameter_base<wchar_t,__crt_stdio_output::string_output_adapter<wchar_t> > >::state_case_precision()
FUNC 29d8c 28 0 __crt_stdio_output::output_processor<wchar_t,__crt_stdio_output::string_output_adapter<wchar_t>,__crt_stdio_output::standard_base<wchar_t,__crt_stdio_output::string_output_adapter<wchar_t> > >::state_case_precision()
FUNC 29dc0 171 0 __crt_stdio_output::output_processor<char,__crt_stdio_output::stream_output_adapter<char>,__crt_stdio_output::format_validation_base<char,__crt_stdio_output::stream_output_adapter<char> > >::state_case_size()
FUNC 29f90 171 0 __crt_stdio_output::output_processor<char,__crt_stdio_output::stream_output_adapter<char>,__crt_stdio_output::positional_parameter_base<char,__crt_stdio_output::stream_output_adapter<char> > >::state_case_size()
FUNC 2a160 171 0 __crt_stdio_output::output_processor<char,__crt_stdio_output::stream_output_adapter<char>,__crt_stdio_output::standard_base<char,__crt_stdio_output::stream_output_adapter<char> > >::state_case_size()
FUNC 2a330 171 0 __crt_stdio_output::output_processor<char,__crt_stdio_output::string_output_adapter<char>,__crt_stdio_output::format_validation_base<char,__crt_stdio_output::string_output_adapter<char> > >::state_case_size()
FUNC 2a500 171 0 __crt_stdio_output::output_processor<char,__crt_stdio_output::string_output_adapter<char>,__crt_stdio_output::positional_parameter_base<char,__crt_stdio_output::string_output_adapter<char> > >::state_case_size()
FUNC 2a6d0 171 0 __crt_stdio_output::output_processor<char,__crt_stdio_output::string_output_adapter<char>,__crt_stdio_output::standard_base<char,__crt_stdio_output::string_output_adapter<char> > >::state_case_size()
FUNC 2a8a0 196 0 __crt_stdio_output::output_processor<wchar_t,__crt_stdio_output::stream_output_adapter<wchar_t>,__crt_stdio_output::format_validation_base<wchar_t,__crt_stdio_output::stream_output_adapter<wchar_t> > >::state_case_size()
FUNC 2aa9c 196 0 __crt_stdio_output::output_processor<wchar_t,__crt_stdio_output::stream_output_adapter<wchar_t>,__crt_stdio_output::positional_parameter_base<wchar_t,__crt_stdio_output::stream_output_adapter<wchar_t> > >::state_case_size()
FUNC 2ac98 196 0 __crt_stdio_output::output_processor<wchar_t,__crt_stdio_output::stream_output_adapter<wchar_t>,__crt_stdio_output::standard_base<wchar_t,__crt_stdio_output::stream_output_adapter<wchar_t> > >::state_case_size()
FUNC 2ae94 196 0 __crt_stdio_output::output_processor<wchar_t,__crt_stdio_output::string_output_adapter<wchar_t>,__crt_stdio_output::format_validation_base<wchar_t,__crt_stdio_output::string_output_adapter<wchar_t> > >::state_case_size()
FUNC 2b090 196 0 __crt_stdio_output::output_processor<wchar_t,__crt_stdio_output::string_output_adapter<wchar_t>,__crt_stdio_output::positional_parameter_base<wchar_t,__crt_stdio_output::string_output_adapter<wchar_t> > >::state_case_size()
FUNC 2b28c 196 0 __crt_stdio_output::output_processor<wchar_t,__crt_stdio_output::string_output_adapter<wchar_t>,__crt_stdio_output::standard_base<wchar_t,__crt_stdio_output::string_output_adapter<wchar_t> > >::state_case_size()
FUNC 2b488 284 0 __crt_stdio_output::output_processor<char,__crt_stdio_output::stream_output_adapter<char>,__crt_stdio_output::format_validation_base<char,__crt_stdio_output::stream_output_adapter<char> > >::state_case_type()
FUNC 2b7b0 29a 0 __crt_stdio_output::output_processor<char,__crt_stdio_output::stream_output_adapter<char>,__crt_stdio_output::positional_parameter_base<char,__crt_stdio_output::stream_output_adapter<char> > >::state_case_type()
FUNC 2baf0 284 0 __crt_stdio_output::output_processor<char,__crt_stdio_output::stream_output_adapter<char>,__crt_stdio_output::standard_base<char,__crt_stdio_output::stream_output_adapter<char> > >::state_case_type()
FUNC 2be18 266 0 __crt_stdio_output::output_processor<char,__crt_stdio_output::string_output_adapter<char>,__crt_stdio_output::format_validation_base<char,__crt_stdio_output::string_output_adapter<char> > >::state_case_type()
FUNC 2c118 27c 0 __crt_stdio_output::output_processor<char,__crt_stdio_output::string_output_adapter<char>,__crt_stdio_output::positional_parameter_base<char,__crt_stdio_output::string_output_adapter<char> > >::state_case_type()
FUNC 2c434 266 0 __crt_stdio_output::output_processor<char,__crt_stdio_output::string_output_adapter<char>,__crt_stdio_output::standard_base<char,__crt_stdio_output::string_output_adapter<char> > >::state_case_type()
FUNC 2c734 2dd 0 __crt_stdio_output::output_processor<wchar_t,__crt_stdio_output::stream_output_adapter<wchar_t>,__crt_stdio_output::format_validation_base<wchar_t,__crt_stdio_output::stream_output_adapter<wchar_t> > >::state_case_type()
FUNC 2cac8 2f3 0 __crt_stdio_output::output_processor<wchar_t,__crt_stdio_output::stream_output_adapter<wchar_t>,__crt_stdio_output::positional_parameter_base<wchar_t,__crt_stdio_output::stream_output_adapter<wchar_t> > >::state_case_type()
FUNC 2ce78 2dd 0 __crt_stdio_output::output_processor<wchar_t,__crt_stdio_output::stream_output_adapter<wchar_t>,__crt_stdio_output::standard_base<wchar_t,__crt_stdio_output::stream_output_adapter<wchar_t> > >::state_case_type()
FUNC 2d20c 2ca 0 __crt_stdio_output::output_processor<wchar_t,__crt_stdio_output::string_output_adapter<wchar_t>,__crt_stdio_output::format_validation_base<wchar_t,__crt_stdio_output::string_output_adapter<wchar_t> > >::state_case_type()
FUNC 2d588 2e0 0 __crt_stdio_output::output_processor<wchar_t,__crt_stdio_output::string_output_adapter<wchar_t>,__crt_stdio_output::positional_parameter_base<wchar_t,__crt_stdio_output::string_output_adapter<wchar_t> > >::state_case_type()
FUNC 2d920 2ca 0 __crt_stdio_output::output_processor<wchar_t,__crt_stdio_output::string_output_adapter<wchar_t>,__crt_stdio_output::standard_base<wchar_t,__crt_stdio_output::string_output_adapter<wchar_t> > >::state_case_type()
FUNC 2dc9c 31 0 __crt_stdio_output::output_processor<char,__crt_stdio_output::stream_output_adapter<char>,__crt_stdio_output::format_validation_base<char,__crt_stdio_output::stream_output_adapter<char> > >::state_case_width()
FUNC 2dcdc 50 0 __crt_stdio_output::output_processor<char,__crt_stdio_output::stream_output_adapter<char>,__crt_stdio_output::positional_parameter_base<char,__crt_stdio_output::stream_output_adapter<char> > >::state_case_width()
FUNC 2dd40 31 0 __crt_stdio_output::output_processor<char,__crt_stdio_output::stream_output_adapter<char>,__crt_stdio_output::standard_base<char,__crt_stdio_output::stream_output_adapter<char> > >::state_case_width()
FUNC 2dd80 31 0 __crt_stdio_output::output_processor<char,__crt_stdio_output::string_output_adapter<char>,__crt_stdio_output::format_validation_base<char,__crt_stdio_output::string_output_adapter<char> > >::state_case_width()
FUNC 2ddc0 50 0 __crt_stdio_output::output_processor<char,__crt_stdio_output::string_output_adapter<char>,__crt_stdio_output::positional_parameter_base<char,__crt_stdio_output::string_output_adapter<char> > >::state_case_width()
FUNC 2de24 31 0 __crt_stdio_output::output_processor<char,__crt_stdio_output::string_output_adapter<char>,__crt_stdio_output::standard_base<char,__crt_stdio_output::string_output_adapter<char> > >::state_case_width()
FUNC 2de64 32 0 __crt_stdio_output::output_processor<wchar_t,__crt_stdio_output::stream_output_adapter<wchar_t>,__crt_stdio_output::format_validation_base<wchar_t,__crt_stdio_output::stream_output_adapter<wchar_t> > >::state_case_width()
FUNC 2dea4 51 0 __crt_stdio_output::output_processor<wchar_t,__crt_stdio_output::stream_output_adapter<wchar_t>,__crt_stdio_output::positional_parameter_base<wchar_t,__crt_stdio_output::stream_output_adapter<wchar_t> > >::state_case_width()
FUNC 2df0c 32 0 __crt_stdio_output::output_processor<wchar_t,__crt_stdio_output::stream_output_adapter<wchar_t>,__crt_stdio_output::standard_base<wchar_t,__crt_stdio_output::stream_output_adapter<wchar_t> > >::state_case_width()
FUNC 2df4c 32 0 __crt_stdio_output::output_processor<wchar_t,__crt_stdio_output::string_output_adapter<wchar_t>,__crt_stdio_output::format_validation_base<wchar_t,__crt_stdio_output::string_output_adapter<wchar_t> > >::state_case_width()
FUNC 2df8c 51 0 __crt_stdio_output::output_processor<wchar_t,__crt_stdio_output::string_output_adapter<wchar_t>,__crt_stdio_output::positional_parameter_base<wchar_t,__crt_stdio_output::string_output_adapter<wchar_t> > >::state_case_width()
FUNC 2dff4 32 0 __crt_stdio_output::output_processor<wchar_t,__crt_stdio_output::string_output_adapter<wchar_t>,__crt_stdio_output::standard_base<wchar_t,__crt_stdio_output::string_output_adapter<wchar_t> > >::state_case_width()
FUNC 2e034 6 0 static __crt_stdio_output::format_validation_base<char,__crt_stdio_output::stream_output_adapter<char> >::state_count()
FUNC 2e03c 6 0 static __crt_stdio_output::format_validation_base<char,__crt_stdio_output::string_output_adapter<char> >::state_count()
FUNC 2e044 6 0 static __crt_stdio_output::format_validation_base<wchar_t,__crt_stdio_output::stream_output_adapter<wchar_t> >::state_count()
FUNC 2e04c 6 0 static __crt_stdio_output::format_validation_base<wchar_t,__crt_stdio_output::string_output_adapter<wchar_t> >::state_count()
FUNC 2e054 6 0 static __crt_stdio_output::standard_base<char,__crt_stdio_output::stream_output_adapter<char> >::state_count()
FUNC 2e05c 6 0 static __crt_stdio_output::standard_base<char,__crt_stdio_output::string_output_adapter<char> >::state_count()
FUNC 2e064 6 0 static __crt_stdio_output::standard_base<wchar_t,__crt_stdio_output::stream_output_adapter<wchar_t> >::state_count()
FUNC 2e06c 6 0 static __crt_stdio_output::standard_base<wchar_t,__crt_stdio_output::string_output_adapter<wchar_t> >::state_count()
FUNC 2e074 8 0 static __crt_stdio_output::format_validation_base<char,__crt_stdio_output::stream_output_adapter<char> >::state_transition_table()
FUNC 2e080 8 0 static __crt_stdio_output::format_validation_base<char,__crt_stdio_output::string_output_adapter<char> >::state_transition_table()
FUNC 2e08c 8 0 static __crt_stdio_output::format_validation_base<wchar_t,__crt_stdio_output::stream_output_adapter<wchar_t> >::state_transition_table()
FUNC 2e098 8 0 static __crt_stdio_output::format_validation_base<wchar_t,__crt_stdio_output::string_output_adapter<wchar_t> >::state_transition_table()
FUNC 2e0a4 8 0 static __crt_stdio_output::standard_base<char,__crt_stdio_output::stream_output_adapter<char> >::state_transition_table()
FUNC 2e0b0 8 0 static __crt_stdio_output::standard_base<char,__crt_stdio_output::string_output_adapter<char> >::state_transition_table()
FUNC 2e0bc 8 0 static __crt_stdio_output::standard_base<wchar_t,__crt_stdio_output::stream_output_adapter<wchar_t> >::state_transition_table()
FUNC 2e0c8 8 0 static __crt_stdio_output::standard_base<wchar_t,__crt_stdio_output::string_output_adapter<wchar_t> >::state_transition_table()
FUNC 2e0d4 5 0 __crt_stdio_output::common_data<char>::tchar_string(char)
FUNC 2e0dc 5 0 __crt_stdio_output::common_data<char>::tchar_string()
FUNC 2e0e4 5 0 __crt_stdio_output::common_data<wchar_t>::tchar_string()
FUNC 2e0ec 5 0 __crt_stdio_output::common_data<wchar_t>::tchar_string(wchar_t)
FUNC 2e0f4 47 0 __crt_stdio_output::to_integer_size(const __crt_stdio_output::length_modifier)
FUNC 2e14c d 0 __crt_stdio_output::output_processor<char,__crt_stdio_output::stream_output_adapter<char>,__crt_stdio_output::format_validation_base<char,__crt_stdio_output::stream_output_adapter<char> > >::type_case_X()
FUNC 2e15c d 0 __crt_stdio_output::output_processor<char,__crt_stdio_output::stream_output_adapter<char>,__crt_stdio_output::positional_parameter_base<char,__crt_stdio_output::stream_output_adapter<char> > >::type_case_X()
FUNC 2e16c d 0 __crt_stdio_output::output_processor<char,__crt_stdio_output::stream_output_adapter<char>,__crt_stdio_output::standard_base<char,__crt_stdio_output::stream_output_adapter<char> > >::type_case_X()
FUNC 2e17c d 0 __crt_stdio_output::output_processor<char,__crt_stdio_output::string_output_adapter<char>,__crt_stdio_output::format_validation_base<char,__crt_stdio_output::string_output_adapter<char> > >::type_case_X()
FUNC 2e18c d 0 __crt_stdio_output::output_processor<char,__crt_stdio_output::string_output_adapter<char>,__crt_stdio_output::positional_parameter_base<char,__crt_stdio_output::string_output_adapter<char> > >::type_case_X()
FUNC 2e19c d 0 __crt_stdio_output::output_processor<char,__crt_stdio_output::string_output_adapter<char>,__crt_stdio_output::standard_base<char,__crt_stdio_output::string_output_adapter<char> > >::type_case_X()
FUNC 2e1ac d 0 __crt_stdio_output::output_processor<wchar_t,__crt_stdio_output::stream_output_adapter<wchar_t>,__crt_stdio_output::format_validation_base<wchar_t,__crt_stdio_output::stream_output_adapter<wchar_t> > >::type_case_X()
FUNC 2e1bc d 0 __crt_stdio_output::output_processor<wchar_t,__crt_stdio_output::stream_output_adapter<wchar_t>,__crt_stdio_output::positional_parameter_base<wchar_t,__crt_stdio_output::stream_output_adapter<wchar_t> > >::type_case_X()
FUNC 2e1cc d 0 __crt_stdio_output::output_processor<wchar_t,__crt_stdio_output::stream_output_adapter<wchar_t>,__crt_stdio_output::standard_base<wchar_t,__crt_stdio_output::stream_output_adapter<wchar_t> > >::type_case_X()
FUNC 2e1dc d 0 __crt_stdio_output::output_processor<wchar_t,__crt_stdio_output::string_output_adapter<wchar_t>,__crt_stdio_output::format_validation_base<wchar_t,__crt_stdio_output::string_output_adapter<wchar_t> > >::type_case_X()
FUNC 2e1ec d 0 __crt_stdio_output::output_processor<wchar_t,__crt_stdio_output::string_output_adapter<wchar_t>,__crt_stdio_output::positional_parameter_base<wchar_t,__crt_stdio_output::string_output_adapter<wchar_t> > >::type_case_X()
FUNC 2e1fc d 0 __crt_stdio_output::output_processor<wchar_t,__crt_stdio_output::string_output_adapter<wchar_t>,__crt_stdio_output::standard_base<wchar_t,__crt_stdio_output::string_output_adapter<wchar_t> > >::type_case_X()
FUNC 2e20c 76 0 __crt_stdio_output::output_processor<char,__crt_stdio_output::stream_output_adapter<char>,__crt_stdio_output::format_validation_base<char,__crt_stdio_output::stream_output_adapter<char> > >::type_case_Z()
FUNC 2e2a0 15b 0 __crt_stdio_output::output_processor<char,__crt_stdio_output::stream_output_adapter<char>,__crt_stdio_output::positional_parameter_base<char,__crt_stdio_output::stream_output_adapter<char> > >::type_case_Z()
FUNC 2e454 76 0 __crt_stdio_output::output_processor<char,__crt_stdio_output::stream_output_adapter<char>,__crt_stdio_output::standard_base<char,__crt_stdio_output::stream_output_adapter<char> > >::type_case_Z()
FUNC 2e4e8 76 0 __crt_stdio_output::output_processor<char,__crt_stdio_output::string_output_adapter<char>,__crt_stdio_output::format_validation_base<char,__crt_stdio_output::string_output_adapter<char> > >::type_case_Z()
FUNC 2e57c 15b 0 __crt_stdio_output::output_processor<char,__crt_stdio_output::string_output_adapter<char>,__crt_stdio_output::positional_parameter_base<char,__crt_stdio_output::string_output_adapter<char> > >::type_case_Z()
FUNC 2e730 76 0 __crt_stdio_output::output_processor<char,__crt_stdio_output::string_output_adapter<char>,__crt_stdio_output::standard_base<char,__crt_stdio_output::string_output_adapter<char> > >::type_case_Z()
FUNC 2e7c4 7c 0 __crt_stdio_output::output_processor<wchar_t,__crt_stdio_output::stream_output_adapter<wchar_t>,__crt_stdio_output::format_validation_base<wchar_t,__crt_stdio_output::stream_output_adapter<wchar_t> > >::type_case_Z()
FUNC 2e860 141 0 __crt_stdio_output::output_processor<wchar_t,__crt_stdio_output::stream_output_adapter<wchar_t>,__crt_stdio_output::positional_parameter_base<wchar_t,__crt_stdio_output::stream_output_adapter<wchar_t> > >::type_case_Z()
FUNC 2e9f4 7c 0 __crt_stdio_output::output_processor<wchar_t,__crt_stdio_output::stream_output_adapter<wchar_t>,__crt_stdio_output::standard_base<wchar_t,__crt_stdio_output::stream_output_adapter<wchar_t> > >::type_case_Z()
FUNC 2ea90 7c 0 __crt_stdio_output::output_processor<wchar_t,__crt_stdio_output::string_output_adapter<wchar_t>,__crt_stdio_output::format_validation_base<wchar_t,__crt_stdio_output::string_output_adapter<wchar_t> > >::type_case_Z()
FUNC 2eb2c 141 0 __crt_stdio_output::output_processor<wchar_t,__crt_stdio_output::string_output_adapter<wchar_t>,__crt_stdio_output::positional_parameter_base<wchar_t,__crt_stdio_output::string_output_adapter<wchar_t> > >::type_case_Z()
FUNC 2ecc0 7c 0 __crt_stdio_output::output_processor<wchar_t,__crt_stdio_output::string_output_adapter<wchar_t>,__crt_stdio_output::standard_base<wchar_t,__crt_stdio_output::string_output_adapter<wchar_t> > >::type_case_Z()
FUNC 2ed5c 1ba 0 __crt_stdio_output::output_processor<char,__crt_stdio_output::stream_output_adapter<char>,__crt_stdio_output::format_validation_base<char,__crt_stdio_output::stream_output_adapter<char> > >::type_case_a()
FUNC 2ef84 1f1 0 __crt_stdio_output::output_processor<char,__crt_stdio_output::stream_output_adapter<char>,__crt_stdio_output::positional_parameter_base<char,__crt_stdio_output::stream_output_adapter<char> > >::type_case_a()
FUNC 2f1f4 1ba 0 __crt_stdio_output::output_processor<char,__crt_stdio_output::stream_output_adapter<char>,__crt_stdio_output::standard_base<char,__crt_stdio_output::stream_output_adapter<char> > >::type_case_a()
FUNC 2f41c 1ba 0 __crt_stdio_output::output_processor<char,__crt_stdio_output::string_output_adapter<char>,__crt_stdio_output::format_validation_base<char,__crt_stdio_output::string_output_adapter<char> > >::type_case_a()
FUNC 2f644 1f1 0 __crt_stdio_output::output_processor<char,__crt_stdio_output::string_output_adapter<char>,__crt_stdio_output::positional_parameter_base<char,__crt_stdio_output::string_output_adapter<char> > >::type_case_a()
FUNC 2f8b4 1ba 0 __crt_stdio_output::output_processor<char,__crt_stdio_output::string_output_adapter<char>,__crt_stdio_output::standard_base<char,__crt_stdio_output::string_output_adapter<char> > >::type_case_a()
FUNC 2fadc 1de 0 __crt_stdio_output::output_processor<wchar_t,__crt_stdio_output::stream_output_adapter<wchar_t>,__crt_stdio_output::format_validation_base<wchar_t,__crt_stdio_output::stream_output_adapter<wchar_t> > >::type_case_a()
FUNC 2fd34 215 0 __crt_stdio_output::output_processor<wchar_t,__crt_stdio_output::stream_output_adapter<wchar_t>,__crt_stdio_output::positional_parameter_base<wchar_t,__crt_stdio_output::stream_output_adapter<wchar_t> > >::type_case_a()
FUNC 2ffd0 1de 0 __crt_stdio_output::output_processor<wchar_t,__crt_stdio_output::stream_output_adapter<wchar_t>,__crt_stdio_output::standard_base<wchar_t,__crt_stdio_output::stream_output_adapter<wchar_t> > >::type_case_a()
FUNC 30228 1de 0 __crt_stdio_output::output_processor<wchar_t,__crt_stdio_output::string_output_adapter<wchar_t>,__crt_stdio_output::format_validation_base<wchar_t,__crt_stdio_output::string_output_adapter<wchar_t> > >::type_case_a()
FUNC 30480 215 0 __crt_stdio_output::output_processor<wchar_t,__crt_stdio_output::string_output_adapter<wchar_t>,__crt_stdio_output::positional_parameter_base<wchar_t,__crt_stdio_output::string_output_adapter<wchar_t> > >::type_case_a()
FUNC 3071c 1de 0 __crt_stdio_output::output_processor<wchar_t,__crt_stdio_output::string_output_adapter<wchar_t>,__crt_stdio_output::standard_base<wchar_t,__crt_stdio_output::string_output_adapter<wchar_t> > >::type_case_a()
FUNC 30974 7 0 __crt_stdio_output::output_processor<char,__crt_stdio_output::stream_output_adapter<char>,__crt_stdio_output::format_validation_base<char,__crt_stdio_output::stream_output_adapter<char> > >::type_case_c()
FUNC 3097c 7 0 __crt_stdio_output::output_processor<char,__crt_stdio_output::stream_output_adapter<char>,__crt_stdio_output::positional_parameter_base<char,__crt_stdio_output::stream_output_adapter<char> > >::type_case_c()
FUNC 30984 7 0 __crt_stdio_output::output_processor<char,__crt_stdio_output::stream_output_adapter<char>,__crt_stdio_output::standard_base<char,__crt_stdio_output::stream_output_adapter<char> > >::type_case_c()
FUNC 3098c 7 0 __crt_stdio_output::output_processor<char,__crt_stdio_output::string_output_adapter<char>,__crt_stdio_output::format_validation_base<char,__crt_stdio_output::string_output_adapter<char> > >::type_case_c()
FUNC 30994 7 0 __crt_stdio_output::output_processor<char,__crt_stdio_output::string_output_adapter<char>,__crt_stdio_output::positional_parameter_base<char,__crt_stdio_output::string_output_adapter<char> > >::type_case_c()
FUNC 3099c 7 0 __crt_stdio_output::output_processor<char,__crt_stdio_output::string_output_adapter<char>,__crt_stdio_output::standard_base<char,__crt_stdio_output::string_output_adapter<char> > >::type_case_c()
FUNC 309a4 7 0 __crt_stdio_output::output_processor<wchar_t,__crt_stdio_output::stream_output_adapter<wchar_t>,__crt_stdio_output::format_validation_base<wchar_t,__crt_stdio_output::stream_output_adapter<wchar_t> > >::type_case_c()
FUNC 309ac 7 0 __crt_stdio_output::output_processor<wchar_t,__crt_stdio_output::stream_output_adapter<wchar_t>,__crt_stdio_output::positional_parameter_base<wchar_t,__crt_stdio_output::stream_output_adapter<wchar_t> > >::type_case_c()
FUNC 309b4 7 0 __crt_stdio_output::output_processor<wchar_t,__crt_stdio_output::stream_output_adapter<wchar_t>,__crt_stdio_output::standard_base<wchar_t,__crt_stdio_output::stream_output_adapter<wchar_t> > >::type_case_c()
FUNC 309bc 7 0 __crt_stdio_output::output_processor<wchar_t,__crt_stdio_output::string_output_adapter<wchar_t>,__crt_stdio_output::format_validation_base<wchar_t,__crt_stdio_output::string_output_adapter<wchar_t> > >::type_case_c()
FUNC 309c4 7 0 __crt_stdio_output::output_processor<wchar_t,__crt_stdio_output::string_output_adapter<wchar_t>,__crt_stdio_output::positional_parameter_base<wchar_t,__crt_stdio_output::string_output_adapter<wchar_t> > >::type_case_c()
FUNC 309cc 7 0 __crt_stdio_output::output_processor<wchar_t,__crt_stdio_output::string_output_adapter<wchar_t>,__crt_stdio_output::standard_base<wchar_t,__crt_stdio_output::string_output_adapter<wchar_t> > >::type_case_c()
FUNC 309d4 bc 0 __crt_stdio_output::output_processor<char,__crt_stdio_output::stream_output_adapter<char>,__crt_stdio_output::format_validation_base<char,__crt_stdio_output::stream_output_adapter<char> > >::type_case_c_tchar(char)
FUNC 30ac0 ff 0 __crt_stdio_output::output_processor<char,__crt_stdio_output::stream_output_adapter<char>,__crt_stdio_output::positional_parameter_base<char,__crt_stdio_output::stream_output_adapter<char> > >::type_case_c_tchar(char)
FUNC 30c00 bc 0 __crt_stdio_output::output_processor<char,__crt_stdio_output::stream_output_adapter<char>,__crt_stdio_output::standard_base<char,__crt_stdio_output::stream_output_adapter<char> > >::type_case_c_tchar(char)
FUNC 30cec bc 0 __crt_stdio_output::output_processor<char,__crt_stdio_output::string_output_adapter<char>,__crt_stdio_output::format_validation_base<char,__crt_stdio_output::string_output_adapter<char> > >::type_case_c_tchar(char)
FUNC 30dd8 ff 0 __crt_stdio_output::output_processor<char,__crt_stdio_output::string_output_adapter<char>,__crt_stdio_output::positional_parameter_base<char,__crt_stdio_output::string_output_adapter<char> > >::type_case_c_tchar(char)
FUNC 30f18 bc 0 __crt_stdio_output::output_processor<char,__crt_stdio_output::string_output_adapter<char>,__crt_stdio_output::standard_base<char,__crt_stdio_output::string_output_adapter<char> > >::type_case_c_tchar(char)
FUNC 31004 a6 0 __crt_stdio_output::output_processor<wchar_t,__crt_stdio_output::stream_output_adapter<wchar_t>,__crt_stdio_output::format_validation_base<wchar_t,__crt_stdio_output::stream_output_adapter<wchar_t> > >::type_case_c_tchar(wchar_t)
FUNC 310d4 cc 0 __crt_stdio_output::output_processor<wchar_t,__crt_stdio_output::stream_output_adapter<wchar_t>,__crt_stdio_output::positional_parameter_base<wchar_t,__crt_stdio_output::stream_output_adapter<wchar_t> > >::type_case_c_tchar(wchar_t)
FUNC 311d4 a6 0 __crt_stdio_output::output_processor<wchar_t,__crt_stdio_output::stream_output_adapter<wchar_t>,__crt_stdio_output::standard_base<wchar_t,__crt_stdio_output::stream_output_adapter<wchar_t> > >::type_case_c_tchar(wchar_t)
FUNC 312a4 a6 0 __crt_stdio_output::output_processor<wchar_t,__crt_stdio_output::string_output_adapter<wchar_t>,__crt_stdio_output::format_validation_base<wchar_t,__crt_stdio_output::string_output_adapter<wchar_t> > >::type_case_c_tchar(wchar_t)
FUNC 31374 cc 0 __crt_stdio_output::output_processor<wchar_t,__crt_stdio_output::string_output_adapter<wchar_t>,__crt_stdio_output::positional_parameter_base<wchar_t,__crt_stdio_output::string_output_adapter<wchar_t> > >::type_case_c_tchar(wchar_t)
FUNC 31474 a6 0 __crt_stdio_output::output_processor<wchar_t,__crt_stdio_output::string_output_adapter<wchar_t>,__crt_stdio_output::standard_base<wchar_t,__crt_stdio_output::string_output_adapter<wchar_t> > >::type_case_c_tchar(wchar_t)
FUNC 31544 10 0 __crt_stdio_output::output_processor<char,__crt_stdio_output::stream_output_adapter<char>,__crt_stdio_output::format_validation_base<char,__crt_stdio_output::stream_output_adapter<char> > >::type_case_d()
FUNC 31558 10 0 __crt_stdio_output::output_processor<char,__crt_stdio_output::stream_output_adapter<char>,__crt_stdio_output::positional_parameter_base<char,__crt_stdio_output::stream_output_adapter<char> > >::type_case_d()
FUNC 3156c 10 0 __crt_stdio_output::output_processor<char,__crt_stdio_output::stream_output_adapter<char>,__crt_stdio_output::standard_base<char,__crt_stdio_output::stream_output_adapter<char> > >::type_case_d()
FUNC 31580 10 0 __crt_stdio_output::output_processor<char,__crt_stdio_output::string_output_adapter<char>,__crt_stdio_output::format_validation_base<char,__crt_stdio_output::string_output_adapter<char> > >::type_case_d()
FUNC 31594 10 0 __crt_stdio_output::output_processor<char,__crt_stdio_output::string_output_adapter<char>,__crt_stdio_output::positional_parameter_base<char,__crt_stdio_output::string_output_adapter<char> > >::type_case_d()
FUNC 315a8 10 0 __crt_stdio_output::output_processor<char,__crt_stdio_output::string_output_adapter<char>,__crt_stdio_output::standard_base<char,__crt_stdio_output::string_output_adapter<char> > >::type_case_d()
FUNC 315bc 10 0 __crt_stdio_output::output_processor<wchar_t,__crt_stdio_output::stream_output_adapter<wchar_t>,__crt_stdio_output::format_validation_base<wchar_t,__crt_stdio_output::stream_output_adapter<wchar_t> > >::type_case_d()
FUNC 315d0 10 0 __crt_stdio_output::output_processor<wchar_t,__crt_stdio_output::stream_output_adapter<wchar_t>,__crt_stdio_output::positional_parameter_base<wchar_t,__crt_stdio_output::stream_output_adapter<wchar_t> > >::type_case_d()
FUNC 315e4 10 0 __crt_stdio_output::output_processor<wchar_t,__crt_stdio_output::stream_output_adapter<wchar_t>,__crt_stdio_output::standard_base<wchar_t,__crt_stdio_output::stream_output_adapter<wchar_t> > >::type_case_d()
FUNC 315f8 10 0 __crt_stdio_output::output_processor<wchar_t,__crt_stdio_output::string_output_adapter<wchar_t>,__crt_stdio_output::format_validation_base<wchar_t,__crt_stdio_output::string_output_adapter<wchar_t> > >::type_case_d()
FUNC 3160c 10 0 __crt_stdio_output::output_processor<wchar_t,__crt_stdio_output::string_output_adapter<wchar_t>,__crt_stdio_output::positional_parameter_base<wchar_t,__crt_stdio_output::string_output_adapter<wchar_t> > >::type_case_d()
FUNC 31620 10 0 __crt_stdio_output::output_processor<wchar_t,__crt_stdio_output::string_output_adapter<wchar_t>,__crt_stdio_output::standard_base<wchar_t,__crt_stdio_output::string_output_adapter<wchar_t> > >::type_case_d()
FUNC 31634 1c5 0 __crt_stdio_output::output_processor<char,__crt_stdio_output::stream_output_adapter<char>,__crt_stdio_output::format_validation_base<char,__crt_stdio_output::stream_output_adapter<char> > >::type_case_integer(const unsigned int, const bool)
FUNC 3186c 202 0 __crt_stdio_output::output_processor<char,__crt_stdio_output::stream_output_adapter<char>,__crt_stdio_output::positional_parameter_base<char,__crt_stdio_output::stream_output_adapter<char> > >::type_case_integer(const unsigned int, const bool)
FUNC 31af0 1c5 0 __crt_stdio_output::output_processor<char,__crt_stdio_output::stream_output_adapter<char>,__crt_stdio_output::standard_base<char,__crt_stdio_output::stream_output_adapter<char> > >::type_case_integer(const unsigned int, const bool)
FUNC 31d28 1c5 0 __crt_stdio_output::output_processor<char,__crt_stdio_output::string_output_adapter<char>,__crt_stdio_output::format_validation_base<char,__crt_stdio_output::string_output_adapter<char> > >::type_case_integer(const unsigned int, const bool)
FUNC 31f60 202 0 __crt_stdio_output::output_processor<char,__crt_stdio_output::string_output_adapter<char>,__crt_stdio_output::positional_parameter_base<char,__crt_stdio_output::string_output_adapter<char> > >::type_case_integer(const unsigned int, const bool)
FUNC 321e4 1c5 0 __crt_stdio_output::output_processor<char,__crt_stdio_output::string_output_adapter<char>,__crt_stdio_output::standard_base<char,__crt_stdio_output::string_output_adapter<char> > >::type_case_integer(const unsigned int, const bool)
FUNC 3241c 1cb 0 __crt_stdio_output::output_processor<wchar_t,__crt_stdio_output::stream_output_adapter<wchar_t>,__crt_stdio_output::format_validation_base<wchar_t,__crt_stdio_output::stream_output_adapter<wchar_t> > >::type_case_integer(const unsigned int, const bool)
FUNC 3265c 208 0 __crt_stdio_output::output_processor<wchar_t,__crt_stdio_output::stream_output_adapter<wchar_t>,__crt_stdio_output::positional_parameter_base<wchar_t,__crt_stdio_output::stream_output_adapter<wchar_t> > >::type_case_integer(const unsigned int, const bool)
FUNC 328e8 1cb 0 __crt_stdio_output::output_processor<wchar_t,__crt_stdio_output::stream_output_adapter<wchar_t>,__crt_stdio_output::standard_base<wchar_t,__crt_stdio_output::stream_output_adapter<wchar_t> > >::type_case_integer(const unsigned int, const bool)
FUNC 32b28 1cb 0 __crt_stdio_output::output_processor<wchar_t,__crt_stdio_output::string_output_adapter<wchar_t>,__crt_stdio_output::format_validation_base<wchar_t,__crt_stdio_output::string_output_adapter<wchar_t> > >::type_case_integer(const unsigned int, const bool)
FUNC 32d68 208 0 __crt_stdio_output::output_processor<wchar_t,__crt_stdio_output::string_output_adapter<wchar_t>,__crt_stdio_output::positional_parameter_base<wchar_t,__crt_stdio_output::string_output_adapter<wchar_t> > >::type_case_integer(const unsigned int, const bool)
FUNC 32ff4 1cb 0 __crt_stdio_output::output_processor<wchar_t,__crt_stdio_output::string_output_adapter<wchar_t>,__crt_stdio_output::standard_base<wchar_t,__crt_stdio_output::string_output_adapter<wchar_t> > >::type_case_integer(const unsigned int, const bool)
FUNC 33234 db 0 __crt_stdio_output::output_processor<char,__crt_stdio_output::stream_output_adapter<char>,__crt_stdio_output::format_validation_base<char,__crt_stdio_output::stream_output_adapter<char> > >::type_case_n()
FUNC 33348 104 0 __crt_stdio_output::output_processor<char,__crt_stdio_output::stream_output_adapter<char>,__crt_stdio_output::positional_parameter_base<char,__crt_stdio_output::stream_output_adapter<char> > >::type_case_n()
FUNC 33490 db 0 __crt_stdio_output::output_processor<char,__crt_stdio_output::stream_output_adapter<char>,__crt_stdio_output::standard_base<char,__crt_stdio_output::stream_output_adapter<char> > >::type_case_n()
FUNC 335a4 db 0 __crt_stdio_output::output_processor<char,__crt_stdio_output::string_output_adapter<char>,__crt_stdio_output::format_validation_base<char,__crt_stdio_output::string_output_adapter<char> > >::type_case_n()
FUNC 336b8 104 0 __crt_stdio_output::output_processor<char,__crt_stdio_output::string_output_adapter<char>,__crt_stdio_output::positional_parameter_base<char,__crt_stdio_output::string_output_adapter<char> > >::type_case_n()
FUNC 33800 db 0 __crt_stdio_output::output_processor<char,__crt_stdio_output::string_output_adapter<char>,__crt_stdio_output::standard_base<char,__crt_stdio_output::string_output_adapter<char> > >::type_case_n()
FUNC 33914 db 0 __crt_stdio_output::output_processor<wchar_t,__crt_stdio_output::stream_output_adapter<wchar_t>,__crt_stdio_output::format_validation_base<wchar_t,__crt_stdio_output::stream_output_adapter<wchar_t> > >::type_case_n()
FUNC 33a28 104 0 __crt_stdio_output::output_processor<wchar_t,__crt_stdio_output::stream_output_adapter<wchar_t>,__crt_stdio_output::positional_parameter_base<wchar_t,__crt_stdio_output::stream_output_adapter<wchar_t> > >::type_case_n()
FUNC 33b70 db 0 __crt_stdio_output::output_processor<wchar_t,__crt_stdio_output::stream_output_adapter<wchar_t>,__crt_stdio_output::standard_base<wchar_t,__crt_stdio_output::stream_output_adapter<wchar_t> > >::type_case_n()
FUNC 33c84 db 0 __crt_stdio_output::output_processor<wchar_t,__crt_stdio_output::string_output_adapter<wchar_t>,__crt_stdio_output::format_validation_base<wchar_t,__crt_stdio_output::string_output_adapter<wchar_t> > >::type_case_n()
FUNC 33d98 104 0 __crt_stdio_output::output_processor<wchar_t,__crt_stdio_output::string_output_adapter<wchar_t>,__crt_stdio_output::positional_parameter_base<wchar_t,__crt_stdio_output::string_output_adapter<wchar_t> > >::type_case_n()
FUNC 33ee0 db 0 __crt_stdio_output::output_processor<wchar_t,__crt_stdio_output::string_output_adapter<wchar_t>,__crt_stdio_output::standard_base<wchar_t,__crt_stdio_output::string_output_adapter<wchar_t> > >::type_case_n()
FUNC 33ff4 1f 0 __crt_stdio_output::output_processor<char,__crt_stdio_output::stream_output_adapter<char>,__crt_stdio_output::format_validation_base<char,__crt_stdio_output::stream_output_adapter<char> > >::type_case_o()
FUNC 3401c 1f 0 __crt_stdio_output::output_processor<char,__crt_stdio_output::stream_output_adapter<char>,__crt_stdio_output::positional_parameter_base<char,__crt_stdio_output::stream_output_adapter<char> > >::type_case_o()
FUNC 34044 1f 0 __crt_stdio_output::output_processor<char,__crt_stdio_output::stream_output_adapter<char>,__crt_stdio_output::standard_base<char,__crt_stdio_output::stream_output_adapter<char> > >::type_case_o()
FUNC 3406c 1f 0 __crt_stdio_output::output_processor<char,__crt_stdio_output::string_output_adapter<char>,__crt_stdio_output::format_validation_base<char,__crt_stdio_output::string_output_adapter<char> > >::type_case_o()
FUNC 34094 1f 0 __crt_stdio_output::output_processor<char,__crt_stdio_output::string_output_adapter<char>,__crt_stdio_output::positional_parameter_base<char,__crt_stdio_output::string_output_adapter<char> > >::type_case_o()
FUNC 340bc 1f 0 __crt_stdio_output::output_processor<char,__crt_stdio_output::string_output_adapter<char>,__crt_stdio_output::standard_base<char,__crt_stdio_output::string_output_adapter<char> > >::type_case_o()
FUNC 340e4 1f 0 __crt_stdio_output::output_processor<wchar_t,__crt_stdio_output::stream_output_adapter<wchar_t>,__crt_stdio_output::format_validation_base<wchar_t,__crt_stdio_output::stream_output_adapter<wchar_t> > >::type_case_o()
FUNC 3410c 1f 0 __crt_stdio_output::output_processor<wchar_t,__crt_stdio_output::stream_output_adapter<wchar_t>,__crt_stdio_output::positional_parameter_base<wchar_t,__crt_stdio_output::stream_output_adapter<wchar_t> > >::type_case_o()
FUNC 34134 1f 0 __crt_stdio_output::output_processor<wchar_t,__crt_stdio_output::stream_output_adapter<wchar_t>,__crt_stdio_output::standard_base<wchar_t,__crt_stdio_output::stream_output_adapter<wchar_t> > >::type_case_o()
FUNC 3415c 1f 0 __crt_stdio_output::output_processor<wchar_t,__crt_stdio_output::string_output_adapter<wchar_t>,__crt_stdio_output::format_validation_base<wchar_t,__crt_stdio_output::string_output_adapter<wchar_t> > >::type_case_o()
FUNC 34184 1f 0 __crt_stdio_output::output_processor<wchar_t,__crt_stdio_output::string_output_adapter<wchar_t>,__crt_stdio_output::positional_parameter_base<wchar_t,__crt_stdio_output::string_output_adapter<wchar_t> > >::type_case_o()
FUNC 341ac 1f 0 __crt_stdio_output::output_processor<wchar_t,__crt_stdio_output::string_output_adapter<wchar_t>,__crt_stdio_output::standard_base<wchar_t,__crt_stdio_output::string_output_adapter<wchar_t> > >::type_case_o()
FUNC 341d4 17 0 __crt_stdio_output::output_processor<char,__crt_stdio_output::stream_output_adapter<char>,__crt_stdio_output::format_validation_base<char,__crt_stdio_output::stream_output_adapter<char> > >::type_case_p()
FUNC 341f0 17 0 __crt_stdio_output::output_processor<char,__crt_stdio_output::stream_output_adapter<char>,__crt_stdio_output::positional_parameter_base<char,__crt_stdio_output::stream_output_adapter<char> > >::type_case_p()
FUNC 3420c 17 0 __crt_stdio_output::output_processor<char,__crt_stdio_output::stream_output_adapter<char>,__crt_stdio_output::standard_base<char,__crt_stdio_output::stream_output_adapter<char> > >::type_case_p()
FUNC 34228 17 0 __crt_stdio_output::output_processor<char,__crt_stdio_output::string_output_adapter<char>,__crt_stdio_output::format_validation_base<char,__crt_stdio_output::string_output_adapter<char> > >::type_case_p()
FUNC 34244 17 0 __crt_stdio_output::output_processor<char,__crt_stdio_output::string_output_adapter<char>,__crt_stdio_output::positional_parameter_base<char,__crt_stdio_output::string_output_adapter<char> > >::type_case_p()
FUNC 34260 17 0 __crt_stdio_output::output_processor<char,__crt_stdio_output::string_output_adapter<char>,__crt_stdio_output::standard_base<char,__crt_stdio_output::string_output_adapter<char> > >::type_case_p()
FUNC 3427c 17 0 __crt_stdio_output::output_processor<wchar_t,__crt_stdio_output::stream_output_adapter<wchar_t>,__crt_stdio_output::format_validation_base<wchar_t,__crt_stdio_output::stream_output_adapter<wchar_t> > >::type_case_p()
FUNC 34298 17 0 __crt_stdio_output::output_processor<wchar_t,__crt_stdio_output::stream_output_adapter<wchar_t>,__crt_stdio_output::positional_parameter_base<wchar_t,__crt_stdio_output::stream_output_adapter<wchar_t> > >::type_case_p()
FUNC 342b4 17 0 __crt_stdio_output::output_processor<wchar_t,__crt_stdio_output::stream_output_adapter<wchar_t>,__crt_stdio_output::standard_base<wchar_t,__crt_stdio_output::stream_output_adapter<wchar_t> > >::type_case_p()
FUNC 342d0 17 0 __crt_stdio_output::output_processor<wchar_t,__crt_stdio_output::string_output_adapter<wchar_t>,__crt_stdio_output::format_validation_base<wchar_t,__crt_stdio_output::string_output_adapter<wchar_t> > >::type_case_p()
FUNC 342ec 17 0 __crt_stdio_output::output_processor<wchar_t,__crt_stdio_output::string_output_adapter<wchar_t>,__crt_stdio_output::positional_parameter_base<wchar_t,__crt_stdio_output::string_output_adapter<wchar_t> > >::type_case_p()
FUNC 34308 17 0 __crt_stdio_output::output_processor<wchar_t,__crt_stdio_output::string_output_adapter<wchar_t>,__crt_stdio_output::standard_base<wchar_t,__crt_stdio_output::string_output_adapter<wchar_t> > >::type_case_p()
FUNC 34324 96 0 __crt_stdio_output::output_processor<char,__crt_stdio_output::stream_output_adapter<char>,__crt_stdio_output::format_validation_base<char,__crt_stdio_output::stream_output_adapter<char> > >::type_case_s()
FUNC 343e0 b5 0 __crt_stdio_output::output_processor<char,__crt_stdio_output::stream_output_adapter<char>,__crt_stdio_output::positional_parameter_base<char,__crt_stdio_output::stream_output_adapter<char> > >::type_case_s()
FUNC 344c4 96 0 __crt_stdio_output::output_processor<char,__crt_stdio_output::stream_output_adapter<char>,__crt_stdio_output::standard_base<char,__crt_stdio_output::stream_output_adapter<char> > >::type_case_s()
FUNC 34580 96 0 __crt_stdio_output::output_processor<char,__crt_stdio_output::string_output_adapter<char>,__crt_stdio_output::format_validation_base<char,__crt_stdio_output::string_output_adapter<char> > >::type_case_s()
FUNC 3463c b5 0 __crt_stdio_output::output_processor<char,__crt_stdio_output::string_output_adapter<char>,__crt_stdio_output::positional_parameter_base<char,__crt_stdio_output::string_output_adapter<char> > >::type_case_s()
FUNC 34720 96 0 __crt_stdio_output::output_processor<char,__crt_stdio_output::string_output_adapter<char>,__crt_stdio_output::standard_base<char,__crt_stdio_output::string_output_adapter<char> > >::type_case_s()
FUNC 347dc c7 0 __crt_stdio_output::output_processor<wchar_t,__crt_stdio_output::stream_output_adapter<wchar_t>,__crt_stdio_output::format_validation_base<wchar_t,__crt_stdio_output::stream_output_adapter<wchar_t> > >::type_case_s()
FUNC 348d4 e9 0 __crt_stdio_output::output_processor<wchar_t,__crt_stdio_output::stream_output_adapter<wchar_t>,__crt_stdio_output::positional_parameter_base<wchar_t,__crt_stdio_output::stream_output_adapter<wchar_t> > >::type_case_s()
FUNC 349f8 c7 0 __crt_stdio_output::output_processor<wchar_t,__crt_stdio_output::stream_output_adapter<wchar_t>,__crt_stdio_output::standard_base<wchar_t,__crt_stdio_output::stream_output_adapter<wchar_t> > >::type_case_s()
FUNC 34af0 c7 0 __crt_stdio_output::output_processor<wchar_t,__crt_stdio_output::string_output_adapter<wchar_t>,__crt_stdio_output::format_validation_base<wchar_t,__crt_stdio_output::string_output_adapter<wchar_t> > >::type_case_s()
FUNC 34be8 e9 0 __crt_stdio_output::output_processor<wchar_t,__crt_stdio_output::string_output_adapter<wchar_t>,__crt_stdio_output::positional_parameter_base<wchar_t,__crt_stdio_output::string_output_adapter<wchar_t> > >::type_case_s()
FUNC 34d0c c7 0 __crt_stdio_output::output_processor<wchar_t,__crt_stdio_output::string_output_adapter<wchar_t>,__crt_stdio_output::standard_base<wchar_t,__crt_stdio_output::string_output_adapter<wchar_t> > >::type_case_s()
FUNC 34e04 c 0 __crt_stdio_output::output_processor<char,__crt_stdio_output::stream_output_adapter<char>,__crt_stdio_output::format_validation_base<char,__crt_stdio_output::stream_output_adapter<char> > >::type_case_s_compute_narrow_string_length(const int, char) const
FUNC 34e14 c 0 __crt_stdio_output::output_processor<char,__crt_stdio_output::stream_output_adapter<char>,__crt_stdio_output::positional_parameter_base<char,__crt_stdio_output::stream_output_adapter<char> > >::type_case_s_compute_narrow_string_length(const int, char) const
FUNC 34e24 c 0 __crt_stdio_output::output_processor<char,__crt_stdio_output::stream_output_adapter<char>,__crt_stdio_output::standard_base<char,__crt_stdio_output::stream_output_adapter<char> > >::type_case_s_compute_narrow_string_length(const int, char) const
FUNC 34e34 c 0 __crt_stdio_output::output_processor<char,__crt_stdio_output::string_output_adapter<char>,__crt_stdio_output::format_validation_base<char,__crt_stdio_output::string_output_adapter<char> > >::type_case_s_compute_narrow_string_length(const int, char) const
FUNC 34e44 c 0 __crt_stdio_output::output_processor<char,__crt_stdio_output::string_output_adapter<char>,__crt_stdio_output::positional_parameter_base<char,__crt_stdio_output::string_output_adapter<char> > >::type_case_s_compute_narrow_string_length(const int, char) const
FUNC 34e54 c 0 __crt_stdio_output::output_processor<char,__crt_stdio_output::string_output_adapter<char>,__crt_stdio_output::standard_base<char,__crt_stdio_output::string_output_adapter<char> > >::type_case_s_compute_narrow_string_length(const int, char) const
FUNC 34e64 53 0 __crt_stdio_output::output_processor<wchar_t,__crt_stdio_output::stream_output_adapter<wchar_t>,__crt_stdio_output::format_validation_base<wchar_t,__crt_stdio_output::stream_output_adapter<wchar_t> > >::type_case_s_compute_narrow_string_length(const int, wchar_t) const
FUNC 34ecc 53 0 __crt_stdio_output::output_processor<wchar_t,__crt_stdio_output::stream_output_adapter<wchar_t>,__crt_stdio_output::positional_parameter_base<wchar_t,__crt_stdio_output::stream_output_adapter<wchar_t> > >::type_case_s_compute_narrow_string_length(const int, wchar_t) const
FUNC 34f34 53 0 __crt_stdio_output::output_processor<wchar_t,__crt_stdio_output::stream_output_adapter<wchar_t>,__crt_stdio_output::standard_base<wchar_t,__crt_stdio_output::stream_output_adapter<wchar_t> > >::type_case_s_compute_narrow_string_length(const int, wchar_t) const
FUNC 34f9c 53 0 __crt_stdio_output::output_processor<wchar_t,__crt_stdio_output::string_output_adapter<wchar_t>,__crt_stdio_output::format_validation_base<wchar_t,__crt_stdio_output::string_output_adapter<wchar_t> > >::type_case_s_compute_narrow_string_length(const int, wchar_t) const
FUNC 35004 53 0 __crt_stdio_output::output_processor<wchar_t,__crt_stdio_output::string_output_adapter<wchar_t>,__crt_stdio_output::positional_parameter_base<wchar_t,__crt_stdio_output::string_output_adapter<wchar_t> > >::type_case_s_compute_narrow_string_length(const int, wchar_t) const
FUNC 3506c 53 0 __crt_stdio_output::output_processor<wchar_t,__crt_stdio_output::string_output_adapter<wchar_t>,__crt_stdio_output::standard_base<wchar_t,__crt_stdio_output::string_output_adapter<wchar_t> > >::type_case_s_compute_narrow_string_length(const int, wchar_t) const
FUNC 350d4 c 0 __crt_stdio_output::output_processor<char,__crt_stdio_output::stream_output_adapter<char>,__crt_stdio_output::format_validation_base<char,__crt_stdio_output::stream_output_adapter<char> > >::type_case_u()
FUNC 350e4 c 0 __crt_stdio_output::output_processor<char,__crt_stdio_output::stream_output_adapter<char>,__crt_stdio_output::positional_parameter_base<char,__crt_stdio_output::stream_output_adapter<char> > >::type_case_u()
FUNC 350f4 c 0 __crt_stdio_output::output_processor<char,__crt_stdio_output::stream_output_adapter<char>,__crt_stdio_output::standard_base<char,__crt_stdio_output::stream_output_adapter<char> > >::type_case_u()
FUNC 35104 c 0 __crt_stdio_output::output_processor<char,__crt_stdio_output::string_output_adapter<char>,__crt_stdio_output::format_validation_base<char,__crt_stdio_output::string_output_adapter<char> > >::type_case_u()
FUNC 35114 c 0 __crt_stdio_output::output_processor<char,__crt_stdio_output::string_output_adapter<char>,__crt_stdio_output::positional_parameter_base<char,__crt_stdio_output::string_output_adapter<char> > >::type_case_u()
FUNC 35124 c 0 __crt_stdio_output::output_processor<char,__crt_stdio_output::string_output_adapter<char>,__crt_stdio_output::standard_base<char,__crt_stdio_output::string_output_adapter<char> > >::type_case_u()
FUNC 35134 c 0 __crt_stdio_output::output_processor<wchar_t,__crt_stdio_output::stream_output_adapter<wchar_t>,__crt_stdio_output::format_validation_base<wchar_t,__crt_stdio_output::stream_output_adapter<wchar_t> > >::type_case_u()
FUNC 35144 c 0 __crt_stdio_output::output_processor<wchar_t,__crt_stdio_output::stream_output_adapter<wchar_t>,__crt_stdio_output::positional_parameter_base<wchar_t,__crt_stdio_output::stream_output_adapter<wchar_t> > >::type_case_u()
FUNC 35154 c 0 __crt_stdio_output::output_processor<wchar_t,__crt_stdio_output::stream_output_adapter<wchar_t>,__crt_stdio_output::standard_base<wchar_t,__crt_stdio_output::stream_output_adapter<wchar_t> > >::type_case_u()
FUNC 35164 c 0 __crt_stdio_output::output_processor<wchar_t,__crt_stdio_output::string_output_adapter<wchar_t>,__crt_stdio_output::format_validation_base<wchar_t,__crt_stdio_output::string_output_adapter<wchar_t> > >::type_case_u()
FUNC 35174 c 0 __crt_stdio_output::output_processor<wchar_t,__crt_stdio_output::string_output_adapter<wchar_t>,__crt_stdio_output::positional_parameter_base<wchar_t,__crt_stdio_output::string_output_adapter<wchar_t> > >::type_case_u()
FUNC 35184 c 0 __crt_stdio_output::output_processor<wchar_t,__crt_stdio_output::string_output_adapter<wchar_t>,__crt_stdio_output::standard_base<wchar_t,__crt_stdio_output::string_output_adapter<wchar_t> > >::type_case_u()
FUNC 35194 c 0 __crt_stdio_output::output_processor<char,__crt_stdio_output::stream_output_adapter<char>,__crt_stdio_output::format_validation_base<char,__crt_stdio_output::stream_output_adapter<char> > >::type_case_x()
FUNC 351a4 c 0 __crt_stdio_output::output_processor<char,__crt_stdio_output::stream_output_adapter<char>,__crt_stdio_output::positional_parameter_base<char,__crt_stdio_output::stream_output_adapter<char> > >::type_case_x()
FUNC 351b4 c 0 __crt_stdio_output::output_processor<char,__crt_stdio_output::stream_output_adapter<char>,__crt_stdio_output::standard_base<char,__crt_stdio_output::stream_output_adapter<char> > >::type_case_x()
FUNC 351c4 c 0 __crt_stdio_output::output_processor<char,__crt_stdio_output::string_output_adapter<char>,__crt_stdio_output::format_validation_base<char,__crt_stdio_output::string_output_adapter<char> > >::type_case_x()
FUNC 351d4 c 0 __crt_stdio_output::output_processor<char,__crt_stdio_output::string_output_adapter<char>,__crt_stdio_output::positional_parameter_base<char,__crt_stdio_output::string_output_adapter<char> > >::type_case_x()
FUNC 351e4 c 0 __crt_stdio_output::output_processor<char,__crt_stdio_output::string_output_adapter<char>,__crt_stdio_output::standard_base<char,__crt_stdio_output::string_output_adapter<char> > >::type_case_x()
FUNC 351f4 c 0 __crt_stdio_output::output_processor<wchar_t,__crt_stdio_output::stream_output_adapter<wchar_t>,__crt_stdio_output::format_validation_base<wchar_t,__crt_stdio_output::stream_output_adapter<wchar_t> > >::type_case_x()
FUNC 35204 c 0 __crt_stdio_output::output_processor<wchar_t,__crt_stdio_output::stream_output_adapter<wchar_t>,__crt_stdio_output::positional_parameter_base<wchar_t,__crt_stdio_output::stream_output_adapter<wchar_t> > >::type_case_x()
FUNC 35214 c 0 __crt_stdio_output::output_processor<wchar_t,__crt_stdio_output::stream_output_adapter<wchar_t>,__crt_stdio_output::standard_base<wchar_t,__crt_stdio_output::stream_output_adapter<wchar_t> > >::type_case_x()
FUNC 35224 c 0 __crt_stdio_output::output_processor<wchar_t,__crt_stdio_output::string_output_adapter<wchar_t>,__crt_stdio_output::format_validation_base<wchar_t,__crt_stdio_output::string_output_adapter<wchar_t> > >::type_case_x()
FUNC 35234 c 0 __crt_stdio_output::output_processor<wchar_t,__crt_stdio_output::string_output_adapter<wchar_t>,__crt_stdio_output::positional_parameter_base<wchar_t,__crt_stdio_output::string_output_adapter<wchar_t> > >::type_case_x()
FUNC 35244 c 0 __crt_stdio_output::output_processor<wchar_t,__crt_stdio_output::string_output_adapter<wchar_t>,__crt_stdio_output::standard_base<wchar_t,__crt_stdio_output::string_output_adapter<wchar_t> > >::type_case_x()
FUNC 35254 6 0 __crt_stdio_output::output_processor<char,__crt_stdio_output::stream_output_adapter<char>,__crt_stdio_output::format_validation_base<char,__crt_stdio_output::stream_output_adapter<char> > >::unset_flag(const unsigned int)
FUNC 3525c 6 0 __crt_stdio_output::output_processor<char,__crt_stdio_output::stream_output_adapter<char>,__crt_stdio_output::positional_parameter_base<char,__crt_stdio_output::stream_output_adapter<char> > >::unset_flag(const unsigned int)
FUNC 35264 6 0 __crt_stdio_output::output_processor<char,__crt_stdio_output::stream_output_adapter<char>,__crt_stdio_output::standard_base<char,__crt_stdio_output::stream_output_adapter<char> > >::unset_flag(const unsigned int)
FUNC 3526c 6 0 __crt_stdio_output::output_processor<char,__crt_stdio_output::string_output_adapter<char>,__crt_stdio_output::format_validation_base<char,__crt_stdio_output::string_output_adapter<char> > >::unset_flag(const unsigned int)
FUNC 35274 6 0 __crt_stdio_output::output_processor<char,__crt_stdio_output::string_output_adapter<char>,__crt_stdio_output::positional_parameter_base<char,__crt_stdio_output::string_output_adapter<char> > >::unset_flag(const unsigned int)
FUNC 3527c 6 0 __crt_stdio_output::output_processor<char,__crt_stdio_output::string_output_adapter<char>,__crt_stdio_output::standard_base<char,__crt_stdio_output::string_output_adapter<char> > >::unset_flag(const unsigned int)
FUNC 35284 6 0 __crt_stdio_output::output_processor<wchar_t,__crt_stdio_output::stream_output_adapter<wchar_t>,__crt_stdio_output::format_validation_base<wchar_t,__crt_stdio_output::stream_output_adapter<wchar_t> > >::unset_flag(const unsigned int)
FUNC 3528c 6 0 __crt_stdio_output::output_processor<wchar_t,__crt_stdio_output::stream_output_adapter<wchar_t>,__crt_stdio_output::positional_parameter_base<wchar_t,__crt_stdio_output::stream_output_adapter<wchar_t> > >::unset_flag(const unsigned int)
FUNC 35294 6 0 __crt_stdio_output::output_processor<wchar_t,__crt_stdio_output::stream_output_adapter<wchar_t>,__crt_stdio_output::standard_base<wchar_t,__crt_stdio_output::stream_output_adapter<wchar_t> > >::unset_flag(const unsigned int)
FUNC 3529c 6 0 __crt_stdio_output::output_processor<wchar_t,__crt_stdio_output::string_output_adapter<wchar_t>,__crt_stdio_output::format_validation_base<wchar_t,__crt_stdio_output::string_output_adapter<wchar_t> > >::unset_flag(const unsigned int)
FUNC 352a4 6 0 __crt_stdio_output::output_processor<wchar_t,__crt_stdio_output::string_output_adapter<wchar_t>,__crt_stdio_output::positional_parameter_base<wchar_t,__crt_stdio_output::string_output_adapter<wchar_t> > >::unset_flag(const unsigned int)
FUNC 352ac 6 0 __crt_stdio_output::output_processor<wchar_t,__crt_stdio_output::string_output_adapter<wchar_t>,__crt_stdio_output::standard_base<wchar_t,__crt_stdio_output::string_output_adapter<wchar_t> > >::unset_flag(const unsigned int)
FUNC 352b4 115 0 __crt_stdio_output::positional_parameter_base<char,__crt_stdio_output::stream_output_adapter<char> >::update_field_width()
FUNC 35410 115 0 __crt_stdio_output::positional_parameter_base<char,__crt_stdio_output::string_output_adapter<char> >::update_field_width()
FUNC 3556c 118 0 __crt_stdio_output::positional_parameter_base<wchar_t,__crt_stdio_output::stream_output_adapter<wchar_t> >::update_field_width()
FUNC 356cc 118 0 __crt_stdio_output::positional_parameter_base<wchar_t,__crt_stdio_output::string_output_adapter<wchar_t> >::update_field_width()
FUNC 3582c 12 0 __crt_stdio_output::standard_base<char,__crt_stdio_output::stream_output_adapter<char> >::update_field_width()
FUNC 35844 12 0 __crt_stdio_output::standard_base<char,__crt_stdio_output::string_output_adapter<char> >::update_field_width()
FUNC 3585c 12 0 __crt_stdio_output::standard_base<wchar_t,__crt_stdio_output::stream_output_adapter<wchar_t> >::update_field_width()
FUNC 35874 12 0 __crt_stdio_output::standard_base<wchar_t,__crt_stdio_output::string_output_adapter<wchar_t> >::update_field_width()
FUNC 3588c 115 0 __crt_stdio_output::positional_parameter_base<char,__crt_stdio_output::stream_output_adapter<char> >::update_precision()
FUNC 359e8 115 0 __crt_stdio_output::positional_parameter_base<char,__crt_stdio_output::string_output_adapter<char> >::update_precision()
FUNC 35b44 118 0 __crt_stdio_output::positional_parameter_base<wchar_t,__crt_stdio_output::stream_output_adapter<wchar_t> >::update_precision()
FUNC 35ca4 118 0 __crt_stdio_output::positional_parameter_base<wchar_t,__crt_stdio_output::string_output_adapter<wchar_t> >::update_precision()
FUNC 35e04 12 0 __crt_stdio_output::standard_base<char,__crt_stdio_output::stream_output_adapter<char> >::update_precision()
FUNC 35e1c 12 0 __crt_stdio_output::standard_base<char,__crt_stdio_output::string_output_adapter<char> >::update_precision()
FUNC 35e34 12 0 __crt_stdio_output::standard_base<wchar_t,__crt_stdio_output::stream_output_adapter<wchar_t> >::update_precision()
FUNC 35e4c 12 0 __crt_stdio_output::standard_base<wchar_t,__crt_stdio_output::string_output_adapter<wchar_t> >::update_precision()
FUNC 35e64 8 0 __crt_stdio_stream::valid() const
FUNC 35e70 2c 0 __crt_stdio_output::stream_output_adapter<char>::validate() const
FUNC 35ea8 25 0 __crt_stdio_output::stream_output_adapter<wchar_t>::validate() const
FUNC 35ed8 25 0 __crt_stdio_output::string_output_adapter<char>::validate() const
FUNC 35f08 25 0 __crt_stdio_output::string_output_adapter<wchar_t>::validate() const
FUNC 35f38 3f 0 __crt_stdio_output::positional_parameter_base<char,__crt_stdio_output::stream_output_adapter<char> >::validate_and_store_parameter_data(__crt_stdio_output::positional_parameter_base<char,__crt_stdio_output::stream_output_adapter<char> >::parameter_data&, const __crt_stdio_output::positional_parameter_base<char,__crt_stdio_output::stream_output_adapter<char> >::parameter_type, const char, const __crt_stdio_output::length_modifier)
FUNC 35f88 3f 0 __crt_stdio_output::positional_parameter_base<char,__crt_stdio_output::string_output_adapter<char> >::validate_and_store_parameter_data(__crt_stdio_output::positional_parameter_base<char,__crt_stdio_output::string_output_adapter<char> >::parameter_data&, const __crt_stdio_output::positional_parameter_base<char,__crt_stdio_output::string_output_adapter<char> >::parameter_type, const char, const __crt_stdio_output::length_modifier)
FUNC 35fd8 40 0 __crt_stdio_output::positional_parameter_base<wchar_t,__crt_stdio_output::stream_output_adapter<wchar_t> >::validate_and_store_parameter_data(__crt_stdio_output::positional_parameter_base<wchar_t,__crt_stdio_output::stream_output_adapter<wchar_t> >::parameter_data&, const __crt_stdio_output::positional_parameter_base<wchar_t,__crt_stdio_output::stream_output_adapter<wchar_t> >::parameter_type, const wchar_t, const __crt_stdio_output::length_modifier)
FUNC 36028 40 0 __crt_stdio_output::positional_parameter_base<wchar_t,__crt_stdio_output::string_output_adapter<wchar_t> >::validate_and_store_parameter_data(__crt_stdio_output::positional_parameter_base<wchar_t,__crt_stdio_output::string_output_adapter<wchar_t> >::parameter_data&, const __crt_stdio_output::positional_parameter_base<wchar_t,__crt_stdio_output::string_output_adapter<wchar_t> >::parameter_type, const wchar_t, const __crt_stdio_output::length_modifier)
FUNC 36078 10b 0 __crt_stdio_output::positional_parameter_base<char,__crt_stdio_output::stream_output_adapter<char> >::validate_and_update_state_at_beginning_of_format_character()
FUNC 361c8 10b 0 __crt_stdio_output::positional_parameter_base<char,__crt_stdio_output::string_output_adapter<char> >::validate_and_update_state_at_beginning_of_format_character()
FUNC 36318 114 0 __crt_stdio_output::positional_parameter_base<wchar_t,__crt_stdio_output::stream_output_adapter<wchar_t> >::validate_and_update_state_at_beginning_of_format_character()
FUNC 36474 114 0 __crt_stdio_output::positional_parameter_base<wchar_t,__crt_stdio_output::string_output_adapter<wchar_t> >::validate_and_update_state_at_beginning_of_format_character()
FUNC 365d0 3 0 __crt_stdio_output::standard_base<char,__crt_stdio_output::stream_output_adapter<char> >::validate_and_update_state_at_beginning_of_format_character()
FUNC 365d4 3 0 __crt_stdio_output::standard_base<char,__crt_stdio_output::string_output_adapter<char> >::validate_and_update_state_at_beginning_of_format_character()
FUNC 365d8 3 0 __crt_stdio_output::standard_base<wchar_t,__crt_stdio_output::stream_output_adapter<wchar_t> >::validate_and_update_state_at_beginning_of_format_character()
FUNC 365dc 3 0 __crt_stdio_output::standard_base<wchar_t,__crt_stdio_output::string_output_adapter<wchar_t> >::validate_and_update_state_at_beginning_of_format_character()
FUNC 365e0 2b 0 __crt_stdio_output::format_validation_base<char,__crt_stdio_output::stream_output_adapter<char> >::validate_and_update_state_at_end_of_format_string() const
FUNC 36618 2b 0 __crt_stdio_output::format_validation_base<char,__crt_stdio_output::string_output_adapter<char> >::validate_and_update_state_at_end_of_format_string() const
FUNC 36650 2b 0 __crt_stdio_output::format_validation_base<wchar_t,__crt_stdio_output::stream_output_adapter<wchar_t> >::validate_and_update_state_at_end_of_format_string() const
FUNC 36688 2b 0 __crt_stdio_output::format_validation_base<wchar_t,__crt_stdio_output::string_output_adapter<wchar_t> >::validate_and_update_state_at_end_of_format_string() const
FUNC 366c0 9b 0 __crt_stdio_output::positional_parameter_base<char,__crt_stdio_output::stream_output_adapter<char> >::validate_and_update_state_at_end_of_format_string()
FUNC 36784 9b 0 __crt_stdio_output::positional_parameter_base<char,__crt_stdio_output::string_output_adapter<char> >::validate_and_update_state_at_end_of_format_string()
FUNC 36848 9b 0 __crt_stdio_output::positional_parameter_base<wchar_t,__crt_stdio_output::stream_output_adapter<wchar_t> >::validate_and_update_state_at_end_of_format_string()
FUNC 3690c 9b 0 __crt_stdio_output::positional_parameter_base<wchar_t,__crt_stdio_output::string_output_adapter<wchar_t> >::validate_and_update_state_at_end_of_format_string()
FUNC 369d0 3 0 __crt_stdio_output::standard_base<char,__crt_stdio_output::stream_output_adapter<char> >::validate_and_update_state_at_end_of_format_string() const
FUNC 369d4 3 0 __crt_stdio_output::standard_base<char,__crt_stdio_output::string_output_adapter<char> >::validate_and_update_state_at_end_of_format_string() const
FUNC 369d8 3 0 __crt_stdio_output::standard_base<wchar_t,__crt_stdio_output::stream_output_adapter<wchar_t> >::validate_and_update_state_at_end_of_format_string() const
FUNC 369dc 3 0 __crt_stdio_output::standard_base<wchar_t,__crt_stdio_output::string_output_adapter<wchar_t> >::validate_and_update_state_at_end_of_format_string() const
FUNC 369e0 9b 0 __crt_stdio_output::positional_parameter_base<char,__crt_stdio_output::stream_output_adapter<char> >::validate_state_for_type_case_a()
FUNC 36aa4 9b 0 __crt_stdio_output::positional_parameter_base<char,__crt_stdio_output::string_output_adapter<char> >::validate_state_for_type_case_a()
FUNC 36b68 9d 0 __crt_stdio_output::positional_parameter_base<wchar_t,__crt_stdio_output::stream_output_adapter<wchar_t> >::validate_state_for_type_case_a()
FUNC 36c2c 9d 0 __crt_stdio_output::positional_parameter_base<wchar_t,__crt_stdio_output::string_output_adapter<wchar_t> >::validate_state_for_type_case_a()
FUNC 36cf0 3 0 __crt_stdio_output::standard_base<char,__crt_stdio_output::stream_output_adapter<char> >::validate_state_for_type_case_a() const
FUNC 36cf4 3 0 __crt_stdio_output::standard_base<char,__crt_stdio_output::string_output_adapter<char> >::validate_state_for_type_case_a() const
FUNC 36cf8 3 0 __crt_stdio_output::standard_base<wchar_t,__crt_stdio_output::stream_output_adapter<wchar_t> >::validate_state_for_type_case_a() const
FUNC 36cfc 3 0 __crt_stdio_output::standard_base<wchar_t,__crt_stdio_output::string_output_adapter<wchar_t> >::validate_state_for_type_case_a() const
FUNC 36d00 9a 0 static __acrt_stdio_char_traits<char>::validate_stream_is_ansi_if_required(_iobuf* const)
FUNC 36dc0 3 0 static __acrt_stdio_char_traits<wchar_t>::validate_stream_is_ansi_if_required(_iobuf* const)
FUNC 36dc4 8 0 static __crt_stdio_output::output_processor<char,__crt_stdio_output::stream_output_adapter<char>,__crt_stdio_output::format_validation_base<char,__crt_stdio_output::stream_output_adapter<char> > >::wide_null_string()
FUNC 36dd0 8 0 static __crt_stdio_output::output_processor<char,__crt_stdio_output::stream_output_adapter<char>,__crt_stdio_output::positional_parameter_base<char,__crt_stdio_output::stream_output_adapter<char> > >::wide_null_string()
FUNC 36ddc 8 0 static __crt_stdio_output::output_processor<char,__crt_stdio_output::stream_output_adapter<char>,__crt_stdio_output::standard_base<char,__crt_stdio_output::stream_output_adapter<char> > >::wide_null_string()
FUNC 36de8 8 0 static __crt_stdio_output::output_processor<char,__crt_stdio_output::string_output_adapter<char>,__crt_stdio_output::format_validation_base<char,__crt_stdio_output::string_output_adapter<char> > >::wide_null_string()
FUNC 36df4 8 0 static __crt_stdio_output::output_processor<char,__crt_stdio_output::string_output_adapter<char>,__crt_stdio_output::positional_parameter_base<char,__crt_stdio_output::string_output_adapter<char> > >::wide_null_string()
FUNC 36e00 8 0 static __crt_stdio_output::output_processor<char,__crt_stdio_output::string_output_adapter<char>,__crt_stdio_output::standard_base<char,__crt_stdio_output::string_output_adapter<char> > >::wide_null_string()
FUNC 36e0c 8 0 static __crt_stdio_output::output_processor<wchar_t,__crt_stdio_output::stream_output_adapter<wchar_t>,__crt_stdio_output::format_validation_base<wchar_t,__crt_stdio_output::stream_output_adapter<wchar_t> > >::wide_null_string()
FUNC 36e18 8 0 static __crt_stdio_output::output_processor<wchar_t,__crt_stdio_output::stream_output_adapter<wchar_t>,__crt_stdio_output::positional_parameter_base<wchar_t,__crt_stdio_output::stream_output_adapter<wchar_t> > >::wide_null_string()
FUNC 36e24 8 0 static __crt_stdio_output::output_processor<wchar_t,__crt_stdio_output::stream_output_adapter<wchar_t>,__crt_stdio_output::standard_base<wchar_t,__crt_stdio_output::stream_output_adapter<wchar_t> > >::wide_null_string()
FUNC 36e30 8 0 static __crt_stdio_output::output_processor<wchar_t,__crt_stdio_output::string_output_adapter<wchar_t>,__crt_stdio_output::format_validation_base<wchar_t,__crt_stdio_output::string_output_adapter<wchar_t> > >::wide_null_string()
FUNC 36e3c 8 0 static __crt_stdio_output::output_processor<wchar_t,__crt_stdio_output::string_output_adapter<wchar_t>,__crt_stdio_output::positional_parameter_base<wchar_t,__crt_stdio_output::string_output_adapter<wchar_t> > >::wide_null_string()
FUNC 36e48 8 0 static __crt_stdio_output::output_processor<wchar_t,__crt_stdio_output::string_output_adapter<wchar_t>,__crt_stdio_output::standard_base<wchar_t,__crt_stdio_output::string_output_adapter<wchar_t> > >::wide_null_string()
FUNC 36e54 48 0 __crt_stdio_output::output_adapter_common<char,__crt_stdio_output::stream_output_adapter<char> >::write_character(const char, int* const) const
FUNC 36eb0 4b 0 __crt_stdio_output::output_adapter_common<wchar_t,__crt_stdio_output::stream_output_adapter<wchar_t> >::write_character(const wchar_t, int* const) const
FUNC 36f10 45 0 __crt_stdio_output::string_output_adapter<char>::write_character(const char, int* const) const
FUNC 36f68 48 0 __crt_stdio_output::string_output_adapter<wchar_t>::write_character(const wchar_t, int* const) const
FUNC 36fc4 40 0 __crt_stdio_output::stream_output_adapter<char>::write_character_without_count_update(const char) const
FUNC 37014 43 0 __crt_stdio_output::stream_output_adapter<wchar_t>::write_character_without_count_update(const wchar_t) const
FUNC 37068 121 0 __crt_stdio_output::output_processor<char,__crt_stdio_output::stream_output_adapter<char>,__crt_stdio_output::format_validation_base<char,__crt_stdio_output::stream_output_adapter<char> > >::write_stored_string_tchar(char)
FUNC 371d4 121 0 __crt_stdio_output::output_processor<char,__crt_stdio_output::stream_output_adapter<char>,__crt_stdio_output::positional_parameter_base<char,__crt_stdio_output::stream_output_adapter<char> > >::write_stored_string_tchar(char)
FUNC 37340 121 0 __crt_stdio_output::output_processor<char,__crt_stdio_output::stream_output_adapter<char>,__crt_stdio_output::standard_base<char,__crt_stdio_output::stream_output_adapter<char> > >::write_stored_string_tchar(char)
FUNC 374ac d5 0 __crt_stdio_output::output_processor<char,__crt_stdio_output::string_output_adapter<char>,__crt_stdio_output::format_validation_base<char,__crt_stdio_output::string_output_adapter<char> > >::write_stored_string_tchar(char)
FUNC 375b8 d5 0 __crt_stdio_output::output_processor<char,__crt_stdio_output::string_output_adapter<char>,__crt_stdio_output::positional_parameter_base<char,__crt_stdio_output::string_output_adapter<char> > >::write_stored_string_tchar(char)
FUNC 376c4 d5 0 __crt_stdio_output::output_processor<char,__crt_stdio_output::string_output_adapter<char>,__crt_stdio_output::standard_base<char,__crt_stdio_output::string_output_adapter<char> > >::write_stored_string_tchar(char)
FUNC 377d0 106 0 __crt_stdio_output::output_processor<wchar_t,__crt_stdio_output::stream_output_adapter<wchar_t>,__crt_stdio_output::format_validation_base<wchar_t,__crt_stdio_output::stream_output_adapter<wchar_t> > >::write_stored_string_tchar(wchar_t)
FUNC 37918 106 0 __crt_stdio_output::output_processor<wchar_t,__crt_stdio_output::stream_output_adapter<wchar_t>,__crt_stdio_output::positional_parameter_base<wchar_t,__crt_stdio_output::stream_output_adapter<wchar_t> > >::write_stored_string_tchar(wchar_t)
FUNC 37a60 106 0 __crt_stdio_output::output_processor<wchar_t,__crt_stdio_output::stream_output_adapter<wchar_t>,__crt_stdio_output::standard_base<wchar_t,__crt_stdio_output::stream_output_adapter<wchar_t> > >::write_stored_string_tchar(wchar_t)
FUNC 37ba8 eb 0 __crt_stdio_output::output_processor<wchar_t,__crt_stdio_output::string_output_adapter<wchar_t>,__crt_stdio_output::format_validation_base<wchar_t,__crt_stdio_output::string_output_adapter<wchar_t> > >::write_stored_string_tchar(wchar_t)
FUNC 37cd0 eb 0 __crt_stdio_output::output_processor<wchar_t,__crt_stdio_output::string_output_adapter<wchar_t>,__crt_stdio_output::positional_parameter_base<wchar_t,__crt_stdio_output::string_output_adapter<wchar_t> > >::write_stored_string_tchar(wchar_t)
FUNC 37df8 eb 0 __crt_stdio_output::output_processor<wchar_t,__crt_stdio_output::string_output_adapter<wchar_t>,__crt_stdio_output::standard_base<wchar_t,__crt_stdio_output::string_output_adapter<wchar_t> > >::write_stored_string_tchar(wchar_t)
FUNC 37f20 24 0 __crt_stdio_output::stream_output_adapter<char>::write_string(char const* const, const int, int* const, __crt_deferred_errno_cache&) const
FUNC 37f50 24 0 __crt_stdio_output::stream_output_adapter<wchar_t>::write_string(wchar_t const* const, const int, int* const, __crt_deferred_errno_cache&) const
FUNC 37f80 a3 0 __crt_stdio_output::string_output_adapter<char>::write_string(char const* const, const int, int* const, __crt_deferred_errno_cache&) const
FUNC 3804c a5 0 __crt_stdio_output::string_output_adapter<wchar_t>::write_string(wchar_t const* const, const int, int* const, __crt_deferred_errno_cache&) const
FUNC 3811c f5 0 __crt_stdio_output::output_adapter_common<char,__crt_stdio_output::stream_output_adapter<char> >::write_string_impl(char const* const, const int, int* const, __crt_deferred_errno_cache&) const
FUNC 38250 103 0 __crt_stdio_output::output_adapter_common<wchar_t,__crt_stdio_output::stream_output_adapter<wchar_t> >::write_string_impl(wchar_t const* const, const int, int* const, __crt_deferred_errno_cache&) const
FUNC 38394 21 0 _acrt_isleadbyte_l_noupdate(const int, __crt_locale_pointers* const)
FUNC 383c0 b 0 _acrt_locale_changed()
FUNC 383d0 18 0 _acrt_locale_get_ctype_array_value(unsigned short const* const, const int, const int)
FUNC 383f0 8b 0 _stdio_common_vfprintf(unsigned long long, _iobuf*, char const*, __crt_locale_pointers*, char*)
FUNC 384a0 8b 0 _stdio_common_vfprintf_p(unsigned long long, _iobuf*, char const*, __crt_locale_pointers*, char*)
FUNC 38550 8b 0 _stdio_common_vfprintf_s(unsigned long long, _iobuf*, char const*, __crt_locale_pointers*, char*)
FUNC 38600 8b 0 _stdio_common_vfwprintf(unsigned long long, _iobuf*, wchar_t const*, __crt_locale_pointers*, char*)
FUNC 386b0 8b 0 _stdio_common_vfwprintf_p(unsigned long long, _iobuf*, wchar_t const*, __crt_locale_pointers*, char*)
FUNC 38760 8b 0 _stdio_common_vfwprintf_s(unsigned long long, _iobuf*, wchar_t const*, __crt_locale_pointers*, char*)
FUNC 38810 134 0 _stdio_common_vsnprintf_s(unsigned long long, char*, unsigned long long, unsigned long long, char const*, __crt_locale_pointers*, char*)
FUNC 38994 143 0 _stdio_common_vsnwprintf_s(unsigned long long, wchar_t*, unsigned long long, unsigned long long, wchar_t const*, __crt_locale_pointers*, char*)
FUNC 38b28 5 0 _stdio_common_vsprintf(unsigned long long, char*, unsigned long long, char const*, __crt_locale_pointers*, char*)
FUNC 38b30 5 0 _stdio_common_vsprintf_p(unsigned long long, char*, unsigned long long, char const*, __crt_locale_pointers*, char*)
FUNC 38b38 63 0 _stdio_common_vsprintf_s(unsigned long long, char*, unsigned long long, char const*, __crt_locale_pointers*, char*)
FUNC 38bb4 5 0 _stdio_common_vswprintf(unsigned long long, wchar_t*, unsigned long long, wchar_t const*, __crt_locale_pointers*, char*)
FUNC 38bbc 5 0 _stdio_common_vswprintf_p(unsigned long long, wchar_t*, unsigned long long, wchar_t const*, __crt_locale_pointers*, char*)
FUNC 38bc4 6e 0 _stdio_common_vswprintf_s(unsigned long long, wchar_t*, unsigned long long, wchar_t const*, __crt_locale_pointers*, char*)
FUNC 38c50 8 0 __crt_internal_free_policy::operator()<__crt_stdio_stream_data * __ptr64>(__crt_stdio_stream_data* const* const) const
FUNC 38c5c 7 0 __crt_unique_heap_ptr<__crt_stdio_stream_data * __ptr64,__crt_internal_free_policy>::__crt_unique_heap_ptr<__crt_stdio_stream_data * __ptr64,__crt_internal_free_policy>(__crt_stdio_stream_data** const)
FUNC 38c64 1b 0 __crt_unique_heap_ptr<__crt_stdio_stream_data * __ptr64,__crt_internal_free_policy>::~__crt_unique_heap_ptr<__crt_stdio_stream_data * __ptr64,__crt_internal_free_policy>()
FUNC 38c88 8 0 __crt_unique_heap_ptr<__crt_stdio_stream_data * __ptr64,__crt_internal_free_policy>::detach()
FUNC 38c94 1b 0 __crt_unique_heap_ptr<__crt_stdio_stream_data * __ptr64,__crt_internal_free_policy>::release()
FUNC 38cb8 11f 0 _acrt_initialize_stdio()
FUNC 38e20 11 0 _acrt_iob_func(unsigned int)
FUNC 38e38 5b 0 _acrt_uninitialize_stdio()
FUNC 38eac 47 0 get_stream_buffer_pointers(_iobuf*, char***, char***, int**)
FUNC 38f04 b 0 lock_file(_iobuf*)
FUNC 38f14 b 0 unlock_file(_iobuf*)
FUNC 38f24 1d 0 xcptlookup(const unsigned long, __crt_signal_action_t* const)
FUNC 38f48 13 0 seh_filter_dll(unsigned long, _EXCEPTION_POINTERS*)
FUNC 38f60 182 0 seh_filter_exe(unsigned long, _EXCEPTION_POINTERS*)
FUNC 39144 3 0 issue_debug_notification(wchar_t const* const)
FUNC 39148 2b 0 should_write_error_to_console()
FUNC 39180 a7 0 write_string_to_console(wchar_t const* const)
FUNC 39250 15d 0 _acrt_report_runtime_error(wchar_t const*)
FUNC 39404 31 0 invoke_watson_if_error(int, wchar_t const*, wchar_t const*, wchar_t const*, unsigned int, unsigned long long)
FUNC 39444 7 0 query_app_type()
FUNC 3944c 7 0 set_app_type(_crt_app_type)
FUNC 39454 16 0 __crt_fast_decode_pointer<int (__cdecl*)(_exception * __ptr64)>(int (* const)(_exception*))
FUNC 39470 1e 0 __crt_fast_encode_pointer<int (__cdecl*)(_exception * __ptr64)>(int (* const)(_exception*))
FUNC 39498 3 0 __crt_state_management::get_current_state_index()
FUNC 3949c 27 0 __crt_state_management::dual_state_global<int (__cdecl*)(_exception * __ptr64)>::initialize(int (* const)(_exception*))
FUNC 394cc 4 0 __crt_state_management::dual_state_global<int (__cdecl*)(_exception * __ptr64)>::value()
FUNC 394d0 1d 0 _acrt_has_user_matherr()
FUNC 394f4 8 0 _acrt_initialize_user_matherr(void*)
FUNC 39500 2e 0 _acrt_invoke_user_matherr(_exception*)
FUNC 3953c 25 0 _setusermatherr(int (*)(_exception*))
FUNC 3956c 8 0 __crt_internal_free_policy::operator()<unsigned char>(unsigned char const* const) const
FUNC 39578 8 0 __crt_internal_free_policy::operator()<char * __ptr64>(char* const* const) const
FUNC 39584 8 0 __crt_internal_free_policy::operator()<wchar_t * __ptr64>(wchar_t* const* const) const
FUNC 39590 175 0 common_configure_argv<char>(const _crt_argv_mode)
FUNC 39764 171 0 common_configure_argv<wchar_t>(const _crt_argv_mode)
FUNC 39934 b 0 static __crt_char_traits<char>::get_module_file_name<std::nullptr_t,char (& __ptr64)[261],int>(void*&&, char[261]&, int&&)
FUNC 39944 d 0 static __crt_char_traits<wchar_t>::get_module_file_name<std::nullptr_t,wchar_t (& __ptr64)[261],int>(void*&&, wchar_t[261]&, int&&)
FUNC 39954 1c3 0 parse_command_line<char>(char*, char**, char*, unsigned long long*, unsigned long long*)
FUNC 39b88 1a2 0 parse_command_line<wchar_t>(wchar_t*, wchar_t**, wchar_t*, unsigned long long*, unsigned long long*)
FUNC 39d94 b 0 static __crt_char_traits<char>::set_program_name<char * __ptr64>(char*&&)
FUNC 39da4 b 0 static __crt_char_traits<wchar_t>::set_program_name<wchar_t * __ptr64>(wchar_t*&&)
FUNC 39db4 7 0 <lambda_a36aafc41185bea294aaaa3896c79ecc>::<lambda_a36aafc41185bea294aaaa3896c79ecc>(__crt_unique_heap_ptr<wchar_t *,__crt_internal_free_policy>&)
FUNC 39dbc 7 0 <lambda_df1553121bfa390f1154bd84936f2730>::<lambda_df1553121bfa390f1154bd84936f2730>(__crt_unique_heap_ptr<char *,__crt_internal_free_policy>&)
FUNC 39dc4 7 0 __crt_unique_heap_ptr<unsigned char,__crt_internal_free_policy>::__crt_unique_heap_ptr<unsigned char,__crt_internal_free_policy>(unsigned char* const)
FUNC 39dcc 7 0 __crt_unique_heap_ptr<char * __ptr64,__crt_internal_free_policy>::__crt_unique_heap_ptr<char * __ptr64,__crt_internal_free_policy>(char** const)
FUNC 39dd4 7 0 __crt_unique_heap_ptr<wchar_t * __ptr64,__crt_internal_free_policy>::__crt_unique_heap_ptr<wchar_t * __ptr64,__crt_internal_free_policy>(wchar_t** const)
FUNC 39ddc 1b 0 __crt_unique_heap_ptr<unsigned char,__crt_internal_free_policy>::~__crt_unique_heap_ptr<unsigned char,__crt_internal_free_policy>()
FUNC 39e00 1b 0 __crt_unique_heap_ptr<char * __ptr64,__crt_internal_free_policy>::~__crt_unique_heap_ptr<char * __ptr64,__crt_internal_free_policy>()
FUNC 39e24 1b 0 __crt_unique_heap_ptr<wchar_t * __ptr64,__crt_internal_free_policy>::~__crt_unique_heap_ptr<wchar_t * __ptr64,__crt_internal_free_policy>()
FUNC 39e48 8 0 __crt_unique_heap_ptr<unsigned char,__crt_internal_free_policy>::operator bool() const
FUNC 39e54 1b 0 <lambda_a36aafc41185bea294aaaa3896c79ecc>::operator()() const
FUNC 39e78 1b 0 <lambda_df1553121bfa390f1154bd84936f2730>::operator()() const
FUNC 39e9c 8 0 __crt_unique_heap_ptr<unsigned char,__crt_internal_free_policy>::detach()
FUNC 39ea8 8 0 __crt_unique_heap_ptr<char * __ptr64,__crt_internal_free_policy>::detach()
FUNC 39eb4 8 0 __crt_unique_heap_ptr<wchar_t * __ptr64,__crt_internal_free_policy>::detach()
FUNC 39ec0 5 0 do_locale_initialization(char)
FUNC 39ec8 3 0 do_locale_initialization(wchar_t)
FUNC 39ecc 5 0 expand_argv_wildcards(char** const, char*** const)
FUNC 39ed4 5 0 expand_argv_wildcards(wchar_t** const, wchar_t*** const)
FUNC 39edc 4 0 __crt_unique_heap_ptr<unsigned char,__crt_internal_free_policy>::get() const
FUNC 39ee0 4 0 __crt_unique_heap_ptr<char * __ptr64,__crt_internal_free_policy>::get() const
FUNC 39ee4 4 0 __crt_unique_heap_ptr<wchar_t * __ptr64,__crt_internal_free_policy>::get() const
FUNC 39ee8 4 0 __crt_unique_heap_ptr<char * __ptr64,__crt_internal_free_policy>::get_address_of()
FUNC 39eec 4 0 __crt_unique_heap_ptr<wchar_t * __ptr64,__crt_internal_free_policy>::get_address_of()
FUNC 39ef0 8 0 get_argv(char)
FUNC 39efc 8 0 get_argv(wchar_t)
FUNC 39f08 8 0 get_command_line(char)
FUNC 39f14 8 0 get_command_line(wchar_t)
FUNC 39f20 8 0 __crt_unique_heap_ptr<unsigned char,__crt_internal_free_policy>::is_valid() const
FUNC 39f2c 1b 0 __crt_unique_heap_ptr<unsigned char,__crt_internal_free_policy>::release()
FUNC 39f50 1b 0 __crt_unique_heap_ptr<char * __ptr64,__crt_internal_free_policy>::release()
FUNC 39f74 1b 0 __crt_unique_heap_ptr<wchar_t * __ptr64,__crt_internal_free_policy>::release()
FUNC 39f98 16 0 should_copy_another_character(const char)
FUNC 39fb4 3 0 should_copy_another_character(wchar_t)
FUNC 39fb8 5d 0 _acrt_allocate_buffer_for_argv(unsigned long long, unsigned long long, unsigned long long)
FUNC 3a02c 186 0 configure_narrow_argv(_crt_argv_mode)
FUNC 3a214 182 0 configure_wide_argv(_crt_argv_mode)
FUNC 3a3f8 8 0 set_pgmptr(char*)
FUNC 3a404 8 0 set_wpgmptr(wchar_t*)
FUNC 3a410 8 0 __crt_internal_free_policy::operator()<wchar_t>(wchar_t const* const) const
FUNC 3a41c 4e 0 common_get_initial_environment<char>()
FUNC 3a480 4e 0 common_get_initial_environment<wchar_t>()
FUNC 3a4e4 3b 0 common_get_or_create_environment_nolock<char>()
FUNC 3a530 3b 0 common_get_or_create_environment_nolock<wchar_t>()
FUNC 3a57c 6c 0 common_initialize_environment_nolock<char>()
FUNC 3a604 67 0 common_initialize_environment_nolock<wchar_t>()
FUNC 3a684 32 0 count_variables_in_environment_block<char>(char* const)
FUNC 3a6c4 3c 0 count_variables_in_environment_block<wchar_t>(wchar_t* const)
FUNC 3a710 106 0 create_environment<char>(char* const)
FUNC 3a858 113 0 create_environment<wchar_t>(wchar_t* const)
FUNC 3a9b0 41 0 free_environment<char>(char** const)
FUNC 3aa04 41 0 free_environment<wchar_t>(wchar_t** const)
FUNC 3aa58 5 0 static __crt_char_traits<char>::get_environment_from_os<>()
FUNC 3aa60 5 0 static __crt_char_traits<wchar_t>::get_environment_from_os<>()
FUNC 3aa68 d1 0 initialize_environment_by_cloning_nolock<char>()
FUNC 3ab70 b1 0 initialize_environment_by_cloning_nolock<wchar_t>()
FUNC 3ac50 a 0 static __crt_char_traits<char>::set_variable_in_environment_nolock<char * __ptr64,int>(char*&&, int&&)
FUNC 3ac5c a 0 static __crt_char_traits<wchar_t>::set_variable_in_environment_nolock<wchar_t * __ptr64,int>(wchar_t*&&, int&&)
FUNC 3ac68 e 0 static __crt_char_traits<char>::tcscpy_s<char * __ptr64,unsigned __int64 const & __ptr64,char * __ptr64 & __ptr64>(char*&&, unsigned long long const&, char*&)
FUNC 3ac7c e 0 static __crt_char_traits<wchar_t>::tcscpy_s<wchar_t * __ptr64,unsigned __int64 const & __ptr64,wchar_t * __ptr64 & __ptr64>(wchar_t*&&, unsigned long long const&, wchar_t*&)
FUNC 3ac90 11 0 static __crt_char_traits<char>::tcslen<char * __ptr64 & __ptr64>(char*&)
FUNC 3aca8 12 0 static __crt_char_traits<wchar_t>::tcslen<wchar_t * __ptr64 & __ptr64>(wchar_t*&)
FUNC 3acc0 43 0 __crt_state_management::dual_state_global<char * __ptr64 * __ptr64>::uninitialize<void (__cdecl&)(char * __ptr64 * __ptr64 & __ptr64)>(void (&)(char**&))
FUNC 3ad14 43 0 __crt_state_management::dual_state_global<wchar_t * __ptr64 * __ptr64>::uninitialize<void (__cdecl&)(wchar_t * __ptr64 * __ptr64 & __ptr64)>(void (&)(wchar_t**&))
FUNC 3ad68 1a 0 uninitialize_environment_internal<char>(char**&)
FUNC 3ad88 1a 0 uninitialize_environment_internal<wchar_t>(wchar_t**&)
FUNC 3ada8 7 0 __crt_unique_heap_ptr<wchar_t,__crt_internal_free_policy>::__crt_unique_heap_ptr<wchar_t,__crt_internal_free_policy>(wchar_t* const)
FUNC 3adb0 1b 0 __crt_unique_heap_ptr<wchar_t,__crt_internal_free_policy>::~__crt_unique_heap_ptr<wchar_t,__crt_internal_free_policy>()
FUNC 3add4 8 0 __crt_unique_heap_ptr<char * __ptr64,__crt_internal_free_policy>::operator bool() const
FUNC 3ade0 8 0 __crt_unique_heap_ptr<wchar_t * __ptr64,__crt_internal_free_policy>::operator bool() const
FUNC 3adec 8 0 __crt_unique_heap_ptr<wchar_t,__crt_internal_free_policy>::operator bool() const
FUNC 3adf8 24 0 __crt_compute_required_transform_buffer_count(const unsigned int, char const* const)
FUNC 3ae28 2e 0 __crt_compute_required_transform_buffer_count(const unsigned int, wchar_t const* const)
FUNC 3ae64 23 0 __crt_transform_string(const unsigned int, char const* const, wchar_t* const, const unsigned long long)
FUNC 3ae90 2e 0 __crt_transform_string(const unsigned int, wchar_t const* const, char* const, const unsigned long long)
FUNC 3aecc 8 0 __crt_unique_heap_ptr<char,__crt_internal_free_policy>::detach()
FUNC 3aed8 8 0 __crt_unique_heap_ptr<wchar_t,__crt_internal_free_policy>::detach()
FUNC 3aee4 4 0 __crt_unique_heap_ptr<wchar_t,__crt_internal_free_policy>::get() const
FUNC 3aee8 8 0 get_dual_state_environment_nolock(char)
FUNC 3aef4 8 0 get_dual_state_environment_nolock(wchar_t)
FUNC 3af00 8 0 get_environment_nolock(char)
FUNC 3af0c 8 0 get_environment_nolock(wchar_t)
FUNC 3af18 8 0 get_initial_environment(char)
FUNC 3af24 8 0 get_initial_environment(wchar_t)
FUNC 3af30 27 0 __crt_state_management::dual_state_global<char * __ptr64 * __ptr64>::initialize(char** const)
FUNC 3af60 27 0 __crt_state_management::dual_state_global<wchar_t * __ptr64 * __ptr64>::initialize(wchar_t** const)
FUNC 3af90 8 0 __crt_unique_heap_ptr<char * __ptr64,__crt_internal_free_policy>::is_valid() const
FUNC 3af9c 8 0 __crt_unique_heap_ptr<wchar_t * __ptr64,__crt_internal_free_policy>::is_valid() const
FUNC 3afa8 8 0 __crt_unique_heap_ptr<wchar_t,__crt_internal_free_policy>::is_valid() const
FUNC 3afb4 5 0 pre_initialize(char)
FUNC 3afbc 3 0 pre_initialize(wchar_t)
FUNC 3afc0 1b 0 __crt_unique_heap_ptr<wchar_t,__crt_internal_free_policy>::release()
FUNC 3afe4 4 0 __crt_state_management::dual_state_global<char * __ptr64 * __ptr64>::value()
FUNC 3afe8 4 0 __crt_state_management::dual_state_global<wchar_t * __ptr64 * __ptr64>::value()
FUNC 3afec 3b 0 _dcrt_get_or_create_narrow_environment_nolock()
FUNC 3b038 3b 0 _dcrt_get_or_create_wide_environment_nolock()
FUNC 3b084 38 0 _dcrt_uninitialize_environments_nolock()
FUNC 3b0cc 8 0 _p__environ()
FUNC 3b0d8 8 0 _p__wenviron()
FUNC 3b0e4 4e 0 get_initial_narrow_environment()
FUNC 3b148 4e 0 get_initial_wide_environment()
FUNC 3b1ac 5 0 initialize_narrow_environment()
FUNC 3b1b4 5 0 initialize_wide_environment()
FUNC 3b1bc 64 0 initterm(void (**)(), void (**)())
FUNC 3b23c 3d 0 initterm_e(int (**)(), int (**)())
FUNC 3b288 8 0 __crt_fast_encoded_nullptr_t::operator<void __cdecl(void * __ptr64,unsigned long,void * __ptr64)> void (__cdecl*)(void * __ptr64,unsigned long,void * __ptr64)() const
FUNC 3b294 38 0 __crt_seh_guarded_call<void>::operator()<<lambda_d80eeec6fff315bfe5c115232f3240e3>,<lambda_6e4b09c48022b2350581041d5f6b0c4c> & __ptr64,<lambda_2358e3775559c9db80273638284d5e45> >(__acrt_lock_and_call::__l2::<lambda_d80eeec6fff315bfe5c115232f3240e3>&&, common_exit::__l2::<lambda_6e4b09c48022b2350581041d5f6b0c4c>&, __acrt_lock_and_call::__l2::<lambda_2358e3775559c9db80273638284d5e45>&&)
FUNC 3b2dc 26 0 __acrt_lock_and_call<<lambda_6e4b09c48022b2350581041d5f6b0c4c> >(const __acrt_lock_id, common_exit::__l2::<lambda_6e4b09c48022b2350581041d5f6b0c4c>&&)
FUNC 3b30c 16 0 __crt_fast_decode_pointer<void (__cdecl*)(void * __ptr64,unsigned long,void * __ptr64)>(void (* const)(void*, unsigned long, void*))
FUNC 3b328 1e 0 __crt_fast_encode_pointer<void (__cdecl*)(void * __ptr64,unsigned long,void * __ptr64)>(void (* const)(void*, unsigned long, void*))
FUNC 3b350 7 0 __crt_get_proc_address<void (__cdecl*)(unsigned int)>(HINSTANCE__* const, char const* const)
FUNC 3b358 8 0 <lambda_2358e3775559c9db80273638284d5e45>::<lambda_2358e3775559c9db80273638284d5e45>(__acrt_lock_id const&)
FUNC 3b364 f 0 <lambda_6e4b09c48022b2350581041d5f6b0c4c>::<lambda_6e4b09c48022b2350581041d5f6b0c4c>(_crt_exit_cleanup_mode const&, _crt_exit_return_mode const&, bool&)
FUNC 3b378 8 0 <lambda_d80eeec6fff315bfe5c115232f3240e3>::<lambda_d80eeec6fff315bfe5c115232f3240e3>(__acrt_lock_id const&)
FUNC 3b384 7 0 __crt_unique_handle_t<__crt_hmodule_traits>::__crt_unique_handle_t<__crt_hmodule_traits>(HINSTANCE__* const)
FUNC 3b38c 21 0 __crt_unique_handle_t<__crt_hmodule_traits>::~__crt_unique_handle_t<__crt_hmodule_traits>()
FUNC 3b3b8 7 0 <lambda_2358e3775559c9db80273638284d5e45>::operator()() const
FUNC 3b3c0 c1 0 <lambda_6e4b09c48022b2350581041d5f6b0c4c>::operator()() const
FUNC 3b4b4 7 0 <lambda_d80eeec6fff315bfe5c115232f3240e3>::operator()() const
FUNC 3b4bc 6 0 __acrt_select_exit_lock()
FUNC 3b4c4 c 0 atexit_exception_filter(const unsigned long)
FUNC 3b4d4 21 0 __crt_unique_handle_t<__crt_hmodule_traits>::close()
FUNC 3b500 14 0 static __crt_hmodule_traits::close(HINSTANCE__*)
FUNC 3b51c bc 0 common_exit(const int, const _crt_exit_cleanup_mode, const _crt_exit_return_mode)
FUNC 3b608 4a 0 exit_or_terminate_process(const unsigned int)
FUNC 3b664 4 0 __crt_unique_handle_t<__crt_hmodule_traits>::get() const
FUNC 3b668 4 0 __crt_unique_handle_t<__crt_hmodule_traits>::get_address_of()
FUNC 3b66c 3 0 static __crt_hmodule_traits::get_invalid_value()
FUNC 3b670 52 0 is_managed_app()
FUNC 3b6d8 30 0 should_call_terminate_process()
FUNC 3b714 5b 0 try_cor_exit_process(const unsigned int)
FUNC 3b788 c 0 Exit(int)
FUNC 3b798 8 0 _acrt_initialize_thread_local_exit_callback(void*)
FUNC 3b7a4 10 0 c_exit()
FUNC 3b7b8 d 0 cexit()
FUNC 3b7c8 c 0 exit(int)
FUNC 3b7d8 7 0 is_c_termination_complete()
FUNC 3b7e0 3c 0 register_thread_local_exe_atexit_callback(void (*)(void*, unsigned long, void*))
FUNC 3b82c a 0 exit(int)
FUNC 3b838 c 0 quick_exit(int)
FUNC 3b848 3 0 __crt_interlocked_read<int>(int const*)
FUNC 3b84c 4 0 __crt_state_management::dual_state_global<int>::value()
FUNC 3b850 2f 0 get_fmode(int*)
FUNC 3b88c 3d 0 set_fmode(int)
FUNC 3b8d8 101 0 setmode(int, int)
FUNC 3ba1c de 0 setmode_nolock(int, int)
FUNC 3bb34 25 0 _acrt_initialize_command_line()
FUNC 3bb64 3 0 _acrt_uninitialize_command_line(bool)
FUNC 3bb68 8 0 _p___argc()
FUNC 3bb74 8 0 _p___argv()
FUNC 3bb80 8 0 _p___wargv()
FUNC 3bb8c 8 0 _p__acmdln()
FUNC 3bb98 8 0 _p__pgmptr()
FUNC 3bba4 8 0 _p__wcmdln()
FUNC 3bbb0 8 0 _p__wpgmptr()
FUNC 3bbbc 36 0 get_pgmptr(char**)
FUNC 3bc00 36 0 get_wpgmptr(wchar_t**)
FUNC 3bc44 3 0 no_op_initialize(__crt_locale_data*)
FUNC 3bc48 8 0 __crt_internal_free_policy::operator()<__crt_locale_data>(__crt_locale_data const* const) const
FUNC 3bc54 8 0 __crt_internal_free_policy::operator()<__crt_locale_pointers>(__crt_locale_pointers const* const) const
FUNC 3bc60 8 0 __crt_internal_free_policy::operator()<__crt_multibyte_data>(__crt_multibyte_data const* const) const
FUNC 3bc6c 3e 0 __crt_seh_guarded_call<void>::operator()<<lambda_0a55505eb881d180377eb1fc64ffb544>,<lambda_862e9a3f04921db6ca1ce3faa2bf3edf> & __ptr64,<lambda_c91f0b5e4ab41df1063aa1a95f49bd71> >(__acrt_lock_and_call::__l2::<lambda_0a55505eb881d180377eb1fc64ffb544>&&, _get_current_locale::__l2::<lambda_862e9a3f04921db6ca1ce3faa2bf3edf>&, __acrt_lock_and_call::__l2::<lambda_c91f0b5e4ab41df1063aa1a95f49bd71>&&)
FUNC 3bcbc 13a 0 __crt_seh_guarded_call<void>::operator()<<lambda_1d892b297fdedeee07ed8124eeb2f2fa>,<lambda_ffc046909424fd52df0ac47e64813305> & __ptr64,<lambda_01a7098693036236037e7cdb9bca3d73> >(__acrt_lock_and_call::__l2::<lambda_1d892b297fdedeee07ed8124eeb2f2fa>&&, _wsetlocale::__l2::<lambda_2a444430fde8c29194d880d93eed5e8f>::()::__l5::<lambda_ffc046909424fd52df0ac47e64813305>&, __acrt_lock_and_call::__l2::<lambda_01a7098693036236037e7cdb9bca3d73>&&)
FUNC 3be44 6e 0 __crt_seh_guarded_call<void>::operator()<<lambda_410d79af7f07d98d83a3f525b3859a53>,<lambda_3e16ef9562a7dcce91392c22ab16ea36> & __ptr64,<lambda_38119f0e861e05405d8a144b9b982f0a> >(__acrt_lock_and_call::__l2::<lambda_410d79af7f07d98d83a3f525b3859a53>&&, __acrt_uninitialize_locale::__l2::<lambda_3e16ef9562a7dcce91392c22ab16ea36>&, __acrt_lock_and_call::__l2::<lambda_38119f0e861e05405d8a144b9b982f0a>&&)
FUNC 3bed0 29 0 __crt_seh_guarded_call<void>::operator()<<lambda_7f2adfce497ff2baa965cd4f576ecfd1>,<lambda_2a444430fde8c29194d880d93eed5e8f> & __ptr64,<lambda_8dff2cf36a5417162780cd64fa2883ef> & __ptr64>(__crt_call_and_cleanup::__l2::<lambda_7f2adfce497ff2baa965cd4f576ecfd1>&&, _wsetlocale::__l2::<lambda_2a444430fde8c29194d880d93eed5e8f>&, _wsetlocale::__l2::<lambda_8dff2cf36a5417162780cd64fa2883ef>&)
FUNC 3bf04 41 0 __crt_seh_guarded_call<void>::operator()<<lambda_a48fd90c2dacdd6561e44078457d03a7>,<lambda_ebab98244f73a74f49db879bf13fa982> & __ptr64,<lambda_8b3bdacfa7480f205f16cb49964db269> >(__acrt_lock_and_call::__l2::<lambda_a48fd90c2dacdd6561e44078457d03a7>&&, _get_current_locale::__l2::<lambda_ebab98244f73a74f49db879bf13fa982>&, __acrt_lock_and_call::__l2::<lambda_8b3bdacfa7480f205f16cb49964db269>&&)
FUNC 3bf58 26 0 __acrt_lock_and_call<<lambda_3e16ef9562a7dcce91392c22ab16ea36> >(const __acrt_lock_id, __acrt_uninitialize_locale::__l2::<lambda_3e16ef9562a7dcce91392c22ab16ea36>&&)
FUNC 3bf88 26 0 __acrt_lock_and_call<<lambda_862e9a3f04921db6ca1ce3faa2bf3edf> >(const __acrt_lock_id, _get_current_locale::__l2::<lambda_862e9a3f04921db6ca1ce3faa2bf3edf>&&)
FUNC 3bfb8 26 0 __acrt_lock_and_call<<lambda_ebab98244f73a74f49db879bf13fa982> >(const __acrt_lock_id, _get_current_locale::__l2::<lambda_ebab98244f73a74f49db879bf13fa982>&&)
FUNC 3bfe8 26 0 __acrt_lock_and_call<<lambda_ffc046909424fd52df0ac47e64813305> >(const __acrt_lock_id, _wsetlocale::__l2::<lambda_2a444430fde8c29194d880d93eed5e8f>::()::__l5::<lambda_ffc046909424fd52df0ac47e64813305>&&)
FUNC 3c018 15 0 __crt_call_and_cleanup<<lambda_2a444430fde8c29194d880d93eed5e8f>,<lambda_8dff2cf36a5417162780cd64fa2883ef> >(_wsetlocale::__l2::<lambda_2a444430fde8c29194d880d93eed5e8f>&&, _wsetlocale::__l2::<lambda_8dff2cf36a5417162780cd64fa2883ef>&&)
FUNC 3c034 3 0 __vcrt_va_start_verify_argument_type<int>()
FUNC 3c038 4e 0 __crt_state_management::dual_state_global<__crt_locale_data * __ptr64>::uninitialize<<lambda_363eea9039da1e8169e2d060c7fe5cbc> >(__acrt_uninitialize_locale::__l2::<lambda_3e16ef9562a7dcce91392c22ab16ea36>::()::__l2::<lambda_363eea9039da1e8169e2d060c7fe5cbc>&&)
FUNC 3c09c 8 0 <lambda_01a7098693036236037e7cdb9bca3d73>::<lambda_01a7098693036236037e7cdb9bca3d73>(__acrt_lock_id const&)
FUNC 3c0a8 8 0 <lambda_0a55505eb881d180377eb1fc64ffb544>::<lambda_0a55505eb881d180377eb1fc64ffb544>(__acrt_lock_id const&)
FUNC 3c0b4 8 0 <lambda_1d892b297fdedeee07ed8124eeb2f2fa>::<lambda_1d892b297fdedeee07ed8124eeb2f2fa>(__acrt_lock_id const&)
FUNC 3c0c0 21 0 <lambda_2a444430fde8c29194d880d93eed5e8f>::<lambda_2a444430fde8c29194d880d93eed5e8f>(__crt_locale_data*&, __acrt_ptd* const&, wchar_t*&, int&, wchar_t const*&)
FUNC 3c0ec 8 0 <lambda_38119f0e861e05405d8a144b9b982f0a>::<lambda_38119f0e861e05405d8a144b9b982f0a>(__acrt_lock_id const&)
FUNC 3c0f8 8 0 <lambda_410d79af7f07d98d83a3f525b3859a53>::<lambda_410d79af7f07d98d83a3f525b3859a53>(__acrt_lock_id const&)
FUNC 3c104 7 0 <lambda_862e9a3f04921db6ca1ce3faa2bf3edf>::<lambda_862e9a3f04921db6ca1ce3faa2bf3edf>(__crt_unique_heap_ptr<__crt_locale_pointers,__crt_internal_free_policy>&)
FUNC 3c10c 8 0 <lambda_8b3bdacfa7480f205f16cb49964db269>::<lambda_8b3bdacfa7480f205f16cb49964db269>(__acrt_lock_id const&)
FUNC 3c118 7 0 <lambda_8dff2cf36a5417162780cd64fa2883ef>::<lambda_8dff2cf36a5417162780cd64fa2883ef>(__acrt_ptd* const&)
FUNC 3c120 8 0 <lambda_a48fd90c2dacdd6561e44078457d03a7>::<lambda_a48fd90c2dacdd6561e44078457d03a7>(__acrt_lock_id const&)
FUNC 3c12c 8 0 <lambda_c91f0b5e4ab41df1063aa1a95f49bd71>::<lambda_c91f0b5e4ab41df1063aa1a95f49bd71>(__acrt_lock_id const&)
FUNC 3c138 7 0 <lambda_ebab98244f73a74f49db879bf13fa982>::<lambda_ebab98244f73a74f49db879bf13fa982>(__crt_unique_heap_ptr<__crt_locale_pointers,__crt_internal_free_policy>&)
FUNC 3c140 21 0 <lambda_ffc046909424fd52df0ac47e64813305>::<lambda_ffc046909424fd52df0ac47e64813305>(__crt_locale_data*&, __acrt_ptd* const&, wchar_t*&, int&, wchar_t const*&)
FUNC 3c16c 7 0 __crt_unique_heap_ptr<__crt_locale_data,__crt_internal_free_policy>::__crt_unique_heap_ptr<__crt_locale_data,__crt_internal_free_policy>(__crt_locale_data* const)
FUNC 3c174 7 0 __crt_unique_heap_ptr<__crt_locale_pointers,__crt_internal_free_policy>::__crt_unique_heap_ptr<__crt_locale_pointers,__crt_internal_free_policy>(__crt_locale_pointers* const)
FUNC 3c17c 7 0 __crt_unique_heap_ptr<__crt_multibyte_data,__crt_internal_free_policy>::__crt_unique_heap_ptr<__crt_multibyte_data,__crt_internal_free_policy>(__crt_multibyte_data* const)
FUNC 3c184 1b 0 __crt_unique_heap_ptr<__crt_locale_data,__crt_internal_free_policy>::~__crt_unique_heap_ptr<__crt_locale_data,__crt_internal_free_policy>()
FUNC 3c1a8 1b 0 __crt_unique_heap_ptr<__crt_locale_pointers,__crt_internal_free_policy>::~__crt_unique_heap_ptr<__crt_locale_pointers,__crt_internal_free_policy>()
FUNC 3c1cc 1b 0 __crt_unique_heap_ptr<__crt_multibyte_data,__crt_internal_free_policy>::~__crt_unique_heap_ptr<__crt_multibyte_data,__crt_internal_free_policy>()
FUNC 3c1f0 8 0 __crt_unique_heap_ptr<__crt_locale_data,__crt_internal_free_policy>::operator bool() const
FUNC 3c1fc 8 0 __crt_unique_heap_ptr<__crt_locale_pointers,__crt_internal_free_policy>::operator bool() const
FUNC 3c208 8 0 __crt_unique_heap_ptr<__crt_multibyte_data,__crt_internal_free_policy>::operator bool() const
FUNC 3c214 7 0 <lambda_01a7098693036236037e7cdb9bca3d73>::operator()() const
FUNC 3c21c 7 0 <lambda_0a55505eb881d180377eb1fc64ffb544>::operator()() const
FUNC 3c224 7 0 <lambda_1d892b297fdedeee07ed8124eeb2f2fa>::operator()() const
FUNC 3c22c 8e 0 <lambda_2a444430fde8c29194d880d93eed5e8f>::operator()() const
FUNC 3c2e0 26 0 <lambda_363eea9039da1e8169e2d060c7fe5cbc>::operator()(__crt_locale_data*&) const
FUNC 3c310 7 0 <lambda_38119f0e861e05405d8a144b9b982f0a>::operator()() const
FUNC 3c318 2c 0 <lambda_3e16ef9562a7dcce91392c22ab16ea36>::operator()() const
FUNC 3c350 7 0 <lambda_410d79af7f07d98d83a3f525b3859a53>::operator()() const
FUNC 3c358 3 0 <lambda_7f2adfce497ff2baa965cd4f576ecfd1>::operator()() const
FUNC 3c35c e 0 <lambda_862e9a3f04921db6ca1ce3faa2bf3edf>::operator()() const
FUNC 3c370 7 0 <lambda_8b3bdacfa7480f205f16cb49964db269>::operator()() const
FUNC 3c378 e 0 <lambda_8dff2cf36a5417162780cd64fa2883ef>::operator()() const
FUNC 3c38c 7 0 <lambda_a48fd90c2dacdd6561e44078457d03a7>::operator()() const
FUNC 3c394 7 0 <lambda_c91f0b5e4ab41df1063aa1a95f49bd71>::operator()() const
FUNC 3c39c e 0 <lambda_ebab98244f73a74f49db879bf13fa982>::operator()() const
FUNC 3c3b0 11d 0 <lambda_ffc046909424fd52df0ac47e64813305>::operator()() const
FUNC 3c514 8 0 __crt_unique_heap_ptr<__crt_locale_data,__crt_internal_free_policy>::detach()
FUNC 3c520 8 0 __crt_unique_heap_ptr<__crt_locale_pointers,__crt_internal_free_policy>::detach()
FUNC 3c52c 8 0 __crt_unique_heap_ptr<__crt_multibyte_data,__crt_internal_free_policy>::detach()
FUNC 3c538 4 0 __crt_unique_heap_ptr<__crt_locale_data,__crt_internal_free_policy>::get() const
FUNC 3c53c 4 0 __crt_unique_heap_ptr<__crt_locale_pointers,__crt_internal_free_policy>::get() const
FUNC 3c540 4 0 __crt_unique_heap_ptr<__crt_multibyte_data,__crt_internal_free_policy>::get() const
FUNC 3c544 8 0 __crt_unique_heap_ptr<__crt_locale_data,__crt_internal_free_policy>::is_valid() const
FUNC 3c550 8 0 __crt_unique_heap_ptr<__crt_locale_pointers,__crt_internal_free_policy>::is_valid() const
FUNC 3c55c 8 0 __crt_unique_heap_ptr<__crt_multibyte_data,__crt_internal_free_policy>::is_valid() const
FUNC 3c568 1b 0 __crt_unique_heap_ptr<__crt_locale_data,__crt_internal_free_policy>::release()
FUNC 3c58c 1b 0 __crt_unique_heap_ptr<__crt_locale_pointers,__crt_internal_free_policy>::release()
FUNC 3c5b0 1b 0 __crt_unique_heap_ptr<__crt_multibyte_data,__crt_internal_free_policy>::release()
FUNC 3c5d4 4 0 __crt_state_management::dual_state_global<__crt_locale_data * __ptr64>::value()
FUNC 3c5d8 82 0 _acrt_copy_locale_name(wchar_t const*)
FUNC 3c67c c 0 _acrt_set_locale_changed()
FUNC 3c68c 2e 0 _acrt_uninitialize_locale()
FUNC 3c6c8 a2 0 _lc_lctowcs(wchar_t*, unsigned long long, __crt_locale_strings const*)
FUNC 3c794 17b 0 _lc_wcstolc(__crt_locale_strings*, wchar_t const*)
FUNC 3c970 69 0 configthreadlocale(int)
FUNC 3c9f4 be 0 _copytlocinfo_nolock(__crt_locale_data*, __crt_locale_data*)
FUNC 3cae4 76 0 create_locale(int, char const*)
FUNC 3cb78 3e2 0 expandlocale(wchar_t const*, wchar_t*, unsigned long long, wchar_t*, unsigned long long, unsigned int*)
FUNC 3d054 a2 0 free_locale(__crt_locale_pointers*)
FUNC 3d120 bb 0 get_current_locale()
FUNC 3d20c 148 0 wcreate_locale(int, wchar_t const*)
FUNC 3d3a8 65 0 wcscats(wchar_t*, unsigned long long, int, <NoType>)
FUNC 3d428 a1 0 wsetlocale(int, wchar_t const*)
FUNC 3d4f4 1ea 0 _wsetlocale_get_all(__crt_locale_data*)
FUNC 3d758 294 0 _wsetlocale_nolock(__crt_locale_data*, int, wchar_t const*)
FUNC 3da94 352 0 _wsetlocale_set_cat(__crt_locale_data*, int, wchar_t const*)
FUNC 3debc 29 0 sync_legacy_variables_lk()
FUNC 3def0 4 0 __crt_state_management::dual_state_global<long>::value()
FUNC 3def4 7 0 query_new_mode()
FUNC 3defc 2b 0 set_new_mode(int)
FUNC 3df34 8 0 _p__commode()
FUNC 3df40 8 0 __crt_fast_encoded_nullptr_t::operator<void (__cdecl*)(void)> void (__cdecl** __ptr64)(void)() const
FUNC 3df4c 8 0 __crt_internal_free_policy::operator()<void (__cdecl*)(void)>(void (* const* const)()) const
FUNC 3df58 3b 0 __crt_seh_guarded_call<int>::operator()<<lambda_638799b9deba96c50f710eeac98168cd>,<lambda_22ebabd17bc4fa466a2aca6d8deb888d> & __ptr64,<lambda_a6f7d7db0129f75315ebf26d50c089f1> >(__acrt_lock_and_call::__l2::<lambda_638799b9deba96c50f710eeac98168cd>&&, _register_onexit_function::__l2::<lambda_22ebabd17bc4fa466a2aca6d8deb888d>&, __acrt_lock_and_call::__l2::<lambda_a6f7d7db0129f75315ebf26d50c089f1>&&)
FUNC 3dfa4 3b 0 __crt_seh_guarded_call<int>::operator()<<lambda_7777bce6b2f8c936911f934f8298dc43>,<lambda_f03950bc5685219e0bcd2087efbe011e> & __ptr64,<lambda_3883c3dff614d5e0c5f61bb1ac94921c> >(__acrt_lock_and_call::__l2::<lambda_7777bce6b2f8c936911f934f8298dc43>&&, _execute_onexit_table::__l2::<lambda_f03950bc5685219e0bcd2087efbe011e>&, __acrt_lock_and_call::__l2::<lambda_3883c3dff614d5e0c5f61bb1ac94921c>&&)
FUNC 3dff0 26 0 __acrt_lock_and_call<<lambda_22ebabd17bc4fa466a2aca6d8deb888d> >(const __acrt_lock_id, _register_onexit_function::__l2::<lambda_22ebabd17bc4fa466a2aca6d8deb888d>&&)
FUNC 3e020 26 0 __acrt_lock_and_call<<lambda_f03950bc5685219e0bcd2087efbe011e> >(const __acrt_lock_id, _execute_onexit_table::__l2::<lambda_f03950bc5685219e0bcd2087efbe011e>&&)
FUNC 3e050 1e 0 __crt_fast_encode_pointer<int (__cdecl*)(void)>(int (* const)())
FUNC 3e078 b 0 <lambda_22ebabd17bc4fa466a2aca6d8deb888d>::<lambda_22ebabd17bc4fa466a2aca6d8deb888d>(_onexit_table_t* const&, int (* const&)())
FUNC 3e088 8 0 <lambda_3883c3dff614d5e0c5f61bb1ac94921c>::<lambda_3883c3dff614d5e0c5f61bb1ac94921c>(__acrt_lock_id const&)
FUNC 3e094 8 0 <lambda_638799b9deba96c50f710eeac98168cd>::<lambda_638799b9deba96c50f710eeac98168cd>(__acrt_lock_id const&)
FUNC 3e0a0 8 0 <lambda_7777bce6b2f8c936911f934f8298dc43>::<lambda_7777bce6b2f8c936911f934f8298dc43>(__acrt_lock_id const&)
FUNC 3e0ac 8 0 <lambda_a6f7d7db0129f75315ebf26d50c089f1>::<lambda_a6f7d7db0129f75315ebf26d50c089f1>(__acrt_lock_id const&)
FUNC 3e0b8 7 0 <lambda_f03950bc5685219e0bcd2087efbe011e>::<lambda_f03950bc5685219e0bcd2087efbe011e>(_onexit_table_t* const&)
FUNC 3e0c0 7 0 __crt_unique_heap_ptr<void (__cdecl*)(void),__crt_internal_free_policy>::__crt_unique_heap_ptr<void (__cdecl*)(void),__crt_internal_free_policy>(void (** const)())
FUNC 3e0c8 1b 0 __crt_unique_heap_ptr<void (__cdecl*)(void),__crt_internal_free_policy>::~__crt_unique_heap_ptr<void (__cdecl*)(void),__crt_internal_free_policy>()
FUNC 3e0ec 3 0 __crt_state_management::scoped_global_state_reset::~scoped_global_state_reset()
FUNC 3e0f0 1b0 0 <lambda_22ebabd17bc4fa466a2aca6d8deb888d>::operator()() const
FUNC 3e30c 7 0 <lambda_3883c3dff614d5e0c5f61bb1ac94921c>::operator()() const
FUNC 3e314 7 0 <lambda_638799b9deba96c50f710eeac98168cd>::operator()() const
FUNC 3e31c 7 0 <lambda_7777bce6b2f8c936911f934f8298dc43>::operator()() const
FUNC 3e324 7 0 <lambda_a6f7d7db0129f75315ebf26d50c089f1>::operator()() const
FUNC 3e32c 116 0 <lambda_f03950bc5685219e0bcd2087efbe011e>::operator()() const
FUNC 3e488 8 0 __crt_unique_heap_ptr<void (__cdecl*)(void),__crt_internal_free_policy>::detach()
FUNC 3e494 1b 0 __crt_unique_heap_ptr<void (__cdecl*)(void),__crt_internal_free_policy>::release()
FUNC 3e4b8 f 0 crt_at_quick_exit(void (*)())
FUNC 3e4cc f 0 crt_atexit(void (*)())
FUNC 3e4e0 3a 0 execute_onexit_table(_onexit_table_t*)
FUNC 3e528 27 0 initialize_onexit_table(_onexit_table_t*)
FUNC 3e558 48 0 register_onexit_function(_onexit_table_t*, int (*)())
FUNC 3e5b4 11 0 initialize_global_variables()
FUNC 3e5cc 23 0 initialize_c()
FUNC 3e5f8 3 0 uninitialize_c(bool)
FUNC 3e5fc 3 0 initialize_environment()
FUNC 3e600 10 0 uninitialize_environment(const bool)
FUNC 3e614 3 0 initialize_global_state_isolation()
FUNC 3e618 3 0 uninitialize_global_state_isolation(const bool)
FUNC 3e61c 3d 0 initialize_pointers()
FUNC 3e668 7 0 uninitialize_vcruntime(const bool)
FUNC 3e670 40 0 uninitialize_allocated_memory(const bool)
FUNC 3e6c0 5b 0 uninitialize_allocated_io_buffers(const bool)
FUNC 3e734 3 0 report_memory_leaks(const bool)
FUNC 3e738 6f 0 __crt_state_management::dual_state_global<__crt_multibyte_data * __ptr64>::uninitialize<<lambda_af42a3ee9806e9a7305d451646e05244> >(uninitialize_allocated_memory::__l2::<lambda_af42a3ee9806e9a7305d451646e05244>&&)
FUNC 3e7c4 3e 0 <lambda_af42a3ee9806e9a7305d451646e05244>::operator()(__crt_multibyte_data*&) const
FUNC 3e814 c 0 __acrt_stdio_is_initialized()
FUNC 3e824 27 0 __crt_state_management::dual_state_global<__crt_locale_data * __ptr64>::initialize(__crt_locale_data* const)
FUNC 3e854 13 0 _acrt_initialize()
FUNC 3e86c 14 0 _acrt_thread_attach()
FUNC 3e888 10 0 _acrt_thread_detach()
FUNC 3e89c 35 0 _acrt_uninitialize(bool)
FUNC 3e8e0 10 0 _acrt_uninitialize_critical(bool)
FUNC 3e8f4 12 0 get_terminate_or_default(__acrt_ptd const* const)
FUNC 3e90c 22 0 get_terminate()
FUNC 3e938 2c 0 set_terminate(void (*)())
FUNC 3e970 20 0 terminate()
FUNC 3e998 11 0 free(void*)
FUNC 3e9b0 5 0 malloc(unsigned long long)
FUNC 3e9b8 62 0 common_tcscpy_s<char>(char* const, const unsigned long long, char const* const)
FUNC 3ea34 5f 0 strcpy_s(char*, unsigned long long, char const*)
FUNC 3eaac 1c 0 set_abort_behavior(unsigned int, unsigned int)
FUNC 3ead0 56 0 abort()
FUNC 3eb3c 5 0 calloc(unsigned long long, unsigned long long)
FUNC 3eb44 2c 0 wcsncmp(wchar_t const*, wchar_t const*, unsigned long long)
FUNC 3eb7c 24 0 __crt_strtox::is_overflow_condition<unsigned long>(const unsigned int, const unsigned long)
FUNC 3ebac 30 0 __crt_strtox::is_overflow_condition<unsigned __int64>(const unsigned int, const unsigned long long)
FUNC 3ebe8 13 0 __crt_strtox::make_c_string_character_source<char,std::nullptr_t>(char const* const, void const*)
FUNC 3ec00 13 0 __crt_strtox::make_c_string_character_source<wchar_t,std::nullptr_t>(wchar_t const* const, void const*)
FUNC 3ec18 33a 0 __crt_strtox::parse_integer<unsigned long,__crt_strtox::c_string_character_source<char> >(__crt_locale_pointers* const, __crt_strtox::c_string_character_source<char>, int, const bool)
FUNC 3f020 6b4 0 __crt_strtox::parse_integer<unsigned long,__crt_strtox::c_string_character_source<wchar_t> >(__crt_locale_pointers* const, __crt_strtox::c_string_character_source<wchar_t>, int, const bool)
FUNC 3f884 32e 0 __crt_strtox::parse_integer<unsigned __int64,__crt_strtox::c_string_character_source<char> >(__crt_locale_pointers* const, __crt_strtox::c_string_character_source<char>, int, const bool)
FUNC 3fc80 761 0 __crt_strtox::parse_integer<unsigned __int64,__crt_strtox::c_string_character_source<wchar_t> >(__crt_locale_pointers* const, __crt_strtox::c_string_character_source<wchar_t>, int, const bool)
FUNC 405bc 2e 0 __crt_strtox::parse_integer_from_string<long,char,std::nullptr_t>(char const* const, void const*, const int, __crt_locale_pointers* const)
FUNC 405f8 2e 0 __crt_strtox::parse_integer_from_string<long,wchar_t,std::nullptr_t>(wchar_t const* const, void const*, const int, __crt_locale_pointers* const)
FUNC 40634 2e 0 __crt_strtox::parse_integer_from_string<__int64,char,std::nullptr_t>(char const* const, void const*, const int, __crt_locale_pointers* const)
FUNC 40670 2e 0 __crt_strtox::parse_integer_from_string<__int64,wchar_t,std::nullptr_t>(wchar_t const* const, void const*, const int, __crt_locale_pointers* const)
FUNC 406ac 13 0 __crt_strtox::c_string_character_source<char>::c_string_character_source<char>(char const* const, char const** const)
FUNC 406c4 13 0 __crt_strtox::c_string_character_source<wchar_t>::c_string_character_source<wchar_t>(wchar_t const* const, wchar_t const** const)
FUNC 406dc 10 0 __crt_strtox::c_string_character_source<char>::~c_string_character_source<char>()
FUNC 406f0 10 0 __crt_strtox::c_string_character_source<wchar_t>::~c_string_character_source<wchar_t>()
FUNC 40704 c 0 __crt_strtox::c_string_character_source<char>::get()
FUNC 40714 e 0 __crt_strtox::c_string_character_source<wchar_t>::get()
FUNC 40728 47 0 __crt_strtox::is_space(const char, __crt_locale_pointers* const)
FUNC 40780 18 0 __crt_strtox::is_space(const wchar_t, __crt_locale_pointers*)
FUNC 407a0 6 0 __crt_strtox::maximum_signed_value(unsigned long)
FUNC 407a8 b 0 __crt_strtox::maximum_signed_value(unsigned long long)
FUNC 407b8 6 0 __crt_strtox::minimum_signed_value(unsigned long)
FUNC 407c0 b 0 __crt_strtox::minimum_signed_value(unsigned long long)
FUNC 407d0 2e 0 __crt_strtox::parse_digit(const char)
FUNC 4080c 1d3 0 __crt_strtox::parse_digit(const wchar_t)
FUNC 40a54 6 0 __crt_strtox::c_string_character_source<char>::restore_state(char const* const)
FUNC 40a5c 6 0 __crt_strtox::c_string_character_source<wchar_t>::restore_state(wchar_t const* const)
FUNC 40a64 4 0 __crt_strtox::c_string_character_source<char>::save_state() const
FUNC 40a68 4 0 __crt_strtox::c_string_character_source<wchar_t>::save_state() const
FUNC 40a6c 2a 0 __crt_strtox::c_string_character_source<char>::unget(const char)
FUNC 40aa0 2d 0 __crt_strtox::c_string_character_source<wchar_t>::unget(const wchar_t)
FUNC 40ad8 25 0 __crt_strtox::c_string_character_source<char>::validate() const
FUNC 40b08 25 0 __crt_strtox::c_string_character_source<wchar_t>::validate() const
FUNC 40b38 1a0 0 __crt_strtox::wide_character_to_digit(const wchar_t)
FUNC 40d40 4 0 _acrt_get_locale_data_prefix(void const* const)
FUNC 40d44 29 0 atoi64(char const*)
FUNC 40d78 2d 0 atoi64_l(char const*, __crt_locale_pointers*)
FUNC 40db0 2d 0 atoi_l(char const*, __crt_locale_pointers*)
FUNC 40de8 2d 0 atol_l(char const*, __crt_locale_pointers*)
FUNC 40e20 2d 0 atoll_l(char const*, __crt_locale_pointers*)
FUNC 40e58 61 0 chvalidchk_l(const int, const int, __crt_locale_pointers* const)
FUNC 40ed4 65 0 ischartype_l(const int, const int, __crt_locale_pointers* const)
FUNC 40f54 29 0 wtoi(wchar_t const*)
FUNC 40f88 29 0 wtoi64(wchar_t const*)
FUNC 40fbc 2d 0 wtoi64_l(wchar_t const*, __crt_locale_pointers*)
FUNC 40ff4 2d 0 wtoi_l(wchar_t const*, __crt_locale_pointers*)
FUNC 4102c 29 0 wtol(wchar_t const*)
FUNC 41060 2d 0 wtol_l(wchar_t const*, __crt_locale_pointers*)
FUNC 41098 29 0 wtoll(wchar_t const*)
FUNC 410cc 2d 0 wtoll_l(wchar_t const*, __crt_locale_pointers*)
FUNC 41104 29 0 atoi(char const*)
FUNC 41138 29 0 atol(char const*)
FUNC 4116c 29 0 atoll(char const*)
FUNC 411b0 7d 0 strncmp()
FUNC 41250 16 0 __crt_fast_decode_pointer<void (__cdecl*)(wchar_t const * __ptr64,wchar_t const * __ptr64,wchar_t const * __ptr64,unsigned int,unsigned __int64)>(void (* const)(wchar_t const*, wchar_t const*, wchar_t const*, unsigned int, unsigned long long))
FUNC 4126c 1e 0 __crt_fast_encode_pointer<void (__cdecl*)(wchar_t const * __ptr64,wchar_t const * __ptr64,wchar_t const * __ptr64,unsigned int,unsigned __int64)>(void (* const)(wchar_t const*, wchar_t const*, wchar_t const*, unsigned int, unsigned long long))
FUNC 41294 7 0 __crt_state_management::dual_state_global<void (__cdecl*)(wchar_t const * __ptr64,wchar_t const * __ptr64,wchar_t const * __ptr64,unsigned int,unsigned __int64)>::initialize_from_array<void (__cdecl*[1])(wchar_t const * __ptr64,wchar_t const * __ptr64,wchar_t const * __ptr64,unsigned int,unsigned __int64)>(void (* const)(wchar_t const*, wchar_t const*, wchar_t const*, unsigned int, unsigned long long)[1]&)
FUNC 4129c 6d 0 capture_current_context(_CONTEXT* const)
FUNC 41324 4 0 __crt_state_management::dual_state_global<void (__cdecl*)(wchar_t const * __ptr64,wchar_t const * __ptr64,wchar_t const * __ptr64,unsigned int,unsigned __int64)>::dangerous_get_state_array()
FUNC 41328 4 0 __crt_state_management::dual_state_global<void (__cdecl*)(wchar_t const * __ptr64,wchar_t const * __ptr64,wchar_t const * __ptr64,unsigned int,unsigned __int64)>::value()
FUNC 4132c 15b 0 _acrt_call_reportfault(int, unsigned long, unsigned long)
FUNC 414e0 8 0 _acrt_initialize_invalid_parameter_handler(void*)
FUNC 414ec 17 0 get_invalid_parameter_handler()
FUNC 41508 1a 0 get_thread_local_invalid_parameter_handler()
FUNC 41528 ae 0 invalid_parameter(wchar_t const* const, wchar_t const* const, wchar_t const* const, const unsigned int, const unsigned long long)
FUNC 41604 1e 0 invalid_parameter_noinfo()
FUNC 4162c 2f 0 invalid_parameter_noinfo_noreturn()
FUNC 41668 47 0 invoke_watson(wchar_t const*, wchar_t const*, wchar_t const*, unsigned int, unsigned long long)
FUNC 416c0 34 0 set_invalid_parameter_handler(void (*)(wchar_t const*, wchar_t const*, wchar_t const*, unsigned int, unsigned long long))
FUNC 41704 25 0 set_thread_local_invalid_parameter_handler(void (*)(wchar_t const*, wchar_t const*, wchar_t const*, unsigned int, unsigned long long))
FUNC 41734 1e 0 fast_check(const int, const int)
FUNC 4175c c 0 _isascii(int)
FUNC 4176c 53 0 _iscsym(int)
FUNC 417d4 5b 0 _iscsymf(int)
FUNC 41848 6 0 _toascii(int)
FUNC 41850 69 0 isalnum_l(int, __crt_locale_pointers*)
FUNC 418d4 69 0 isalpha_l(int, __crt_locale_pointers*)
FUNC 41958 74 0 isblank_l(int, __crt_locale_pointers*)
FUNC 419ec 66 0 iscntrl_l(int, __crt_locale_pointers*)
FUNC 41a6c 25 0 iscsym_l(const int, __crt_locale_pointers* const)
FUNC 41a9c 25 0 iscsymf_l(const int, __crt_locale_pointers* const)
FUNC 41acc 66 0 isdigit_l(int, __crt_locale_pointers*)
FUNC 41b4c 69 0 isgraph_l(int, __crt_locale_pointers*)
FUNC 41bd0 66 0 islower_l(int, __crt_locale_pointers*)
FUNC 41c50 69 0 isprint_l(int, __crt_locale_pointers*)
FUNC 41cd4 66 0 ispunct_l(int, __crt_locale_pointers*)
FUNC 41d54 66 0 isspace_l(int, __crt_locale_pointers*)
FUNC 41dd4 67 0 isupper_l(int, __crt_locale_pointers*)
FUNC 41e54 69 0 isxdigit_l(int, __crt_locale_pointers*)
FUNC 41ed8 3c 0 isalnum(int)
FUNC 41f24 3c 0 isalpha(int)
FUNC 41f70 50 0 isblank(int)
FUNC 41fd4 94 0 iscntrl(int)
FUNC 42090 94 0 isdigit(int)
FUNC 4214c 3c 0 isgraph(int)
FUNC 42198 94 0 islower(int)
FUNC 42254 3c 0 isprint(int)
FUNC 422a0 94 0 ispunct(int)
FUNC 4235c 94 0 isspace(int)
FUNC 42418 94 0 isupper(int)
FUNC 424d4 3c 0 isxdigit(int)
FUNC 42520 13a 0 common_tox_l<&internal_islower_l,&internal_map_upper>(const int, const unsigned long, __crt_locale_pointers* const)
FUNC 426a8 13a 0 common_tox_l<&internal_isupper_l,&internal_map_lower>(const int, const unsigned long, __crt_locale_pointers* const)
FUNC 42830 5e 0 internal_islower_l(const int, __crt_locale_pointers* const)
FUNC 428a8 5e 0 internal_isupper_l(const int, __crt_locale_pointers* const)
FUNC 42920 12 0 internal_map_lower(const int, __crt_locale_pointers* const)
FUNC 42938 12 0 internal_map_upper(const int, __crt_locale_pointers* const)
FUNC 42950 4 0 tolower(int)
FUNC 42954 13e 0 tolower_l(int, __crt_locale_pointers*)
FUNC 42ae4 4 0 toupper(int)
FUNC 42ae8 13e 0 toupper_l(int, __crt_locale_pointers*)
FUNC 42c78 2a 0 tolower(int)
FUNC 42cac 2a 0 toupper(int)
FUNC 42ce0 45 0 _acrt_errno_from_os_error(unsigned long)
FUNC 42d38 4e 0 _acrt_errno_map_os_error(unsigned long)
FUNC 42d9c 20 0 _doserrno()
FUNC 42dc4 20 0 errno()
FUNC 42dec 3b 0 get_doserrno(unsigned long*)
FUNC 42e38 3b 0 get_errno(int*)
FUNC 42e84 3a 0 set_doserrno(unsigned long)
FUNC 42ecc 3a 0 set_errno(int)
FUNC 42f14 8 0 select_heap(void* const)
FUNC 42f20 3d 0 free_base(void*)
FUNC 42f6c 5e 0 malloc_base(unsigned long long)
FUNC 42fe4 13 0 __crt_strtox::make_c_string_character_source<char,char * __ptr64 * __ptr64>(char const* const, char** const)
FUNC 42ffc 13 0 __crt_strtox::make_c_string_character_source<wchar_t,wchar_t * __ptr64 * __ptr64>(wchar_t const* const, wchar_t** const)
FUNC 43014 2e 0 __crt_strtox::parse_integer_from_string<long,char,char * __ptr64 * __ptr64>(char const* const, char** const, const int, __crt_locale_pointers* const)
FUNC 43050 2e 0 __crt_strtox::parse_integer_from_string<long,wchar_t,wchar_t * __ptr64 * __ptr64>(wchar_t const* const, wchar_t** const, const int, __crt_locale_pointers* const)
FUNC 4308c 2e 0 __crt_strtox::parse_integer_from_string<unsigned long,char,char * __ptr64 * __ptr64>(char const* const, char** const, const int, __crt_locale_pointers* const)
FUNC 430c8 2e 0 __crt_strtox::parse_integer_from_string<unsigned long,wchar_t,wchar_t * __ptr64 * __ptr64>(wchar_t const* const, wchar_t** const, const int, __crt_locale_pointers* const)
FUNC 43104 2e 0 __crt_strtox::parse_integer_from_string<__int64,char,char * __ptr64 * __ptr64>(char const* const, char** const, const int, __crt_locale_pointers* const)
FUNC 43140 2e 0 __crt_strtox::parse_integer_from_string<__int64,wchar_t,wchar_t * __ptr64 * __ptr64>(wchar_t const* const, wchar_t** const, const int, __crt_locale_pointers* const)
FUNC 4317c 2e 0 __crt_strtox::parse_integer_from_string<unsigned __int64,char,char * __ptr64 * __ptr64>(char const* const, char** const, const int, __crt_locale_pointers* const)
FUNC 431b8 2e 0 __crt_strtox::parse_integer_from_string<unsigned __int64,wchar_t,wchar_t * __ptr64 * __ptr64>(wchar_t const* const, wchar_t** const, const int, __crt_locale_pointers* const)
FUNC 431f4 2a 0 strtoi64(char const*, char**, int)
FUNC 43228 2e 0 strtoi64_l(char const*, char**, int, __crt_locale_pointers*)
FUNC 43264 2e 0 strtoimax_l(char const*, char**, int, __crt_locale_pointers*)
FUNC 432a0 2e 0 strtol_l(char const*, char**, int, __crt_locale_pointers*)
FUNC 432dc 2e 0 strtoll_l(char const*, char**, int, __crt_locale_pointers*)
FUNC 43318 2a 0 strtoui64(char const*, char**, int)
FUNC 4334c 2e 0 strtoui64_l(char const*, char**, int, __crt_locale_pointers*)
FUNC 43388 2e 0 strtoul_l(char const*, char**, int, __crt_locale_pointers*)
FUNC 433c4 2e 0 strtoull_l(char const*, char**, int, __crt_locale_pointers*)
FUNC 43400 2e 0 strtoumax_l(char const*, char**, int, __crt_locale_pointers*)
FUNC 4343c 2a 0 wcstoi64(wchar_t const*, wchar_t**, int)
FUNC 43470 2e 0 wcstoi64_l(wchar_t const*, wchar_t**, int, __crt_locale_pointers*)
FUNC 434ac 2e 0 wcstoimax_l(wchar_t const*, wchar_t**, int, __crt_locale_pointers*)
FUNC 434e8 2e 0 wcstol_l(wchar_t const*, wchar_t**, int, __crt_locale_pointers*)
FUNC 43524 2e 0 wcstoll_l(wchar_t const*, wchar_t**, int, __crt_locale_pointers*)
FUNC 43560 2a 0 wcstoui64(wchar_t const*, wchar_t**, int)
FUNC 43594 2e 0 wcstoui64_l(wchar_t const*, wchar_t**, int, __crt_locale_pointers*)
FUNC 435d0 2e 0 wcstoul_l(wchar_t const*, wchar_t**, int, __crt_locale_pointers*)
FUNC 4360c 2e 0 wcstoull_l(wchar_t const*, wchar_t**, int, __crt_locale_pointers*)
FUNC 43648 2e 0 wcstoumax_l(wchar_t const*, wchar_t**, int, __crt_locale_pointers*)
FUNC 43684 2a 0 strtoimax(char const*, char**, int)
FUNC 436b8 2a 0 strtol(char const*, char**, int)
FUNC 436ec 2a 0 strtoll(char const*, char**, int)
FUNC 43720 2a 0 strtoul(char const*, char**, int)
FUNC 43754 2a 0 strtoull(char const*, char**, int)
FUNC 43788 2a 0 strtoumax(char const*, char**, int)
FUNC 437bc 2a 0 wcstoimax(wchar_t const*, wchar_t**, int)
FUNC 437f0 2a 0 wcstol(wchar_t const*, wchar_t**, int)
FUNC 43824 2a 0 wcstoll(wchar_t const*, wchar_t**, int)
FUNC 43858 2a 0 wcstoul(wchar_t const*, wchar_t**, int)
FUNC 4388c 2a 0 wcstoull(wchar_t const*, wchar_t**, int)
FUNC 438c0 2a 0 wcstoumax(wchar_t const*, wchar_t**, int)
FUNC 438f4 17c 0 mbtowc_l(wchar_t*, char const*, unsigned long long, __crt_locale_pointers*)
FUNC 43ad0 8 0 mbtowc(wchar_t*, char const*, unsigned long long)
FUNC 43adc 72 0 wctomb_l(char*, wchar_t, __crt_locale_pointers*)
FUNC 43b6c 19d 0 wctomb_s_l(int*, char*, unsigned long long, wchar_t, __crt_locale_pointers*)
FUNC 43d70 4d 0 wctomb(char*, wchar_t)
FUNC 43dd0 14 0 wctomb_s(int*, char*, unsigned long long, wchar_t)
FUNC 43dec 155 0 common_strnlen<1,unsigned short>(unsigned short const* const, const unsigned long long)
FUNC 43f98 150 0 common_strnlen<0,unsigned char>(unsigned char const* const, const unsigned long long)
FUNC 4413c 1c3 0 common_strnlen<0,unsigned short>(unsigned short const* const, const unsigned long long)
FUNC 44370 16 0 common_strnlen_c<1,unsigned short>(unsigned short const* const, const unsigned long long)
FUNC 4438c 1d 0 common_strnlen_c<0,unsigned char>(unsigned char const* const, const unsigned long long)
FUNC 443b0 22 0 common_strnlen_c<0,unsigned short>(unsigned short const* const, const unsigned long long)
FUNC 443dc 96 0 common_strnlen_simd<1,1,unsigned short>(unsigned short const* const, const unsigned long long)
FUNC 44498 96 0 common_strnlen_simd<1,0,unsigned short>(unsigned short const* const, const unsigned long long)
FUNC 44554 88 0 common_strnlen_simd<0,1,unsigned char>(unsigned char const* const, const unsigned long long)
FUNC 44600 d0 0 common_strnlen_simd<0,1,unsigned short>(unsigned short const* const, const unsigned long long)
FUNC 44704 85 0 common_strnlen_simd<0,0,unsigned char>(unsigned char const* const, const unsigned long long)
FUNC 447ac cd 0 common_strnlen_simd<0,0,unsigned short>(unsigned short const* const, const unsigned long long)
FUNC 448ac 3 0 last_reached<1>(void const* const, void const* const)
FUNC 448b0 7 0 last_reached<0>(void const* const, void const* const)
FUNC 448b8 4 0 __crt_simd_cleanup_guard<1>::~__crt_simd_cleanup_guard<1>()
FUNC 448bc 3 0 __crt_simd_cleanup_guard<0>::~__crt_simd_cleanup_guard<0>()
FUNC 448c0 9 0 static __crt_simd_traits<1,unsigned char>::compare_equals(const __m256i, const __m256i)
FUNC 448cc 9 0 static __crt_simd_traits<1,unsigned short>::compare_equals(const __m256i, const __m256i)
FUNC 448d8 9 0 static __crt_simd_traits<0,unsigned char>::compare_equals(const __m128i, const __m128i)
FUNC 448e4 9 0 static __crt_simd_traits<0,unsigned short>::compare_equals(const __m128i, const __m128i)
FUNC 448f0 c 0 static __crt_simd_pack_traits<1>::compute_byte_mask(const __m256i)
FUNC 44900 9 0 static __crt_simd_pack_traits<0>::compute_byte_mask(const __m128i)
FUNC 4490c 5 0 static __crt_simd_pack_traits<1>::get_zero_pack()
FUNC 44914 4 0 static __crt_simd_pack_traits<0>::get_zero_pack()
FUNC 44918 150 0 strnlen(char const*, unsigned long long)
FUNC 44abc 129 0 wcslen(wchar_t const*)
FUNC 44c30 1d6 0 wcsnlen(wchar_t const*, unsigned long long)
FUNC 44e7c 8 0 __crt_internal_free_policy::operator()<__acrt_ptd>(__acrt_ptd const* const) const
FUNC 44e88 3f 0 __crt_seh_guarded_call<void>::operator()<<lambda_0ae27a3a962d80f24befdcbee591983d>,<lambda_8d0ee55de4b1038c4002e0adecdf1839> & __ptr64,<lambda_dc504788e8f1664fe9b84e20bfb512f2> >(__acrt_lock_and_call::__l2::<lambda_0ae27a3a962d80f24befdcbee591983d>&&, construct_ptd::__l2::<lambda_8d0ee55de4b1038c4002e0adecdf1839>&, __acrt_lock_and_call::__l2::<lambda_dc504788e8f1664fe9b84e20bfb512f2>&&)
FUNC 44ed8 3d 0 __crt_seh_guarded_call<void>::operator()<<lambda_2d41944a1d46af3157314b8a01080d33>,<lambda_8f455de75cd7d7f24b4096f044d8b9e6> & __ptr64,<lambda_aa500f224e6afead328df44964fe2772> >(__acrt_lock_and_call::__l2::<lambda_2d41944a1d46af3157314b8a01080d33>&&, destroy_ptd::__l2::<lambda_8f455de75cd7d7f24b4096f044d8b9e6>&, __acrt_lock_and_call::__l2::<lambda_aa500f224e6afead328df44964fe2772>&&)
FUNC 44f24 45 0 __crt_seh_guarded_call<void>::operator()<<lambda_aa87e3671a710a21b5dc78c0bdf72e11>,<lambda_92619d2358a28f41a33ba319515a20b9> & __ptr64,<lambda_6992ecaafeb10aed2b74cb1fae11a551> >(__acrt_lock_and_call::__l2::<lambda_aa87e3671a710a21b5dc78c0bdf72e11>&&, construct_ptd::__l2::<lambda_92619d2358a28f41a33ba319515a20b9>&, __acrt_lock_and_call::__l2::<lambda_6992ecaafeb10aed2b74cb1fae11a551>&&)
FUNC 44f7c 5f 0 __crt_seh_guarded_call<void>::operator()<<lambda_f2e299630e499de9f9a165e60fcd3db5>,<lambda_2ae9d31cdba2644fcbeaf08da7c24588> & __ptr64,<lambda_40d01ff24d0e7b3814fdbdcee8eab3c7> >(__acrt_lock_and_call::__l2::<lambda_f2e299630e499de9f9a165e60fcd3db5>&&, destroy_ptd::__l2::<lambda_2ae9d31cdba2644fcbeaf08da7c24588>&, __acrt_lock_and_call::__l2::<lambda_40d01ff24d0e7b3814fdbdcee8eab3c7>&&)
FUNC 44ff4 26 0 __acrt_lock_and_call<<lambda_2ae9d31cdba2644fcbeaf08da7c24588> >(const __acrt_lock_id, destroy_ptd::__l2::<lambda_2ae9d31cdba2644fcbeaf08da7c24588>&&)
FUNC 45024 26 0 __acrt_lock_and_call<<lambda_8d0ee55de4b1038c4002e0adecdf1839> >(const __acrt_lock_id, construct_ptd::__l2::<lambda_8d0ee55de4b1038c4002e0adecdf1839>&&)
FUNC 45054 26 0 __acrt_lock_and_call<<lambda_8f455de75cd7d7f24b4096f044d8b9e6> >(const __acrt_lock_id, destroy_ptd::__l2::<lambda_8f455de75cd7d7f24b4096f044d8b9e6>&&)
FUNC 45084 26 0 __acrt_lock_and_call<<lambda_92619d2358a28f41a33ba319515a20b9> >(const __acrt_lock_id, construct_ptd::__l2::<lambda_92619d2358a28f41a33ba319515a20b9>&&)
FUNC 450b4 8 0 <lambda_0ae27a3a962d80f24befdcbee591983d>::<lambda_0ae27a3a962d80f24befdcbee591983d>(__acrt_lock_id const&)
FUNC 450c0 7 0 <lambda_2ae9d31cdba2644fcbeaf08da7c24588>::<lambda_2ae9d31cdba2644fcbeaf08da7c24588>(__acrt_ptd* const&)
FUNC 450c8 8 0 <lambda_2d41944a1d46af3157314b8a01080d33>::<lambda_2d41944a1d46af3157314b8a01080d33>(__acrt_lock_id const&)
FUNC 450d4 8 0 <lambda_40d01ff24d0e7b3814fdbdcee8eab3c7>::<lambda_40d01ff24d0e7b3814fdbdcee8eab3c7>(__acrt_lock_id const&)
FUNC 450e0 8 0 <lambda_6992ecaafeb10aed2b74cb1fae11a551>::<lambda_6992ecaafeb10aed2b74cb1fae11a551>(__acrt_lock_id const&)
FUNC 450ec 7 0 <lambda_8d0ee55de4b1038c4002e0adecdf1839>::<lambda_8d0ee55de4b1038c4002e0adecdf1839>(__acrt_ptd* const&)
FUNC 450f4 7 0 <lambda_8f455de75cd7d7f24b4096f044d8b9e6>::<lambda_8f455de75cd7d7f24b4096f044d8b9e6>(__acrt_ptd* const&)
FUNC 450fc b 0 <lambda_92619d2358a28f41a33ba319515a20b9>::<lambda_92619d2358a28f41a33ba319515a20b9>(__acrt_ptd* const&, __crt_locale_data** const&)
FUNC 4510c 8 0 <lambda_aa500f224e6afead328df44964fe2772>::<lambda_aa500f224e6afead328df44964fe2772>(__acrt_lock_id const&)
FUNC 45118 8 0 <lambda_aa87e3671a710a21b5dc78c0bdf72e11>::<lambda_aa87e3671a710a21b5dc78c0bdf72e11>(__acrt_lock_id const&)
FUNC 45124 8 0 <lambda_dc504788e8f1664fe9b84e20bfb512f2>::<lambda_dc504788e8f1664fe9b84e20bfb512f2>(__acrt_lock_id const&)
FUNC 45130 8 0 <lambda_f2e299630e499de9f9a165e60fcd3db5>::<lambda_f2e299630e499de9f9a165e60fcd3db5>(__acrt_lock_id const&)
FUNC 4513c 7 0 __crt_unique_heap_ptr<__acrt_ptd,__crt_internal_free_policy>::__crt_unique_heap_ptr<__acrt_ptd,__crt_internal_free_policy>(__acrt_ptd* const)
FUNC 45144 1a 0 __crt_scoped_get_last_error_reset::__crt_scoped_get_last_error_reset()
FUNC 45164 1b 0 __crt_unique_heap_ptr<__acrt_ptd,__crt_internal_free_policy>::~__crt_unique_heap_ptr<__acrt_ptd,__crt_internal_free_policy>()
FUNC 45188 9 0 __crt_scoped_get_last_error_reset::~__crt_scoped_get_last_error_reset()
FUNC 45194 8 0 __crt_unique_heap_ptr<__acrt_ptd,__crt_internal_free_policy>::operator bool() const
FUNC 451a0 7 0 <lambda_0ae27a3a962d80f24befdcbee591983d>::operator()() const
FUNC 451a8 38 0 <lambda_2ae9d31cdba2644fcbeaf08da7c24588>::operator()() const
FUNC 451f0 7 0 <lambda_2d41944a1d46af3157314b8a01080d33>::operator()() const
FUNC 451f8 7 0 <lambda_40d01ff24d0e7b3814fdbdcee8eab3c7>::operator()() const
FUNC 45200 7 0 <lambda_6992ecaafeb10aed2b74cb1fae11a551>::operator()() const
FUNC 45208 11 0 <lambda_8d0ee55de4b1038c4002e0adecdf1839>::operator()() const
FUNC 45220 d 0 <lambda_8f455de75cd7d7f24b4096f044d8b9e6>::operator()() const
FUNC 45230 15 0 <lambda_92619d2358a28f41a33ba319515a20b9>::operator()() const
FUNC 4524c 7 0 <lambda_aa500f224e6afead328df44964fe2772>::operator()() const
FUNC 45254 7 0 <lambda_aa87e3671a710a21b5dc78c0bdf72e11>::operator()() const
FUNC 4525c 7 0 <lambda_dc504788e8f1664fe9b84e20bfb512f2>::operator()() const
FUNC 45264 7 0 <lambda_f2e299630e499de9f9a165e60fcd3db5>::operator()() const
FUNC 4526c c5 0 construct_ptd(__acrt_ptd* const, __crt_locale_data** const)
FUNC 45364 cd 0 construct_ptd_array(__acrt_ptd* const)
FUNC 45464 4 0 __crt_state_management::dual_state_global<__crt_locale_data * __ptr64>::dangerous_get_state_array()
FUNC 45468 20 0 destroy_fls(void*)
FUNC 45490 f5 0 destroy_ptd(__acrt_ptd* const)
FUNC 455c4 f5 0 destroy_ptd_array(__acrt_ptd* const)
FUNC 456f8 8 0 __crt_unique_heap_ptr<__acrt_ptd,__crt_internal_free_policy>::detach()
FUNC 45704 4 0 __crt_unique_heap_ptr<__acrt_ptd,__crt_internal_free_policy>::get() const
FUNC 45708 3 0 __crt_state_management::get_current_state_index(__crt_scoped_get_last_error_reset const&)
FUNC 4570c 9f 0 internal_get_ptd_head()
FUNC 457d4 c8 0 internal_getptd_noexit()
FUNC 458d0 8 0 __crt_unique_heap_ptr<__acrt_ptd,__crt_internal_free_policy>::is_valid() const
FUNC 458dc 1b 0 __crt_unique_heap_ptr<__acrt_ptd,__crt_internal_free_policy>::release()
FUNC 45900 67 0 replace_current_thread_locale_nolock(__acrt_ptd* const, __crt_locale_data* const)
FUNC 45980 20 0 try_get_ptd_head()
FUNC 459a8 41 0 _acrt_freeptd()
FUNC 459fc d4 0 _acrt_getptd()
FUNC 45b08 a7 0 _acrt_getptd_head()
FUNC 45bd8 cc 0 _acrt_getptd_noexit()
FUNC 45cd8 39 0 _acrt_initialize_ptd()
FUNC 45d20 22 0 _acrt_uninitialize_ptd(bool)
FUNC 45d4c 7 0 _threadhandle()
FUNC 45d54 7 0 _threadid()
FUNC 45d5c 4 0 __crt_state_management::dual_state_global<__crt_multibyte_data * __ptr64>::value()
FUNC 45d60 31 0 _acrt_update_locale_info(__acrt_ptd* const, __crt_locale_data** const)
FUNC 45da0 31 0 _acrt_update_multibyte_info(__acrt_ptd* const, __crt_multibyte_data** const)
FUNC 45de0 5b 0 __acrt_fp_classify(double const&)
FUNC 45e54 8 0 __acrt_fp_is_negative(double const&)
FUNC 45e60 36d 0 fp_format_a(double const* const, char*, const unsigned long long, char* const, const unsigned long long, int, const bool, const unsigned int, __crt_locale_pointers* const)
FUNC 462a8 db 0 fp_format_e(double const* const, char* const, const unsigned long long, char* const, const unsigned long long, const int, const bool, const unsigned int, __crt_locale_pointers* const)
FUNC 463bc 1d2 0 fp_format_e_internal(char* const, const unsigned long long, const int, const bool, const unsigned int, _strflt* const, const bool, __crt_locale_pointers* const)
FUNC 46604 a6 0 fp_format_f(double const* const, char* const, const unsigned long long, char* const, const unsigned long long, const int, __crt_locale_pointers* const)
FUNC 466d4 143 0 fp_format_f_internal(char* const, const unsigned long long, const int, _strflt* const, const bool, __crt_locale_pointers* const)
FUNC 46868 132 0 fp_format_g(double const* const, char* const, const unsigned long long, char* const, const unsigned long long, const int, const bool, const unsigned int, __crt_locale_pointers* const)
FUNC 469e8 13c 0 fp_format_nan_or_infinity(const __acrt_fp_class, const bool, char*, unsigned long long, const bool)
FUNC 46b74 30 0 shift_bytes(char* const, const unsigned long long, char* const, const int)
FUNC 46bb0 5 0 strrchr(char* const, const int)
FUNC 46bb8 288 0 _acrt_fp_format(double const*, char*, unsigned long long, char*, unsigned long long, int, int, unsigned long long, __crt_locale_pointers*)
FUNC 46ee4 1c 0 fputwc_binary_nolock(const wchar_t, const __crt_stdio_stream)
FUNC 46f08 17c 0 fputwc_nolock(wchar_t, _iobuf*)
FUNC 470e4 23 0 fputwchar(wchar_t)
FUNC 47110 5 0 putwc_nolock(wchar_t, _iobuf*)
FUNC 47118 5e 0 fputwc(wchar_t, _iobuf*)
FUNC 47190 5 0 putwc(wchar_t, _iobuf*)
FUNC 47198 5 0 putwchar(wchar_t)
FUNC 471a0 7 0 __crt_stdio_stream::lowio_handle() const
FUNC 471a8 26 0 fileno(_iobuf*)
FUNC 471d8 16 0 fputc_nolock(int, _iobuf*)
FUNC 471f4 21 0 fputchar(int)
FUNC 47220 16 0 putc_nolock(int, _iobuf*)
FUNC 4723c 124 0 fputc(int, _iobuf*)
FUNC 473ac 5 0 putc(int, _iobuf*)
FUNC 473b4 5 0 putchar(int)
FUNC 473bc 18 0 get_printf_count_output()
FUNC 473dc 27 0 set_printf_count_output(int)
FUNC 4740c 10 0 __crt_stdio_stream::has_any_buffer() const
FUNC 47420 c 0 __crt_stdio_stream::has_any_of(const long) const
FUNC 47430 c 0 __crt_stdio_stream::has_temporary_buffer() const
FUNC 47440 1e 0 __crt_stdio_stream::set_flags(const long) const
FUNC 47468 25 0 __crt_stdio_stream::unset_flags(const long) const
FUNC 47498 cf 0 _acrt_stdio_begin_temporary_buffering_nolock(_iobuf*)
FUNC 4759c 39 0 _acrt_stdio_end_temporary_buffering_nolock(bool, _iobuf*)
FUNC 475e4 30 0 _p___mb_cur_max()
FUNC 47620 1b 0 get_std_handle_id(const int)
FUNC 47644 ed 0 initialize_inherited_file_handles_nolock()
FUNC 4776c 10c 0 initialize_stdio_handles_nolock()
FUNC 478bc 3b 0 _acrt_initialize_lowio()
FUNC 47908 40 0 _acrt_uninitialize_lowio(bool)
FUNC 47958 75 0 calloc_base(unsigned long long, unsigned long long)
FUNC 479ec 28 0 static <lambda_795c6bd18aed400428efeb9a5f0e1479>::<lambda_invoker_cdecl>(wchar_t*)
FUNC 47a20 8 0 __crt_fast_encoded_nullptr_t::operator<int __cdecl(wchar_t * __ptr64,unsigned long,__int64)> int (__cdecl*)(wchar_t * __ptr64,unsigned long,__int64)() const
FUNC 47a2c 79 0 __crt_seh_guarded_call<int>::operator()<<lambda_bd00b5aa228bd7e7e5b2b5db5fd2933b>,<lambda_777d11615145f89ee95b9466d285deeb> & __ptr64,<lambda_6e5e48fbd24f9f8f81b203eb3d877683> >(__acrt_lock_and_call::__l2::<lambda_bd00b5aa228bd7e7e5b2b5db5fd2933b>&&, __acrt_EnumSystemLocalesEx::__l2::<lambda_777d11615145f89ee95b9466d285deeb>&, __acrt_lock_and_call::__l2::<lambda_6e5e48fbd24f9f8f81b203eb3d877683>&&)
FUNC 47ac4 26 0 __acrt_lock_and_call<<lambda_777d11615145f89ee95b9466d285deeb> >(const __acrt_lock_id, __acrt_EnumSystemLocalesEx::__l2::<lambda_777d11615145f89ee95b9466d285deeb>&&)
FUNC 47af4 16 0 __crt_fast_decode_pointer<int (__cdecl*)(wchar_t * __ptr64,unsigned long,__int64)>(int (* const)(wchar_t*, unsigned long, long long))
FUNC 47b10 1e 0 __crt_fast_encode_pointer<int (__cdecl*)(wchar_t * __ptr64,unsigned long,__int64)>(int (* const)(wchar_t*, unsigned long, long long))
FUNC 47b38 8 0 <lambda_6e5e48fbd24f9f8f81b203eb3d877683>::<lambda_6e5e48fbd24f9f8f81b203eb3d877683>(__acrt_lock_id const&)
FUNC 47b44 7 0 <lambda_777d11615145f89ee95b9466d285deeb>::<lambda_777d11615145f89ee95b9466d285deeb>(int (* const&)(wchar_t*, unsigned long, long long))
FUNC 47b4c 8 0 <lambda_bd00b5aa228bd7e7e5b2b5db5fd2933b>::<lambda_bd00b5aa228bd7e7e5b2b5db5fd2933b>(__acrt_lock_id const&)
FUNC 47b58 8 0 <lambda_795c6bd18aed400428efeb9a5f0e1479>::operator int (__cdecl*)(wchar_t * __ptr64)() const
FUNC 47b64 7 0 <lambda_6e5e48fbd24f9f8f81b203eb3d877683>::operator()() const
FUNC 47b6c 53 0 <lambda_777d11615145f89ee95b9466d285deeb>::operator()() const
FUNC 47bd4 28 0 <lambda_795c6bd18aed400428efeb9a5f0e1479>::operator()(wchar_t*) const
FUNC 47c08 7 0 <lambda_bd00b5aa228bd7e7e5b2b5db5fd2933b>::operator()() const
FUNC 47c10 4d 0 enum_system_locales_ex_nolock(int (* const)(wchar_t*, unsigned long, long long))
FUNC 47c70 5 0 invalid_function_sentinel()
FUNC 47c78 1f 0 try_get_AppPolicyGetProcessTerminationMethod()
FUNC 47ca0 1f 0 try_get_AppPolicyGetShowDeveloperDiagnostic()
FUNC 47cc8 1f 0 try_get_AppPolicyGetThreadInitializationType()
FUNC 47cf0 1f 0 try_get_AppPolicyGetWindowingModel()
FUNC 47d18 1c 0 try_get_AreFileApisANSI()
FUNC 47d3c 1f 0 try_get_CompareStringEx()
FUNC 47d64 1f 0 try_get_EnumSystemLocalesEx()
FUNC 47d8c 1f 0 try_get_FlsAlloc()
FUNC 47db4 1f 0 try_get_FlsFree()
FUNC 47ddc 1f 0 try_get_FlsGetValue()
FUNC 47e04 1f 0 try_get_FlsSetValue()
FUNC 47e2c 1f 0 try_get_GetActiveWindow()
FUNC 47e54 1f 0 try_get_GetDateFormatEx()
FUNC 47e7c 1f 0 try_get_GetEnabledXStateFeatures()
FUNC 47ea4 1f 0 try_get_GetLastActivePopup()
FUNC 47ecc 1f 0 try_get_GetLocaleInfoEx()
FUNC 47ef4 1f 0 try_get_GetProcessWindowStation()
FUNC 47f1c 1f 0 try_get_GetSystemTimePreciseAsFileTime()
FUNC 47f44 1f 0 try_get_GetTimeFormatEx()
FUNC 47f6c 1f 0 try_get_GetUserDefaultLocaleName()
FUNC 47f94 1f 0 try_get_GetUserObjectInformationW()
FUNC 47fbc 1f 0 try_get_GetXStateFeaturesMask()
FUNC 47fe4 1f 0 try_get_InitializeCriticalSectionEx()
FUNC 4800c 1f 0 try_get_IsValidLocaleName()
FUNC 48034 1f 0 try_get_LCIDToLocaleName()
FUNC 4805c 1f 0 try_get_LCMapStringEx()
FUNC 48084 1f 0 try_get_LocaleNameToLCID()
FUNC 480ac 1f 0 try_get_LocateXStateFeature()
FUNC 480d4 1f 0 try_get_MessageBoxA()
FUNC 480fc 1f 0 try_get_MessageBoxW()
FUNC 48124 1f 0 try_get_RoInitialize()
FUNC 4814c 1f 0 try_get_RoUninitialize()
FUNC 48174 1f 0 try_get_SetThreadStackGuarantee()
FUNC 4819c 1f 0 try_get_SystemFunction036()
FUNC 481c4 119 0 try_get_first_available_module(`anonymous-namespace'::module_id const* const, `anonymous-namespace'::module_id const* const)
FUNC 48324 1d6 0 try_get_function(const `anonymous-namespace'::function_id, char const* const, `anonymous-namespace'::module_id const* const, `anonymous-namespace'::module_id const* const)
FUNC 48570 fe 0 try_get_module(const `anonymous-namespace'::module_id)
FUNC 486b0 137 0 try_get_proc_address_from_first_available_module(char const* const, `anonymous-namespace'::module_id const* const, `anonymous-namespace'::module_id const* const)
FUNC 48834 73 0 try_load_library_from_system_directory(wchar_t const* const)
FUNC 488c4 8 0 GetCurrentThreadEffectiveToken()
FUNC 488d0 4e 0 _acrt_AppPolicyGetProcessTerminationMethodInternal(AppPolicyProcessTerminationMethod*)
FUNC 48934 4e 0 _acrt_AppPolicyGetShowDeveloperDiagnosticInternal(AppPolicyShowDeveloperDiagnostic*)
FUNC 48998 4e 0 _acrt_AppPolicyGetThreadInitializationTypeInternal(AppPolicyThreadInitializationType*)
FUNC 489fc 4e 0 _acrt_AppPolicyGetWindowingModelInternal(AppPolicyWindowingModel*)
FUNC 48a60 3a 0 _acrt_AreFileApisANSI()
FUNC 48aa8 dc 0 _acrt_CompareStringEx(wchar_t const*, unsigned long, wchar_t const*, int, wchar_t const*, int, _nlsversioninfo*, void*, long long)
FUNC 48bbc 95 0 _acrt_EnumSystemLocalesEx(int (*)(wchar_t*, unsigned long, long long), unsigned long, long long, void*)
FUNC 48c78 48 0 _acrt_FlsAlloc(void (*)(void*))
FUNC 48cd4 46 0 _acrt_FlsFree(unsigned long)
FUNC 48d2c 46 0 _acrt_FlsGetValue(unsigned long)
FUNC 48d84 51 0 _acrt_FlsSetValue(unsigned long, void*)
FUNC 48dec b6 0 _acrt_GetDateFormatEx(wchar_t const*, unsigned long, _SYSTEMTIME const*, wchar_t const*, wchar_t*, int, wchar_t const*)
FUNC 48ed0 39 0 _acrt_GetEnabledXStateFeatures()
FUNC 48f18 82 0 _acrt_GetLocaleInfoEx(wchar_t const*, unsigned long, wchar_t*, int)
FUNC 48fbc 48 0 _acrt_GetSystemTimePreciseAsFileTime(_FILETIME*)
FUNC 49018 ab 0 _acrt_GetTimeFormatEx(wchar_t const*, unsigned long, _SYSTEMTIME const*, wchar_t const*, wchar_t*, int)
FUNC 490f0 61 0 _acrt_GetUserDefaultLocaleName(wchar_t*, int)
FUNC 4916c 51 0 _acrt_GetXStateFeaturesMask(_CONTEXT*, unsigned long long*)
FUNC 491d4 61 0 _acrt_InitializeCriticalSectionEx(_RTL_CRITICAL_SECTION*, unsigned long, unsigned long)
FUNC 49250 56 0 _acrt_IsValidLocaleName(wchar_t const*)
FUNC 492bc 70 0 _acrt_LCIDToLocaleName(unsigned long, wchar_t*, int, unsigned long)
FUNC 49348 dc 0 _acrt_LCMapStringEx(wchar_t const*, unsigned long, wchar_t const*, int, wchar_t*, int, _nlsversioninfo*, void*, long long)
FUNC 4945c 50 0 _acrt_LocaleNameToLCID(wchar_t const*, unsigned long)
FUNC 494c0 5f 0 _acrt_LocateXStateFeature(_CONTEXT*, unsigned long, unsigned long*)
FUNC 49538 71 0 _acrt_MessageBoxA(HWND__*, char const*, char const*, unsigned int)
FUNC 495c8 71 0 _acrt_MessageBoxW(HWND__*, wchar_t const*, wchar_t const*, unsigned int)
FUNC 49658 40 0 _acrt_RoInitialize(RO_INIT_TYPE)
FUNC 496a8 33 0 _acrt_RoUninitialize()
FUNC 496e8 4f 0 _acrt_RtlGenRandom(void*, unsigned long)
FUNC 4974c 42 0 _acrt_SetThreadStackGuarantee(unsigned long*)
FUNC 497a0 6d 0 _acrt_can_show_message_box()
FUNC 49828 2e 0 _acrt_can_use_vista_locale_apis()
FUNC 49864 2e 0 _acrt_can_use_xstate_apis()
FUNC 498a0 15a 0 _acrt_eagerly_load_locale_apis()
FUNC 49a50 78 0 _acrt_get_parent_window()
FUNC 49ae8 31 0 _acrt_initialize_winapi_thunks()
FUNC 49b28 c6 0 _acrt_is_interactive()
FUNC 49c20 41 0 _acrt_uninitialize_winapi_thunks(bool)
FUNC 49c74 7 0 __crt_stdio_stream::__crt_stdio_stream(__crt_stdio_stream_data* const)
FUNC 49c7c c 0 __crt_stdio_stream::is_in_use() const
FUNC 49c8c b1 0 fcloseall()
FUNC 49d6c 9a 0 __crt_seh_guarded_call<void>::operator()<<lambda_842d9ff0dc9ef11c61343bbaebe7f885>,<lambda_c5860995281e5c4ce005b3de8f5874ee> & __ptr64,<lambda_d90129c13df834fdcbf8d2b88dafcf2d> >(__acrt_lock_stream_and_call::__l2::<lambda_842d9ff0dc9ef11c61343bbaebe7f885>&&, common_flush_all::__l2::<lambda_ab61a845afdef5b7c387490eaf3616ee>::()::__l4::<lambda_c5860995281e5c4ce005b3de8f5874ee>&, __acrt_lock_stream_and_call::__l2::<lambda_d90129c13df834fdcbf8d2b88dafcf2d>&&)
FUNC 49e2c e0 0 __crt_seh_guarded_call<void>::operator()<<lambda_886d6c58226a84441f68b9f2b8217b83>,<lambda_ab61a845afdef5b7c387490eaf3616ee> & __ptr64,<lambda_f7f22ab5edc0698d5f6905b0d3f44752> >(__acrt_lock_and_call::__l2::<lambda_886d6c58226a84441f68b9f2b8217b83>&&, common_flush_all::__l2::<lambda_ab61a845afdef5b7c387490eaf3616ee>&, __acrt_lock_and_call::__l2::<lambda_f7f22ab5edc0698d5f6905b0d3f44752>&&)
FUNC 49f44 40 0 __crt_seh_guarded_call<int>::operator()<<lambda_c376a267cfb53b6959b3b692ec76b120>,<lambda_9a32fed5bf61b6b509b2d3f6003082a1> & __ptr64,<lambda_572fbb9fa0ab338edf41edfd4b5fcc8d> >(__acrt_lock_stream_and_call::__l2::<lambda_c376a267cfb53b6959b3b692ec76b120>&&, fflush::__l2::<lambda_9a32fed5bf61b6b509b2d3f6003082a1>&, __acrt_lock_stream_and_call::__l2::<lambda_572fbb9fa0ab338edf41edfd4b5fcc8d>&&)
FUNC 49f94 26 0 __acrt_lock_and_call<<lambda_ab61a845afdef5b7c387490eaf3616ee> >(const __acrt_lock_id, common_flush_all::__l2::<lambda_ab61a845afdef5b7c387490eaf3616ee>&&)
FUNC 49fc4 28 0 __acrt_lock_stream_and_call<<lambda_9a32fed5bf61b6b509b2d3f6003082a1> >(_iobuf* const, fflush::__l2::<lambda_9a32fed5bf61b6b509b2d3f6003082a1>&&)
FUNC 49ff8 28 0 __acrt_lock_stream_and_call<<lambda_c5860995281e5c4ce005b3de8f5874ee> >(_iobuf* const, common_flush_all::__l2::<lambda_ab61a845afdef5b7c387490eaf3616ee>::()::__l4::<lambda_c5860995281e5c4ce005b3de8f5874ee>&&)
FUNC 4a02c a 0 <lambda_572fbb9fa0ab338edf41edfd4b5fcc8d>::<lambda_572fbb9fa0ab338edf41edfd4b5fcc8d>(_iobuf* const&)
FUNC 4a038 a 0 <lambda_842d9ff0dc9ef11c61343bbaebe7f885>::<lambda_842d9ff0dc9ef11c61343bbaebe7f885>(_iobuf* const&)
FUNC 4a044 8 0 <lambda_886d6c58226a84441f68b9f2b8217b83>::<lambda_886d6c58226a84441f68b9f2b8217b83>(__acrt_lock_id const&)
FUNC 4a050 7 0 <lambda_9a32fed5bf61b6b509b2d3f6003082a1>::<lambda_9a32fed5bf61b6b509b2d3f6003082a1>(__crt_stdio_stream const&)
FUNC 4a058 f 0 <lambda_ab61a845afdef5b7c387490eaf3616ee>::<lambda_ab61a845afdef5b7c387490eaf3616ee>(int&, bool const&, int&)
FUNC 4a06c a 0 <lambda_c376a267cfb53b6959b3b692ec76b120>::<lambda_c376a267cfb53b6959b3b692ec76b120>(_iobuf* const&)
FUNC 4a078 18 0 <lambda_c5860995281e5c4ce005b3de8f5874ee>::<lambda_c5860995281e5c4ce005b3de8f5874ee>(__crt_stdio_stream const&, int&, bool const&, int&)
FUNC 4a098 a 0 <lambda_d90129c13df834fdcbf8d2b88dafcf2d>::<lambda_d90129c13df834fdcbf8d2b88dafcf2d>(_iobuf* const&)
FUNC 4a0a4 8 0 <lambda_f7f22ab5edc0698d5f6905b0d3f44752>::<lambda_f7f22ab5edc0698d5f6905b0d3f44752>(__acrt_lock_id const&)
FUNC 4a0b0 8 0 <lambda_572fbb9fa0ab338edf41edfd4b5fcc8d>::operator()() const
FUNC 4a0bc 8 0 <lambda_842d9ff0dc9ef11c61343bbaebe7f885>::operator()() const
FUNC 4a0c8 7 0 <lambda_886d6c58226a84441f68b9f2b8217b83>::operator()() const
FUNC 4a0d0 b 0 <lambda_9a32fed5bf61b6b509b2d3f6003082a1>::operator()() const
FUNC 4a0e0 ae 0 <lambda_ab61a845afdef5b7c387490eaf3616ee>::operator()() const
FUNC 4a1bc 8 0 <lambda_c376a267cfb53b6959b3b692ec76b120>::operator()() const
FUNC 4a1c8 78 0 <lambda_c5860995281e5c4ce005b3de8f5874ee>::operator()() const
FUNC 4a260 8 0 <lambda_d90129c13df834fdcbf8d2b88dafcf2d>::operator()() const
FUNC 4a26c 7 0 <lambda_f7f22ab5edc0698d5f6905b0d3f44752>::operator()() const
FUNC 4a274 c 0 __acrt_stdio_reset_buffer(const __crt_stdio_stream)
FUNC 4a284 5d 0 common_flush_all(const bool)
FUNC 4a2f8 31 0 common_flush_all_should_try_to_flush_stream(const __crt_stdio_stream, int* const)
FUNC 4a338 e 0 __crt_stdio_stream::has_all_of(const long) const
FUNC 4a34c 9 0 is_stream_allocated(const long)
FUNC 4a358 13 0 is_stream_flushable(const long)
FUNC 4a370 19 0 is_stream_flushable_or_commitable(const long)
FUNC 4a390 7a 0 _acrt_stdio_flush_nolock(_iobuf*)
FUNC 4a428 4b 0 fflush_nolock(_iobuf*)
FUNC 4a488 7 0 flushall()
FUNC 4a490 66 0 fflush(_iobuf*)
FUNC 4a510 c 0 __crt_stdio_stream::has_crt_buffer() const
FUNC 4a520 40 0 _acrt_stdio_free_buffer_nolock(_iobuf*)
FUNC 4a570 40 0 set_error_mode(int)
FUNC 4a5c0 86 0 common_tcscat_s<wchar_t>(wchar_t* const, const unsigned long long, wchar_t const* const)
FUNC 4a668 7f 0 wcscat_s(wchar_t*, unsigned long long, wchar_t const*)
FUNC 4a708 6c 0 common_tcscpy_s<wchar_t>(wchar_t* const, const unsigned long long, wchar_t const* const)
FUNC 4a790 65 0 wcscpy_s(wchar_t*, unsigned long long, wchar_t const*)
FUNC 4a810 db 0 common_tcsncpy_s<wchar_t>(wchar_t* const, const unsigned long long, wchar_t const* const, const unsigned long long)
FUNC 4a924 e4 0 wcsncpy_s(wchar_t*, unsigned long long, wchar_t const*, unsigned long long)
FUNC 4aa44 a3 0 common_show_message_box<char>(char const* const, char const* const, const unsigned int)
FUNC 4ab10 a4 0 common_show_message_box<wchar_t>(wchar_t const* const, wchar_t const* const, const unsigned int)
FUNC 4abe0 11 0 static __crt_char_traits<char>::message_box<std::nullptr_t,char const * __ptr64 const & __ptr64,char const * __ptr64 const & __ptr64,unsigned long>(void*&&, char const* const&, char const* const&, unsigned long&&)
FUNC 4abf8 11 0 static __crt_char_traits<wchar_t>::message_box<std::nullptr_t,wchar_t const * __ptr64 const & __ptr64,wchar_t const * __ptr64 const & __ptr64,unsigned long>(void*&&, wchar_t const* const&, wchar_t const* const&, unsigned long&&)
FUNC 4ac10 11 0 static __crt_char_traits<char>::message_box<HWND__ * __ptr64,char const * __ptr64 const & __ptr64,char const * __ptr64 const & __ptr64,unsigned int const & __ptr64>(HWND__*&&, char const* const&, char const* const&, unsigned int const&)
FUNC 4ac28 11 0 static __crt_char_traits<wchar_t>::message_box<HWND__ * __ptr64,wchar_t const * __ptr64 const & __ptr64,wchar_t const * __ptr64 const & __ptr64,unsigned int const & __ptr64>(HWND__*&&, wchar_t const* const&, wchar_t const* const&, unsigned int const&)
FUNC 4ac40 8 0 static __crt_char_traits<char>::output_debug_string<char const * __ptr64 const & __ptr64>(char const* const&)
FUNC 4ac4c a 0 static __crt_char_traits<wchar_t>::output_debug_string<wchar_t const * __ptr64 const & __ptr64>(wchar_t const* const&)
FUNC 4ac58 a3 0 _acrt_show_narrow_message_box(char const*, char const*, unsigned int)
FUNC 4ad24 a4 0 _acrt_show_wide_message_box(wchar_t const*, wchar_t const*, unsigned int)
FUNC 4adf4 12 0 static <lambda_12d38c6669c8ed1a74067c1f99674cc4>::<lambda_invoker_cdecl>(void const*, void const*)
FUNC 4ae0c 12 0 static <lambda_c2303d2482d7c3675ea2e24c4cfb6115>::<lambda_invoker_cdecl>(void const*, void const*)
FUNC 4ae24 179 0 __acrt_convert_wcs_mbs_cp<char,wchar_t,<lambda_7c9dea7b4ca7285d2cdb541a38da6275>,__crt_win32_buffer_internal_dynamic_resizing>(char const* const, __crt_win32_buffer<wchar_t,__crt_win32_buffer_internal_dynamic_resizing>&, __acrt_mbs_to_wcs_cp::__l2::<lambda_7c9dea7b4ca7285d2cdb541a38da6275> const&, const unsigned int)
FUNC 4affc 18b 0 __acrt_convert_wcs_mbs_cp<wchar_t,char,<lambda_d8593a27d1aa8c02be35c86a17d324c4>,__crt_win32_buffer_internal_dynamic_resizing>(wchar_t const* const, __crt_win32_buffer<char,__crt_win32_buffer_internal_dynamic_resizing>&, __acrt_wcs_to_mbs_cp::__l2::<lambda_d8593a27d1aa8c02be35c86a17d324c4> const&, const unsigned int)
FUNC 4b1ec 176 0 __acrt_mbs_to_wcs_cp<__crt_win32_buffer_internal_dynamic_resizing>(char const* const, __crt_win32_buffer<wchar_t,__crt_win32_buffer_internal_dynamic_resizing>&, const unsigned int)
FUNC 4b3c0 18a 0 __acrt_wcs_to_mbs_cp<__crt_win32_buffer_internal_dynamic_resizing>(wchar_t const* const, __crt_win32_buffer<char,__crt_win32_buffer_internal_dynamic_resizing>&, const unsigned int)
FUNC 4b5ac 209 0 common_expand_argv_wildcards<char>(char** const, char*** const)
FUNC 4b838 3ca 0 common_expand_argv_wildcards<wchar_t>(wchar_t** const, wchar_t*** const)
FUNC 4bcf4 187 0 copy_and_add_argument_to_buffer<char>(char const* const, char const* const, const unsigned long long, `anonymous-namespace'::argument_list<char>&)
FUNC 4bedc 189 0 copy_and_add_argument_to_buffer<wchar_t>(wchar_t const* const, wchar_t const* const, const unsigned long long, `anonymous-namespace'::argument_list<wchar_t>&)
FUNC 4c0c8 30e 0 expand_argument_wildcards<char>(char* const, char* const, `anonymous-namespace'::argument_list<char>&)
FUNC 4c49c 19b 0 expand_argument_wildcards<wchar_t>(wchar_t* const, wchar_t* const, `anonymous-namespace'::argument_list<wchar_t>&)
FUNC 4c6a0 11 0 static __crt_char_traits<char>::tcslen<char const * __ptr64 const & __ptr64>(char const* const&)
FUNC 4c6b8 12 0 static __crt_char_traits<wchar_t>::tcslen<wchar_t const * __ptr64 const & __ptr64>(wchar_t const* const&)
FUNC 4c6d0 11 0 static __crt_char_traits<char>::tcsncpy_s<char * __ptr64 & __ptr64,unsigned __int64,char * __ptr64 & __ptr64,unsigned __int64 const & __ptr64>(char*&, unsigned long long&&, char*&, unsigned long long const&)
FUNC 4c6e8 11 0 static __crt_char_traits<wchar_t>::tcsncpy_s<wchar_t * __ptr64 & __ptr64,unsigned __int64,wchar_t * __ptr64 & __ptr64,unsigned __int64 const & __ptr64>(wchar_t*&, unsigned long long&&, wchar_t*&, unsigned long long const&)
FUNC 4c700 11 0 static __crt_char_traits<char>::tcsncpy_s<char * __ptr64,unsigned __int64 const & __ptr64,char const * __ptr64 const & __ptr64,unsigned __int64 const & __ptr64>(char*&&, unsigned long long const&, char const* const&, unsigned long long const&)
FUNC 4c718 11 0 static __crt_char_traits<char>::tcsncpy_s<char * __ptr64,unsigned __int64,char const * __ptr64 const & __ptr64,unsigned __int64 const & __ptr64>(char*&&, unsigned long long&&, char const* const&, unsigned long long const&)
FUNC 4c730 11 0 static __crt_char_traits<wchar_t>::tcsncpy_s<wchar_t * __ptr64,unsigned __int64 const & __ptr64,wchar_t const * __ptr64 const & __ptr64,unsigned __int64 const & __ptr64>(wchar_t*&&, unsigned long long const&, wchar_t const* const&, unsigned long long const&)
FUNC 4c748 11 0 static __crt_char_traits<wchar_t>::tcsncpy_s<wchar_t * __ptr64,unsigned __int64,wchar_t const * __ptr64 const & __ptr64,unsigned __int64 const & __ptr64>(wchar_t*&&, unsigned long long&&, wchar_t const* const&, unsigned long long const&)
FUNC 4c760 8 0 static __crt_char_traits<char>::tcspbrk<char * __ptr64 & __ptr64,char const (& __ptr64)[3]>(char*&, const char[3]&)
FUNC 4c76c 8 0 static __crt_char_traits<wchar_t>::tcspbrk<wchar_t * __ptr64 & __ptr64,wchar_t const (& __ptr64)[3]>(wchar_t*&, const wchar_t[3]&)
FUNC 4c778 7 0 __crt_unique_handle_t<__crt_findfile_traits>::__crt_unique_handle_t<__crt_findfile_traits>(void* const)
FUNC 4c780 1c 0 __crt_win32_buffer<char,__crt_win32_buffer_internal_dynamic_resizing>::__crt_win32_buffer<char,__crt_win32_buffer_internal_dynamic_resizing>()
FUNC 4c7a4 1c 0 __crt_win32_buffer<wchar_t,__crt_win32_buffer_internal_dynamic_resizing>::__crt_win32_buffer<wchar_t,__crt_win32_buffer_internal_dynamic_resizing>()
FUNC 4c7c8 11 0 `anonymous namespace'::argument_list<char>::argument_list<char>()
FUNC 4c7e0 11 0 `anonymous namespace'::argument_list<wchar_t>::argument_list<wchar_t>()
FUNC 4c7f8 22 0 __crt_unique_handle_t<__crt_findfile_traits>::~__crt_unique_handle_t<__crt_findfile_traits>()
FUNC 4c824 22 0 __crt_win32_buffer<char,__crt_win32_buffer_internal_dynamic_resizing>::~__crt_win32_buffer<char,__crt_win32_buffer_internal_dynamic_resizing>()
FUNC 4c850 22 0 __crt_win32_buffer<wchar_t,__crt_win32_buffer_internal_dynamic_resizing>::~__crt_win32_buffer<wchar_t,__crt_win32_buffer_internal_dynamic_resizing>()
FUNC 4c87c 3d 0 `anonymous namespace'::argument_list<char>::~argument_list<char>()
FUNC 4c8c8 3d 0 `anonymous namespace'::argument_list<wchar_t>::~argument_list<wchar_t>()
FUNC 4c914 8 0 <lambda_12d38c6669c8ed1a74067c1f99674cc4>::operator int (__cdecl*)(void const * __ptr64,void const * __ptr64)() const
FUNC 4c920 8 0 <lambda_c2303d2482d7c3675ea2e24c4cfb6115>::operator int (__cdecl*)(void const * __ptr64,void const * __ptr64)() const
FUNC 4c92c 12 0 <lambda_12d38c6669c8ed1a74067c1f99674cc4>::operator()(void const*, void const*) const
FUNC 4c944 25 0 <lambda_7c9dea7b4ca7285d2cdb541a38da6275>::operator()(const unsigned int, char const* const, wchar_t* const, const unsigned long long) const
FUNC 4c974 12 0 <lambda_c2303d2482d7c3675ea2e24c4cfb6115>::operator()(void const*, void const*) const
FUNC 4c98c 23 0 <lambda_cc44a96f04e0393500626269309609b4>::operator()(const wchar_t) const
FUNC 4c9b8 22 0 <lambda_cfae5a0e6efa98e0d1aa03c4cec8f74e>::operator()(const char) const
FUNC 4c9e4 2f 0 <lambda_d8593a27d1aa8c02be35c86a17d324c4>::operator()(const unsigned int, wchar_t const* const, char* const, const unsigned long long) const
FUNC 4ca20 49 0 __acrt_get_utf8_acp_compatibility_codepage()
FUNC 4ca7c 22 0 __crt_win32_buffer<char,__crt_win32_buffer_internal_dynamic_resizing>::_deallocate()
FUNC 4caa8 22 0 __crt_win32_buffer<wchar_t,__crt_win32_buffer_internal_dynamic_resizing>::_deallocate()
FUNC 4cad4 5b 0 __crt_win32_buffer<char,__crt_win32_buffer_internal_dynamic_resizing>::allocate(unsigned long long)
FUNC 4cb48 5c 0 __crt_win32_buffer<wchar_t,__crt_win32_buffer_internal_dynamic_resizing>::allocate(unsigned long long)
FUNC 4cbbc 24 0 static __crt_win32_buffer_internal_dynamic_resizing::allocate(void** const, const unsigned long long, __crt_win32_buffer_empty_debug_info const&)
FUNC 4cbec de 0 `anonymous namespace'::argument_list<char>::append(char* const)
FUNC 4cd04 de 0 `anonymous namespace'::argument_list<wchar_t>::append(wchar_t* const)
FUNC 4ce1c 4 0 `anonymous namespace'::argument_list<char>::begin() const
FUNC 4ce20 4 0 `anonymous namespace'::argument_list<wchar_t>::begin() const
FUNC 4ce24 5 0 __crt_win32_buffer<char,__crt_win32_buffer_internal_dynamic_resizing>::capacity() const
FUNC 4ce2c 5 0 __crt_win32_buffer<wchar_t,__crt_win32_buffer_internal_dynamic_resizing>::capacity() const
FUNC 4ce34 22 0 __crt_unique_handle_t<__crt_findfile_traits>::close()
FUNC 4ce60 14 0 static __crt_findfile_traits::close(void*)
FUNC 4ce7c 5 0 __crt_win32_buffer<char,__crt_win32_buffer_internal_dynamic_resizing>::data()
FUNC 4ce84 5 0 __crt_win32_buffer<wchar_t,__crt_win32_buffer_internal_dynamic_resizing>::data()
FUNC 4ce8c 5 0 static __crt_win32_buffer_internal_dynamic_resizing::deallocate(void* const, __crt_win32_buffer_empty_debug_info const&)
FUNC 4ce94 4 0 __crt_win32_buffer<char,__crt_win32_buffer_internal_dynamic_resizing>::debug_info() const
FUNC 4ce98 4 0 __crt_win32_buffer<wchar_t,__crt_win32_buffer_internal_dynamic_resizing>::debug_info() const
FUNC 4ce9c 5 0 `anonymous namespace'::argument_list<char>::end() const
FUNC 4cea4 5 0 `anonymous namespace'::argument_list<wchar_t>::end() const
FUNC 4ceac c7 0 `anonymous namespace'::argument_list<char>::expand_if_necessary()
FUNC 4cfa4 c7 0 `anonymous namespace'::argument_list<wchar_t>::expand_if_necessary()
FUNC 4d09c 4 0 __crt_unique_handle_t<__crt_findfile_traits>::get() const
FUNC 4d0a0 9d 0 get_file_name(__crt_win32_buffer<char,__crt_win32_buffer_internal_dynamic_resizing>* const, wchar_t* const)
FUNC 4d164 4 0 get_file_name(__crt_win32_buffer<wchar_t,__crt_win32_buffer_internal_dynamic_resizing>*, wchar_t* const)
FUNC 4d168 5 0 static __crt_findfile_traits::get_invalid_value()
FUNC 4d170 4 0 get_wide(__crt_win32_buffer<wchar_t,__crt_win32_buffer_internal_dynamic_resizing>*, wchar_t* const)
FUNC 4d174 9d 0 get_wide(__crt_win32_buffer<wchar_t,__crt_win32_buffer_internal_dynamic_resizing>* const, char* const)
FUNC 4d238 5 0 previous_character(char* const, char* const)
FUNC 4d240 5 0 previous_character(wchar_t*, wchar_t* const)
FUNC 4d248 31 0 __crt_win32_buffer<char,__crt_win32_buffer_internal_dynamic_resizing>::set_to_nullptr()
FUNC 4d288 31 0 __crt_win32_buffer<wchar_t,__crt_win32_buffer_internal_dynamic_resizing>::set_to_nullptr()
FUNC 4d2c8 5 0 __crt_win32_buffer<char,__crt_win32_buffer_internal_dynamic_resizing>::size(unsigned long long)
FUNC 4d2d0 5 0 __crt_win32_buffer<wchar_t,__crt_win32_buffer_internal_dynamic_resizing>::size(unsigned long long)
FUNC 4d2d8 c 0 `anonymous namespace'::argument_list<char>::size() const
FUNC 4d2e8 c 0 `anonymous namespace'::argument_list<wchar_t>::size() const
FUNC 4d2f8 5 0 strpbrk(char* const, char const* const)
FUNC 4d300 5 0 wcspbrk(wchar_t*, wchar_t const*)
FUNC 4d308 5 0 _acrt_expand_narrow_argv_wildcards(char**, char***)
FUNC 4d310 5 0 _acrt_expand_wide_argv_wildcards(wchar_t**, wchar_t***)
FUNC 4d318 119 0 __acrt_convert_wcs_mbs_cp<wchar_t,char,<lambda_f788ae46380686e8b737efdd8c720d07>,__crt_win32_buffer_no_resizing>(wchar_t const* const, __crt_win32_buffer<char,__crt_win32_buffer_no_resizing>&, __acrt_wcs_to_mbs_cp::__l2::<lambda_f788ae46380686e8b737efdd8c720d07> const&, const unsigned int)
FUNC 4d478 111 0 __acrt_wcs_to_mbs_cp<__crt_win32_buffer_no_resizing>(wchar_t const* const, __crt_win32_buffer<char,__crt_win32_buffer_no_resizing>&, const unsigned int)
FUNC 4d5d0 1c 0 __crt_win32_buffer<char,__crt_win32_buffer_no_resizing>::__crt_win32_buffer<char,__crt_win32_buffer_no_resizing>(char* const, const unsigned long long)
FUNC 4d5f4 b 0 __crt_win32_buffer<char,__crt_win32_buffer_no_resizing>::~__crt_win32_buffer<char,__crt_win32_buffer_no_resizing>()
FUNC 4d604 2f 0 <lambda_f788ae46380686e8b737efdd8c720d07>::operator()(const unsigned int, wchar_t const* const, char* const, const unsigned long long) const
FUNC 4d640 b 0 __crt_win32_buffer<char,__crt_win32_buffer_no_resizing>::_deallocate()
FUNC 4d650 30 0 __crt_win32_buffer<char,__crt_win32_buffer_no_resizing>::allocate(unsigned long long)
FUNC 4d68c 17 0 static __crt_win32_buffer_no_resizing::allocate(void** const, const unsigned long long, __crt_win32_buffer_empty_debug_info const&)
FUNC 4d6a8 5 0 __crt_win32_buffer<char,__crt_win32_buffer_no_resizing>::capacity() const
FUNC 4d6b0 5 0 __crt_win32_buffer<char,__crt_win32_buffer_no_resizing>::data()
FUNC 4d6b8 3 0 static __crt_win32_buffer_no_resizing::deallocate(void* const, __crt_win32_buffer_empty_debug_info const&)
FUNC 4d6bc 4 0 __crt_win32_buffer<char,__crt_win32_buffer_no_resizing>::debug_info() const
FUNC 4d6c0 17 0 __crt_win32_buffer<char,__crt_win32_buffer_no_resizing>::set_to_nullptr()
FUNC 4d6dc 5 0 __crt_win32_buffer<char,__crt_win32_buffer_no_resizing>::size(unsigned long long)
FUNC 4d6e4 5 0 __crt_win32_buffer<char,__crt_win32_buffer_no_resizing>::size() const
FUNC 4d6ec 11e 0 _acrt_GetModuleFileNameA(HINSTANCE__*, char*, unsigned long)
FUNC 4d854 1ba 0 __crt_seh_guarded_call<void>::operator()<<lambda_efdfa57d1f175319df784efa44bb7b81>,<lambda_5f0a4c1567f8adc6734073e5d1e1b35c> & __ptr64,<lambda_2e8a7d3640ea6ccb4c2413664c2db6fd> >(__acrt_lock_and_call::__l2::<lambda_efdfa57d1f175319df784efa44bb7b81>&&, setmbcp_internal::__l2::<lambda_5f0a4c1567f8adc6734073e5d1e1b35c>&, __acrt_lock_and_call::__l2::<lambda_2e8a7d3640ea6ccb4c2413664c2db6fd>&&)
FUNC 4da7c 26 0 __acrt_lock_and_call<<lambda_5f0a4c1567f8adc6734073e5d1e1b35c> >(const __acrt_lock_id, setmbcp_internal::__l2::<lambda_5f0a4c1567f8adc6734073e5d1e1b35c>&&)
FUNC 4daac 4 0 __crt_state_management::dual_state_global<unsigned char * __ptr64>::initialize_from_array<unsigned char [1][256]>(unsigned char[1][256]&)
FUNC 4dab0 4 0 __crt_state_management::dual_state_global<unsigned char * __ptr64>::initialize_from_array<unsigned char [1][257]>(unsigned char[1][257]&)
FUNC 4dab4 8 0 <lambda_2e8a7d3640ea6ccb4c2413664c2db6fd>::<lambda_2e8a7d3640ea6ccb4c2413664c2db6fd>(__acrt_lock_id const&)
FUNC 4dac0 b 0 <lambda_5f0a4c1567f8adc6734073e5d1e1b35c>::<lambda_5f0a4c1567f8adc6734073e5d1e1b35c>(__acrt_ptd* const&, __crt_multibyte_data** const&)
FUNC 4dad0 8 0 <lambda_efdfa57d1f175319df784efa44bb7b81>::<lambda_efdfa57d1f175319df784efa44bb7b81>(__acrt_lock_id const&)
FUNC 4dadc 7 0 <lambda_2e8a7d3640ea6ccb4c2413664c2db6fd>::operator()() const
FUNC 4dae4 1a0 0 <lambda_5f0a4c1567f8adc6734073e5d1e1b35c>::operator()() const
FUNC 4dcec 7 0 <lambda_efdfa57d1f175319df784efa44bb7b81>::operator()() const
FUNC 4dcf4 3a 0 CPtoLocaleName(int)
FUNC 4dd3c 4 0 __crt_state_management::dual_state_global<unsigned char * __ptr64>::dangerous_get_state_array()
FUNC 4dd40 4 0 __crt_state_management::dual_state_global<__crt_multibyte_data * __ptr64>::dangerous_get_state_array()
FUNC 4dd44 7d 0 getSystemCP(int)
FUNC 4dde0 27 0 __crt_state_management::dual_state_global<__crt_multibyte_data * __ptr64>::initialize(__crt_multibyte_data* const)
FUNC 4de10 90 0 setSBCS(__crt_multibyte_data*)
FUNC 4dec4 1e3 0 setSBUpLow(__crt_multibyte_data*)
FUNC 4e120 1c2 0 setmbcp_internal(const int, const bool, __acrt_ptd* const, __crt_multibyte_data** const)
FUNC 4e354 b8 0 update_thread_multibyte_data_internal(__acrt_ptd* const, __crt_multibyte_data** const)
FUNC 4e43c 4 0 __crt_state_management::dual_state_global<unsigned char * __ptr64>::value()
FUNC 4e440 60 0 _acrt_initialize_multibyte()
FUNC 4e4b8 1c 0 _acrt_update_thread_multibyte_data()
FUNC 4e4dc 8 0 _p__mbcasemap()
FUNC 4e4e8 8 0 _p__mbctype()
FUNC 4e4f4 3a 0 getmbcp()
FUNC 4e53c 25 0 setmbcp(int)
FUNC 4e56c 2b9 0 setmbcp_nolock(int, __crt_multibyte_data*)
FUNC 4e8d4 87 0 memcpy_s(void* const, const unsigned long long, void const* const, const unsigned long long)
FUNC 4e97c 75 0 x_ismbbtype_l(__crt_locale_pointers*, unsigned int, int, int)
FUNC 4ea10 15 0 ismbbalnum(unsigned int)
FUNC 4ea2c 19 0 ismbbalnum_l(unsigned int, __crt_locale_pointers*)
FUNC 4ea4c 15 0 ismbbalpha(unsigned int)
FUNC 4ea68 19 0 ismbbalpha_l(unsigned int, __crt_locale_pointers*)
FUNC 4ea88 1c 0 ismbbblank(unsigned int)
FUNC 4eaac 20 0 ismbbblank_l(unsigned int, __crt_locale_pointers*)
FUNC 4ead4 15 0 ismbbgraph(unsigned int)
FUNC 4eaf0 19 0 ismbbgraph_l(unsigned int, __crt_locale_pointers*)
FUNC 4eb10 12 0 ismbbkalnum(unsigned int)
FUNC 4eb28 16 0 ismbbkalnum_l(unsigned int, __crt_locale_pointers*)
FUNC 4eb44 7 0 ismbbkana(unsigned int)
FUNC 4eb4c 65 0 ismbbkana_l(unsigned int, __crt_locale_pointers*)
FUNC 4ebcc 12 0 ismbbkprint(unsigned int)
FUNC 4ebe4 16 0 ismbbkprint_l(unsigned int, __crt_locale_pointers*)
FUNC 4ec00 12 0 ismbbkpunct(unsigned int)
FUNC 4ec18 16 0 ismbbkpunct_l(unsigned int, __crt_locale_pointers*)
FUNC 4ec34 12 0 ismbblead(unsigned int)
FUNC 4ec4c 16 0 ismbblead_l(unsigned int, __crt_locale_pointers*)
FUNC 4ec68 15 0 ismbbprint(unsigned int)
FUNC 4ec84 19 0 ismbbprint_l(unsigned int, __crt_locale_pointers*)
FUNC 4eca4 13 0 ismbbpunct(unsigned int)
FUNC 4ecbc 17 0 ismbbpunct_l(unsigned int, __crt_locale_pointers*)
FUNC 4ecd8 12 0 ismbbtrail(unsigned int)
FUNC 4ecf0 16 0 ismbbtrail_l(unsigned int, __crt_locale_pointers*)
FUNC 4ed0c 55 0 filter_mbtowcs_flags(const unsigned int, const unsigned long)
FUNC 4ed78 5a 0 _acrt_MultiByteToWideChar(unsigned int, unsigned long, char const*, int, wchar_t*, int)
FUNC 4ede8 44 0 filter_wcstomb_flags(const unsigned int, const unsigned long)
FUNC 4ee40 96 0 _acrt_WideCharToMultiByte(unsigned int, unsigned long, wchar_t const*, int, char*, int, char const*, int*)
FUNC 4eefc 7 0 __crt_unique_handle_t<`anonymous namespace'::environment_strings_traits>::__crt_unique_handle_t<`anonymous namespace'::environment_strings_traits>(wchar_t* const)
FUNC 4ef04 21 0 __crt_unique_handle_t<`anonymous namespace'::environment_strings_traits>::~__crt_unique_handle_t<`anonymous namespace'::environment_strings_traits>()
FUNC 4ef30 8 0 __crt_unique_handle_t<`anonymous namespace'::environment_strings_traits>::operator bool() const
FUNC 4ef3c 21 0 __crt_unique_handle_t<`anonymous namespace'::environment_strings_traits>::close()
FUNC 4ef68 11 0 static `anonymous namespace'::environment_strings_traits::close(wchar_t*)
FUNC 4ef80 23 0 find_end_of_double_null_terminated_sequence(wchar_t const* const)
FUNC 4efac 4 0 __crt_unique_handle_t<`anonymous namespace'::environment_strings_traits>::get() const
FUNC 4efb0 3 0 static `anonymous namespace'::environment_strings_traits::get_invalid_value()
FUNC 4efb4 8 0 __crt_unique_handle_t<`anonymous namespace'::environment_strings_traits>::is_valid() const
FUNC 4efc0 101 0 _dcrt_get_narrow_environment_from_os()
FUNC 4f104 9f 0 _dcrt_get_wide_environment_from_os()
FUNC 4f1cc 320 0 common_set_variable_in_environment_nolock<char>(char* const, const int)
FUNC 4f5b4 322 0 common_set_variable_in_environment_nolock<wchar_t>(wchar_t* const, const int)
FUNC 4f9a0 e5 0 copy_environment<char>(char** const)
FUNC 4fac0 ef 0 copy_environment<wchar_t>(wchar_t** const)
FUNC 4fbec 25 0 ensure_current_environment_is_not_initial_environment_nolock<char>()
FUNC 4fc1c 25 0 ensure_current_environment_is_not_initial_environment_nolock<wchar_t>()
FUNC 4fc4c 81 0 find_in_environment_nolock<char>(char const* const, const unsigned long long)
FUNC 4fcf0 91 0 find_in_environment_nolock<wchar_t>(wchar_t const* const, const unsigned long long)
FUNC 4fda8 5 0 static __crt_char_traits<char>::get_or_create_environment_nolock<>()
FUNC 4fdb0 5 0 static __crt_char_traits<wchar_t>::get_or_create_environment_nolock<>()
FUNC 4fdb8 b 0 static __crt_char_traits<char>::set_environment_variable<char * __ptr64 const & __ptr64,char * __ptr64 const>(char* const&, char* const&&)
FUNC 4fdc8 d 0 static __crt_char_traits<wchar_t>::set_environment_variable<wchar_t * __ptr64 const & __ptr64,wchar_t * __ptr64 const>(wchar_t* const&, wchar_t* const&&)
FUNC 4fdd8 b 0 static __crt_char_traits<char>::tcschr<char * __ptr64 const & __ptr64,char>(char* const&, char&&)
FUNC 4fde8 b 0 static __crt_char_traits<wchar_t>::tcschr<wchar_t * __ptr64 const & __ptr64,char>(wchar_t* const&, char&&)
FUNC 4fdf8 e 0 static __crt_char_traits<char>::tcscpy_s<char * __ptr64 & __ptr64,unsigned __int64 const & __ptr64,char * __ptr64 & __ptr64>(char*&, unsigned long long const&, char*&)
FUNC 4fe0c e 0 static __crt_char_traits<wchar_t>::tcscpy_s<wchar_t * __ptr64 & __ptr64,unsigned __int64 const & __ptr64,wchar_t * __ptr64 & __ptr64>(wchar_t*&, unsigned long long const&, wchar_t*&)
FUNC 4fe20 e 0 static __crt_char_traits<char>::tcscpy_s<char * __ptr64 const & __ptr64,unsigned __int64 const & __ptr64,char * __ptr64 const & __ptr64>(char* const&, unsigned long long const&, char* const&)
FUNC 4fe34 e 0 static __crt_char_traits<wchar_t>::tcscpy_s<wchar_t * __ptr64 const & __ptr64,unsigned __int64 const & __ptr64,wchar_t * __ptr64 const & __ptr64>(wchar_t* const&, unsigned long long const&, wchar_t* const&)
FUNC 4fe48 11 0 static __crt_char_traits<char>::tcslen<char * __ptr64 const & __ptr64>(char* const&)
FUNC 4fe60 12 0 static __crt_char_traits<wchar_t>::tcslen<wchar_t * __ptr64 const & __ptr64>(wchar_t* const&)
FUNC 4fe78 e 0 static __crt_char_traits<char>::tcsnicoll<char const * __ptr64 const & __ptr64,char * __ptr64 & __ptr64,unsigned __int64 const & __ptr64>(char const* const&, char*&, unsigned long long const&)
FUNC 4fe8c e 0 static __crt_char_traits<wchar_t>::tcsnicoll<wchar_t const * __ptr64 const & __ptr64,wchar_t * __ptr64 & __ptr64,unsigned __int64 const & __ptr64>(wchar_t const* const&, wchar_t*&, unsigned long long const&)
FUNC 4fea0 8 0 get_environment(char)
FUNC 4feac 8 0 get_environment(wchar_t)
FUNC 4feb8 8 0 get_initial_environment(char)
FUNC 4fec4 8 0 get_initial_environment(wchar_t)
FUNC 4fed0 8 0 get_other_environment(wchar_t)
FUNC 4fedc 8 0 get_other_environment(char)
FUNC 4fee8 5 0 strchr(char* const, const int)
FUNC 4fef0 5 0 wcschr(wchar_t*, wchar_t)
FUNC 4fef8 5 0 _dcrt_set_variable_in_narrow_environment_nolock(char*, int)
FUNC 4ff00 5 0 _dcrt_set_variable_in_wide_environment_nolock(wchar_t*, int)
FUNC 4ff08 48 0 _acrt_initialize_locks()
FUNC 4ff64 19 0 _acrt_lock(__acrt_lock_id)
FUNC 4ff84 37 0 _acrt_uninitialize_locks(bool)
FUNC 4ffc8 19 0 _acrt_unlock(__acrt_lock_id)
FUNC 4ffe8 1b 0 lock_locales()
FUNC 5000c e 0 unlock_locales()
FUNC 50020 4c 0 get_cached_win_policy<`__acrt_get_begin_thread_init_policy'::`2'::begin_thread_init_policy_properties>(AppPolicyThreadInitializationType)
FUNC 50080 4c 0 get_cached_win_policy<`__acrt_get_developer_information_policy'::`2'::developer_information_policy_properties>(AppPolicyShowDeveloperDiagnostic)
FUNC 500e0 69 0 get_cached_win_policy<`__acrt_get_windowing_model_policy'::`2'::windowing_model_policy_properties>(AppPolicyWindowingModel)
FUNC 50164 38 0 get_win_policy<`__acrt_get_process_end_policy'::`2'::process_end_policy_properties>(AppPolicyProcessTerminationMethod)
FUNC 501ac 5 0 static `__acrt_get_begin_thread_init_policy'::`2'::begin_thread_init_policy_properties::appmodel_get_policy(AppPolicyThreadInitializationType*)
FUNC 501b4 5 0 static `__acrt_get_developer_information_policy'::`2'::developer_information_policy_properties::appmodel_get_policy(AppPolicyShowDeveloperDiagnostic*)
FUNC 501bc 5 0 static `__acrt_get_process_end_policy'::`2'::process_end_policy_properties::appmodel_get_policy(AppPolicyProcessTerminationMethod*)
FUNC 501c4 5 0 static `__acrt_get_windowing_model_policy'::`2'::windowing_model_policy_properties::appmodel_get_policy(AppPolicyWindowingModel*)
FUNC 501cc b 0 static `__acrt_get_begin_thread_init_policy'::`2'::begin_thread_init_policy_properties::appmodel_policy_to_policy_type(const long)
FUNC 501dc b 0 static `__acrt_get_developer_information_policy'::`2'::developer_information_policy_properties::appmodel_policy_to_policy_type(const long)
FUNC 501ec 9 0 static `__acrt_get_process_end_policy'::`2'::process_end_policy_properties::appmodel_policy_to_policy_type(const AppPolicyProcessTerminationMethod)
FUNC 501f8 27 0 static `__acrt_get_windowing_model_policy'::`2'::windowing_model_policy_properties::appmodel_policy_to_policy_type(const long)
FUNC 50228 51 0 _acrt_get_begin_thread_init_policy()
FUNC 50290 51 0 _acrt_get_developer_information_policy()
FUNC 502f8 3c 0 _acrt_get_process_end_policy()
FUNC 50344 6c 0 _acrt_get_windowing_model_policy()
FUNC 503cc 8 0 __crt_internal_free_policy::operator()<__crt_lowio_handle_data>(__crt_lowio_handle_data const* const) const
FUNC 503d8 7 0 __crt_unique_heap_ptr<__crt_lowio_handle_data,__crt_internal_free_policy>::__crt_unique_heap_ptr<__crt_lowio_handle_data,__crt_internal_free_policy>(__crt_lowio_handle_data* const)
FUNC 503e0 1b 0 __crt_unique_heap_ptr<__crt_lowio_handle_data,__crt_internal_free_policy>::~__crt_unique_heap_ptr<__crt_lowio_handle_data,__crt_internal_free_policy>()
FUNC 50404 8 0 __crt_unique_heap_ptr<__crt_lowio_handle_data,__crt_internal_free_policy>::operator bool() const
FUNC 50410 8 0 __crt_unique_heap_ptr<__crt_lowio_handle_data,__crt_internal_free_policy>::detach()
FUNC 5041c 4 0 __crt_unique_heap_ptr<__crt_lowio_handle_data,__crt_internal_free_policy>::get() const
FUNC 50420 8 0 __crt_unique_heap_ptr<__crt_lowio_handle_data,__crt_internal_free_policy>::is_valid() const
FUNC 5042c 1b 0 __crt_unique_heap_ptr<__crt_lowio_handle_data,__crt_internal_free_policy>::release()
FUNC 50450 a5 0 _acrt_lowio_create_handle_array()
FUNC 50520 50 0 _acrt_lowio_destroy_handle_array(__crt_lowio_handle_data*)
FUNC 50584 a8 0 _acrt_lowio_ensure_fh_exists(int)
FUNC 50658 27 0 _acrt_lowio_lock_fh(int)
FUNC 50688 bf 0 _acrt_lowio_set_os_handle(int, long long)
FUNC 50778 27 0 _acrt_lowio_unlock_fh(int)
FUNC 507a8 13e 0 alloc_osfhnd()
FUNC 50938 ba 0 free_osfhnd(int)
FUNC 50a20 75 0 get_osfhandle(int)
FUNC 50ab4 101 0 open_osfhandle(long long, int)
FUNC 50bf8 8 0 _p__fmode()
FUNC 50c04 8 0 __crt_internal_free_policy::operator()<unsigned short>(unsigned short const* const) const
FUNC 50c10 8 0 __crt_internal_free_policy::operator()<long>(long const* const) const
FUNC 50c1c 7 0 __crt_unique_heap_ptr<unsigned short,__crt_internal_free_policy>::__crt_unique_heap_ptr<unsigned short,__crt_internal_free_policy>(unsigned short* const)
FUNC 50c24 7 0 __crt_unique_heap_ptr<long,__crt_internal_free_policy>::__crt_unique_heap_ptr<long,__crt_internal_free_policy>(long* const)
FUNC 50c2c 1b 0 __crt_unique_heap_ptr<unsigned short,__crt_internal_free_policy>::~__crt_unique_heap_ptr<unsigned short,__crt_internal_free_policy>()
FUNC 50c50 1b 0 __crt_unique_heap_ptr<long,__crt_internal_free_policy>::~__crt_unique_heap_ptr<long,__crt_internal_free_policy>()
FUNC 50c74 8 0 __crt_unique_heap_ptr<unsigned short,__crt_internal_free_policy>::detach()
FUNC 50c80 8 0 __crt_unique_heap_ptr<long,__crt_internal_free_policy>::detach()
FUNC 50c8c 1b 0 __crt_unique_heap_ptr<unsigned short,__crt_internal_free_policy>::release()
FUNC 50cb0 1b 0 __crt_unique_heap_ptr<long,__crt_internal_free_policy>::release()
FUNC 50cd4 2f 0 __lc_codepage_func()
FUNC 50d10 2f 0 __lc_collate_cp_func()
FUNC 50d4c 32 0 __lc_locale_name_func()
FUNC 50d8c 2f 0 __mb_cur_max_func()
FUNC 50dc8 10 0 __mb_cur_max_l_func(__crt_locale_pointers*)
FUNC 50ddc 64d 0 _acrt_locale_initialize_ctype(__crt_locale_data*)
FUNC 515bc 8 0 __crt_internal_free_policy::operator()<lconv>(lconv const* const) const
FUNC 515c8 7 0 __crt_unique_heap_ptr<lconv,__crt_internal_free_policy>::__crt_unique_heap_ptr<lconv,__crt_internal_free_policy>(lconv* const)
FUNC 515d0 1b 0 __crt_unique_heap_ptr<lconv,__crt_internal_free_policy>::~__crt_unique_heap_ptr<lconv,__crt_internal_free_policy>()
FUNC 515f4 8 0 __crt_unique_heap_ptr<lconv,__crt_internal_free_policy>::detach()
FUNC 51600 1b 0 __crt_unique_heap_ptr<lconv,__crt_internal_free_policy>::release()
FUNC 51624 10a 0 _acrt_locale_free_monetary(lconv*)
FUNC 51770 533 0 _acrt_locale_initialize_monetary(__crt_locale_data*)
FUNC 51df0 34 0 fix_grouping(char*)
FUNC 51e34 6c 0 _acrt_locale_free_numeric(lconv*)
FUNC 51ebc 2e8 0 _acrt_locale_initialize_numeric(__crt_locale_data*)
FUNC 52260 34 0 fix_grouping(char*)
FUNC 522a4 8 0 __crt_internal_free_policy::operator()<__crt_lc_time_data>(__crt_lc_time_data const* const) const
FUNC 522b0 a 0 free_crt_array<char,2>(char*[2]&)
FUNC 522bc a 0 free_crt_array<char,7>(char*[7]&)
FUNC 522c8 a 0 free_crt_array<char,12>(char*[12]&)
FUNC 522d4 a 0 free_crt_array<wchar_t,2>(wchar_t*[2]&)
FUNC 522e0 a 0 free_crt_array<wchar_t,7>(wchar_t*[7]&)
FUNC 522ec a 0 free_crt_array<wchar_t,12>(wchar_t*[12]&)
FUNC 522f8 7 0 __crt_unique_heap_ptr<__crt_lc_time_data,__crt_internal_free_policy>::__crt_unique_heap_ptr<__crt_lc_time_data,__crt_internal_free_policy>(__crt_lc_time_data* const)
FUNC 52300 1b 0 __crt_unique_heap_ptr<__crt_lc_time_data,__crt_internal_free_policy>::~__crt_unique_heap_ptr<__crt_lc_time_data,__crt_internal_free_policy>()
FUNC 52324 8 0 __crt_unique_heap_ptr<__crt_lc_time_data,__crt_internal_free_policy>::operator bool() const
FUNC 52330 8 0 __crt_unique_heap_ptr<__crt_lc_time_data,__crt_internal_free_policy>::detach()
FUNC 5233c 58 0 free_crt_array_internal(void const** const, const unsigned long long)
FUNC 523ac 4 0 __crt_unique_heap_ptr<__crt_lc_time_data,__crt_internal_free_policy>::get() const
FUNC 523b0 77 0 get_or_create_lc_time(__crt_locale_data* const)
FUNC 52444 33e 0 initialize_lc_time(__crt_lc_time_data* const, __crt_locale_data* const)
FUNC 52854 8 0 __crt_unique_heap_ptr<__crt_lc_time_data,__crt_internal_free_policy>::is_valid() const
FUNC 52860 1b 0 __crt_unique_heap_ptr<__crt_lc_time_data,__crt_internal_free_policy>::release()
FUNC 52884 108 0 _acrt_locale_free_time(__crt_lc_time_data*)
FUNC 529d0 9c 0 _acrt_locale_initialize_time(__crt_locale_data*)
FUNC 52a94 2f 0 _pctype_func()
FUNC 52ad0 8 0 _pwctype_func()
FUNC 52adc 3f 0 wcscspn(wchar_t const*, wchar_t const*)
FUNC 52b2c 34 0 wcspbrk(wchar_t const*, wchar_t const*)
FUNC 52b70 97 0 wcsicmp(wchar_t const*, wchar_t const*)
FUNC 52c2c fe 0 wcsicmp_l(wchar_t const*, wchar_t const*, __crt_locale_pointers*)
FUNC 52d6c 7 0 __crt_scoped_stack_ptr<wchar_t>::__crt_scoped_stack_ptr<wchar_t>(const __crt_scoped_stack_ptr_tag<wchar_t>)
FUNC 52d74 7 0 __crt_scoped_stack_ptr_tag<wchar_t>::__crt_scoped_stack_ptr_tag<wchar_t>(wchar_t* const)
FUNC 52d7c 22 0 __crt_scoped_stack_ptr<wchar_t>::~__crt_scoped_stack_ptr<wchar_t>()
FUNC 52da8 4 0 __crt_scoped_stack_ptr<wchar_t>::get() const
FUNC 52dac e 0 MallocaComputeSize(unsigned long long)
FUNC 52dc0 f 0 MarkAllocaS(void*, unsigned int)
FUNC 52dd4 18d 0 _acrt_GetStringTypeA(__crt_locale_pointers*, unsigned long, char const*, int, unsigned short*, int, int)
FUNC 52fc4 1f 0 freea_crt(void*)
FUNC 52fec 8b 0 _acrt_add_locale_ref(__crt_locale_data*)
FUNC 5309c 176 0 _acrt_free_locale(__crt_locale_data*)
FUNC 53270 27 0 _acrt_locale_add_lc_time_reference(__crt_lc_time_data const*)
FUNC 532a0 36 0 _acrt_locale_free_lc_time_if_unreferenced(__crt_lc_time_data const*)
FUNC 532e4 25 0 _acrt_locale_release_lc_time_reference(__crt_lc_time_data const*)
FUNC 53314 a8 0 _acrt_release_locale_ref(__crt_locale_data*)
FUNC 533e8 6e 0 _acrt_update_thread_locale_data()
FUNC 53474 65 0 updatetlocinfoEx_nolock(__crt_locale_data**, __crt_locale_data*)
FUNC 534f4 a5 0 GetLocaleNameFromDefault(__crt_qualified_locale_data*)
FUNC 535c4 cf 0 GetLocaleNameFromLangCountry(__crt_qualified_locale_data*)
FUNC 536c8 98 0 GetLocaleNameFromLanguage(__crt_qualified_locale_data*)
FUNC 53788 2f 0 GetPrimaryLen(wchar_t const*)
FUNC 537c4 2ea 0 LangCountryEnumProcEx(wchar_t*, unsigned long, long long)
FUNC 53b68 ea 0 LanguageEnumProcEx(wchar_t*, unsigned long, long long)
FUNC 53c8c c9 0 ProcessCodePage(wchar_t const*, __crt_qualified_locale_data*)
FUNC 53d88 63 0 TestDefaultCountry(wchar_t const*)
FUNC 53e04 77 0 TestDefaultLanguage(wchar_t const*, int, __crt_qualified_locale_data*)
FUNC 53e98 99 0 TranslateName(__crt_locale_string_table const*, int, wchar_t const**)
FUNC 53f58 263 0 _acrt_get_qualified_locale(__crt_locale_strings const*, unsigned int*, __crt_locale_strings*)
FUNC 54254 e8 0 CountryEnumProc(wchar_t*)
FUNC 54378 5f 0 GetLcidFromCountry(__crt_qualified_locale_data_downlevel*)
FUNC 543f0 21 0 GetLcidFromDefault(__crt_qualified_locale_data_downlevel*)
FUNC 5441c cd 0 GetLcidFromLangCountry(__crt_qualified_locale_data_downlevel*)
FUNC 5451c 96 0 GetLcidFromLanguage(__crt_qualified_locale_data_downlevel*)
FUNC 545d8 26 0 GetPrimaryLen(wchar_t const*)
FUNC 54608 24a 0 LangCountryEnumProc(wchar_t*)
FUNC 548e4 108 0 LanguageEnumProc(wchar_t*)
FUNC 54a30 4e 0 LcidFromHexString(wchar_t const*)
FUNC 54a94 ae 0 ProcessCodePage(wchar_t const*, __crt_qualified_locale_data_downlevel*)
FUNC 54b70 24 0 TestDefaultCountry(unsigned long)
FUNC 54ba0 ab 0 TestDefaultLanguage(unsigned long, int, __crt_qualified_locale_data_downlevel*)
FUNC 54c78 7f 0 TranslateName(__crt_locale_string_table const*, int, wchar_t const**)
FUNC 54d18 27e 0 _acrt_get_qualified_locale_downlevel(__crt_locale_strings const*, unsigned int*, __crt_locale_strings*)
FUNC 55038 33 0 localeconv()
FUNC 55078 5 0 recalloc(void*, unsigned long long, unsigned long long)
FUNC 55080 95 0 recalloc_base(void*, unsigned long long, unsigned long long)
FUNC 5513c 8 0 _acrt_getheap()
FUNC 55148 1c 0 _acrt_initialize_heap()
FUNC 5516c b 0 _acrt_uninitialize_heap(bool)
FUNC 5517c 8 0 get_heap_handle()
FUNC 55188 80 0 _acrt_execute_initializers(__acrt_initializer const*, __acrt_initializer const*)
FUNC 55228 3c 0 _acrt_execute_uninitializers(__acrt_initializer const*, __acrt_initializer const*)
FUNC 55274 8 0 __crt_fast_encoded_nullptr_t::operator<int __cdecl(unsigned __int64)> int (__cdecl*)(unsigned __int64)() const
FUNC 55280 16 0 __crt_fast_decode_pointer<int (__cdecl*)(unsigned __int64)>(int (* const)(unsigned long long))
FUNC 5529c 1e 0 __crt_fast_encode_pointer<int (__cdecl*)(unsigned __int64)>(int (* const)(unsigned long long))
FUNC 552c4 c 0 _set_new_handler(const int)
FUNC 552d4 27 0 __crt_state_management::dual_state_global<int (__cdecl*)(unsigned __int64)>::initialize(int (* const)(unsigned long long))
FUNC 55304 4 0 __crt_state_management::dual_state_global<int (__cdecl*)(unsigned __int64)>::value()
FUNC 55308 8 0 _acrt_initialize_new_handler(void*)
FUNC 55314 2f 0 callnewh(unsigned long long)
FUNC 55350 34 0 query_new_handler()
FUNC 55394 59 0 set_new_handler(int (*)(unsigned long long))
FUNC 55404 8 0 __crt_fast_encoded_nullptr_t::operator<void __cdecl(int)> void (__cdecl*)(int)() const
FUNC 55410 45 0 __crt_seh_guarded_call<void (__cdecl*)(int)>::operator()<<lambda_450d765d439847d4c735a33c368b5fc0>,<lambda_44731a7d0e6d81c3e6aa82d741081786> & __ptr64,<lambda_601a2a7da3b7a96e9554ac7215c4b07c> >(__acrt_lock_and_call::__l2::<lambda_450d765d439847d4c735a33c368b5fc0>&&, __acrt_get_sigabrt_handler::__l2::<lambda_44731a7d0e6d81c3e6aa82d741081786>&, __acrt_lock_and_call::__l2::<lambda_601a2a7da3b7a96e9554ac7215c4b07c>&&)
FUNC 55468 26 0 __acrt_lock_and_call<<lambda_44731a7d0e6d81c3e6aa82d741081786> >(const __acrt_lock_id, __acrt_get_sigabrt_handler::__l2::<lambda_44731a7d0e6d81c3e6aa82d741081786>&&)
FUNC 55498 16 0 __crt_fast_decode_pointer<void (__cdecl*)(int)>(void (* const)(int))
FUNC 554b4 1e 0 __crt_fast_encode_pointer<void (__cdecl*)(int)>(void (* const)(int))
FUNC 554dc 8 0 <lambda_450d765d439847d4c735a33c368b5fc0>::<lambda_450d765d439847d4c735a33c368b5fc0>(__acrt_lock_id const&)
FUNC 554e8 8 0 <lambda_601a2a7da3b7a96e9554ac7215c4b07c>::<lambda_601a2a7da3b7a96e9554ac7215c4b07c>(__acrt_lock_id const&)
FUNC 554f4 17 0 <lambda_44731a7d0e6d81c3e6aa82d741081786>::operator()() const
FUNC 55510 7 0 <lambda_450d765d439847d4c735a33c368b5fc0>::operator()() const
FUNC 55518 7 0 <lambda_601a2a7da3b7a96e9554ac7215c4b07c>::operator()() const
FUNC 55520 92 0 ctrlevent_capture(const unsigned long)
FUNC 555d8 3c 0 get_global_action_nolock(const int)
FUNC 55624 27 0 __crt_state_management::dual_state_global<void (__cdecl*)(int)>::initialize(void (* const)(int))
FUNC 55654 13 0 is_console_signal(const int)
FUNC 5566c e 0 is_unsupported_signal(const int, void (* const)(int))
FUNC 55680 25 0 siglookup(const int, __crt_signal_action_t* const)
FUNC 556b0 27 0 signal_failed(const int)
FUNC 556e0 4 0 __crt_state_management::dual_state_global<void (__cdecl*)(int)>::value()
FUNC 556e4 2e 0 _acrt_get_sigabrt_handler()
FUNC 55720 1d 0 _acrt_initialize_signal_handlers(void*)
FUNC 55744 12 0 _fpecode()
FUNC 5575c 12 0 _pxcptinfoptrs()
FUNC 55774 26b 0 raise(int)
FUNC 55a7c 1da 0 signal(int, void (*)(int))
FUNC 55ccc 5 0 iswctype_l(unsigned short, unsigned short, __crt_locale_pointers*)
FUNC 55cd4 6f 0 iswctype(unsigned short, unsigned short)
FUNC 55d60 30 0 isctype(int, int)
FUNC 55d9c 10f 0 isctype_l(int, int, __crt_locale_pointers*)
FUNC 55ef0 2c 0 _iswcsym(unsigned short)
FUNC 55f28 2c 0 _iswcsymf(unsigned short)
FUNC 55f60 4b 0 isleadbyte_l(int, __crt_locale_pointers*)
FUNC 55fc0 a 0 iswalnum_l(unsigned short, __crt_locale_pointers*)
FUNC 55fcc a 0 iswalpha_l(unsigned short, __crt_locale_pointers*)
FUNC 55fd8 16 0 iswblank_l(unsigned short, __crt_locale_pointers*)
FUNC 55ff4 a 0 iswcntrl_l(unsigned short, __crt_locale_pointers*)
FUNC 56000 2c 0 iswcsym_l(unsigned short, __crt_locale_pointers*)
FUNC 56038 2c 0 iswcsymf_l(unsigned short, __crt_locale_pointers*)
FUNC 56070 a 0 iswdigit_l(unsigned short, __crt_locale_pointers*)
FUNC 5607c a 0 iswgraph_l(unsigned short, __crt_locale_pointers*)
FUNC 56088 a 0 iswlower_l(unsigned short, __crt_locale_pointers*)
FUNC 56094 a 0 iswprint_l(unsigned short, __crt_locale_pointers*)
FUNC 560a0 a 0 iswpunct_l(unsigned short, __crt_locale_pointers*)
FUNC 560ac a 0 iswspace_l(unsigned short, __crt_locale_pointers*)
FUNC 560b8 a 0 iswupper_l(unsigned short, __crt_locale_pointers*)
FUNC 560c4 a 0 iswxdigit_l(unsigned short, __crt_locale_pointers*)
FUNC 560d0 4d 0 isleadbyte(int)
FUNC 56130 a 0 iswalnum(unsigned short)
FUNC 5613c a 0 iswalpha(unsigned short)
FUNC 56148 e 0 iswascii(unsigned short)
FUNC 5615c 16 0 iswblank(unsigned short)
FUNC 56178 a 0 iswcntrl(unsigned short)
FUNC 56184 a 0 iswdigit(unsigned short)
FUNC 56190 a 0 iswgraph(unsigned short)
FUNC 5619c a 0 iswlower(unsigned short)
FUNC 561a8 a 0 iswprint(unsigned short)
FUNC 561b4 a 0 iswpunct(unsigned short)
FUNC 561c0 a 0 iswspace(unsigned short)
FUNC 561cc a 0 iswupper(unsigned short)
FUNC 561d8 a 0 iswxdigit(unsigned short)
FUNC 561e4 8 0 __crt_scoped_stack_ptr<wchar_t>::operator bool() const
FUNC 561f0 315 0 __acrt_LCMapStringA_stat(__crt_locale_pointers*, wchar_t const*, unsigned long, char const*, int, char*, int, int, int)
FUNC 565cc 96 0 _acrt_LCMapStringA(__crt_locale_pointers*, wchar_t const*, unsigned long, char const*, int, char*, int, int, int)
FUNC 56688 27 0 <lambda_65851a7d604e5f7a386d3d3eba445cd2>::operator()(char const*) const
FUNC 566b8 39 0 __crt_mbstring::__mbrtowc_utf8(wchar_t*, char const*, unsigned long long, _Mbstatet*)
FUNC 56700 176 0 __crt_mbstring::__mbsrtowcs_utf8(wchar_t*, char const**, unsigned long long, _Mbstatet*)
FUNC 568d4 251 0 _mbrtowc_s_l(int*, wchar_t*, char const*, unsigned long long, _Mbstatet*, __crt_locale_pointers*)
FUNC 56bbc 15e 0 _mbsrtowcs_helper(wchar_t*, char const**, unsigned long long, _Mbstatet*)
FUNC 56d74 68 0 btowc(int)
FUNC 56df8 3e 0 mbrlen(char const*, unsigned long long, _Mbstatet*)
FUNC 56e48 60 0 mbrtowc(wchar_t*, char const*, unsigned long long, _Mbstatet*)
FUNC 56ec0 5 0 mbsrtowcs(wchar_t*, char const**, unsigned long long, _Mbstatet*)
FUNC 56ec8 d4 0 mbsrtowcs_s(unsigned long long*, wchar_t*, unsigned long long, char const**, unsigned long long, _Mbstatet*)
FUNC 56fd4 b7 0 __crt_mbstring::__c32rtomb_utf8(char*, char32_t, _Mbstatet*)
FUNC 570b8 9 0 __crt_mbstring::reset_and_return(unsigned long long, _Mbstatet*)
FUNC 570c4 1d 0 __crt_mbstring::return_illegal_sequence(_Mbstatet*)
FUNC 570e8 5 0 c32rtomb(char*, char32_t, _Mbstatet*)
FUNC 570f0 e2 0 _acrt_fp_strflt_to_string(char*, unsigned long long, int, _strflt*)
FUNC 5720c 114d 0 convert_to_fos_high_precision<double>(const double, const unsigned int, int* const, char* const, const unsigned long long)
FUNC 587b0 2f 0 __crt_strtox::big_integer::big_integer(__crt_strtox::big_integer const&)
FUNC 587f0 a 0 __crt_strtox::big_integer::big_integer()
FUNC 587fc 3b 0 `anonymous namespace'::scoped_fp_state_reset::scoped_fp_state_reset()
FUNC 58848 14 0 `anonymous namespace'::scoped_fp_state_reset::~scoped_fp_state_reset()
FUNC 58870 2f 0 __crt_strtox::big_integer::operator=(__crt_strtox::big_integer const&)
FUNC 588b0 2a 0 __crt_strtox::operator==(__crt_strtox::big_integer const&, __crt_strtox::big_integer const&)
FUNC 588f0 3e 0 __crt_strtox::operator!=(__crt_strtox::big_integer const&, __crt_strtox::big_integer const&)
FUNC 58940 14 0 __crt_strtox::add_carry(unsigned int&, const unsigned int, const unsigned int)
FUNC 58960 20 0 __crt_strtox::add_multiply_carry(unsigned int&, const unsigned int, const unsigned int, const unsigned int)
FUNC 58990 13 0 __crt_strtox::bit_scan_reverse(const unsigned int)
FUNC 589b0 13 0 __crt_strtox::count_sequential_high_zeroes(const unsigned int)
FUNC 589d0 429 0 __crt_strtox::divide(__crt_strtox::big_integer&, __crt_strtox::big_integer const&)
FUNC 58f10 7 0 __crt_strtox::is_zero(__crt_strtox::big_integer const&)
FUNC 58f20 19 0 __crt_strtox::make_big_integer(const unsigned long long)
FUNC 58f40 67 0 __crt_strtox::make_big_integer_power_of_two(const unsigned int)
FUNC 58fc0 3a8 0 __crt_strtox::multiply(__crt_strtox::big_integer&, __crt_strtox::big_integer const&)
FUNC 59460 ed 0 __crt_strtox::multiply(__crt_strtox::big_integer&, const unsigned int)
FUNC 59590 7 0 __crt_strtox::multiply_64_32(const unsigned long long, const unsigned int)
FUNC 595a0 5a8 0 __crt_strtox::multiply_by_power_of_ten(__crt_strtox::big_integer&, const unsigned int)
FUNC 59cc0 49 0 __crt_strtox::multiply_core(unsigned int* const, const unsigned int, const unsigned int)
FUNC 59d20 14d 0 __crt_strtox::shift_left(__crt_strtox::big_integer&, const unsigned int)
FUNC 59ec0 1231 0 _acrt_fltout(_CRT_DOUBLE, unsigned int, _strflt*, char*, unsigned long long)
FUNC 5b580 87 0 memcpy_s(void* const, const unsigned long long, void const* const, const unsigned long long)
FUNC 5b628 e8 0 common_flush_and_write_nolock<char>(const int, const __crt_stdio_stream)
FUNC 5b74c e9 0 common_flush_and_write_nolock<wchar_t>(const int, const __crt_stdio_stream)
FUNC 5b870 e4 0 write_buffer_nolock<char>(const char, const __crt_stdio_stream)
FUNC 5b990 e8 0 write_buffer_nolock<wchar_t>(const wchar_t, const __crt_stdio_stream)
FUNC 5bab4 d 0 __crt_stdio_stream::has_big_buffer() const
FUNC 5bac4 77 0 stream_is_at_end_of_file_nolock(const __crt_stdio_stream)
FUNC 5bb58 ea 0 _acrt_stdio_flush_and_write_narrow_nolock(int, _iobuf*)
FUNC 5bc7c eb 0 _acrt_stdio_flush_and_write_wide_nolock(int, _iobuf*)
FUNC 5bda4 5f 0 isatty(int)
FUNC 5be1c 4b 0 GetTableIndexFromLcid(unsigned long)
FUNC 5be7c e8 0 GetTableIndexFromLocaleName(wchar_t const*)
FUNC 5bfa0 68 0 __wcsnicmp_ascii(wchar_t const*, wchar_t const*, unsigned long long)
FUNC 5c024 f4 0 _acrt_DownlevelLCIDToLocaleName(unsigned long, wchar_t*, int)
FUNC 5c158 31 0 _acrt_DownlevelLocaleNameToLCID(wchar_t const*)
FUNC 5c198 83 0 fclose_nolock(_iobuf*)
FUNC 5c23c 62 0 fclose(_iobuf*)
FUNC 5c2b8 8c 0 __crt_seh_guarded_call<int>::operator()<<lambda_a37b2b86f63e897a80ea819b0eb08c01>,<lambda_38ce7e780aa69e748d6df282ebc68efe> & __ptr64,<lambda_99fb1378e971ab6e7edea83e3a7a83a2> >(__acrt_lowio_lock_fh_and_call::__l2::<lambda_a37b2b86f63e897a80ea819b0eb08c01>&&, _commit::__l2::<lambda_38ce7e780aa69e748d6df282ebc68efe>&, __acrt_lowio_lock_fh_and_call::__l2::<lambda_99fb1378e971ab6e7edea83e3a7a83a2>&&)
FUNC 5c368 26 0 __acrt_lowio_lock_fh_and_call<<lambda_38ce7e780aa69e748d6df282ebc68efe> >(const int, _commit::__l2::<lambda_38ce7e780aa69e748d6df282ebc68efe>&&)
FUNC 5c398 7 0 <lambda_38ce7e780aa69e748d6df282ebc68efe>::<lambda_38ce7e780aa69e748d6df282ebc68efe>(int const&)
FUNC 5c3a0 8 0 <lambda_99fb1378e971ab6e7edea83e3a7a83a2>::<lambda_99fb1378e971ab6e7edea83e3a7a83a2>(int const&)
FUNC 5c3ac 8 0 <lambda_a37b2b86f63e897a80ea819b0eb08c01>::<lambda_a37b2b86f63e897a80ea819b0eb08c01>(int const&)
FUNC 5c3b8 69 0 <lambda_38ce7e780aa69e748d6df282ebc68efe>::operator()() const
FUNC 5c43c 7 0 <lambda_99fb1378e971ab6e7edea83e3a7a83a2>::operator()() const
FUNC 5c444 7 0 <lambda_a37b2b86f63e897a80ea819b0eb08c01>::operator()() const
FUNC 5c44c 91 0 commit(int)
FUNC 5c504 6c 0 write_binary_nolock(const int, char const* const, const unsigned int)
FUNC 5c58c 4da 0 write_double_translated_ansi_nolock(const int, char const* const, const unsigned int)
FUNC 5cb9c 95 0 write_double_translated_unicode_nolock(char const* const, const unsigned int)
FUNC 5cc58 8e 0 write_requires_double_translation_nolock(const int)
FUNC 5cd0c 102 0 write_text_ansi_nolock(const int, char const* const, const unsigned int)
FUNC 5ce50 119 0 write_text_utf16le_nolock(const int, char const* const, const unsigned int)
FUNC 5cfb0 170 0 write_text_utf8_nolock(const int, char const* const, const unsigned int)
FUNC 5d17c e 0 utf8_no_of_trailbytes(const unsigned char)
FUNC 5d190 eb 0 write(int, void const*, unsigned int)
FUNC 5d2b8 2da 0 write_nolock(int, void const*, unsigned int)
FUNC 5d648 9c 0 _acrt_OutputDebugStringA(char const*)
FUNC 5d710 bc 0 shortsort(char*, char*, const unsigned long long, int (*)(void const*, void const*))
FUNC 5d800 29 0 swap(char*, char*, unsigned long long)
FUNC 5d840 3bd 0 qsort(void*, unsigned long long, unsigned long long, int (*)(void const*, void const*))
FUNC 5dcec c6 0 common_tcsncpy_s<char>(char* const, const unsigned long long, char const* const, const unsigned long long)
FUNC 5dde4 d3 0 strncpy_s(char*, unsigned long long, char const*, unsigned long long)
FUNC 5deec 9e 0 fallbackMethod(char const*, char const*)
FUNC 5dfc0 3e0 0 strpbrk(char const*, char const*)
FUNC 5e498 8 0 mbsdec(unsigned char const*, unsigned char const*)
FUNC 5e4a4 94 0 mbsdec_l(unsigned char const*, unsigned char const*, __crt_locale_pointers*)
FUNC 5e560 17 0 initialize_multibyte()
FUNC 5e57c ad 0 wcsnicoll(wchar_t const*, wchar_t const*, unsigned long long)
FUNC 5e654 144 0 wcsnicoll_l(wchar_t const*, wchar_t const*, unsigned long long, __crt_locale_pointers*)
FUNC 5e7ec 15 0 strnicoll(char const*, char const*, unsigned long long)
FUNC 5e808 100 0 strnicoll_l(char const*, char const*, unsigned long long, __crt_locale_pointers*)
FUNC 5e948 179 0 __acrt_convert_wcs_mbs_cp<char,wchar_t,<lambda_7c9dea7b4ca7285d2cdb541a38da6275>,__crt_win32_buffer_internal_dynamic_resizing>(char const* const, __crt_win32_buffer<wchar_t,__crt_win32_buffer_internal_dynamic_resizing>&, __acrt_mbs_to_wcs_cp::__l2::<lambda_7c9dea7b4ca7285d2cdb541a38da6275> const&, const unsigned int)
FUNC 5eb20 25 0 <lambda_7c9dea7b4ca7285d2cdb541a38da6275>::operator()(const unsigned int, char const* const, wchar_t* const, const unsigned long long) const
FUNC 5eb50 197 0 _acrt_SetEnvironmentVariableA(char const*, char const*)
FUNC 5ed4c 179 0 InternalGetLocaleInfoA(__crt_locale_pointers* const, wchar_t const* const, const unsigned long, char* const, const int)
FUNC 5ef24 1c8 0 _acrt_GetLocaleInfoA(__crt_locale_pointers*, int, wchar_t const*, unsigned long, void*)
FUNC 5f160 c4 0 towlower_l(unsigned short, __crt_locale_pointers*)
FUNC 5f258 7 0 towlower(unsigned short)
FUNC 5f260 c6 0 common_xtox<unsigned long,char>(const unsigned long, char* const, const unsigned long long, const unsigned int, const bool)
FUNC 5f358 d4 0 common_xtox<unsigned long,wchar_t>(const unsigned long, wchar_t* const, const unsigned long long, const unsigned int, const bool)
FUNC 5f464 cb 0 common_xtox<unsigned __int64,char>(const unsigned long long, char* const, const unsigned long long, const unsigned int, const bool)
FUNC 5f564 d9 0 common_xtox<unsigned __int64,wchar_t>(const unsigned long long, wchar_t* const, const unsigned long long, const unsigned int, const bool)
FUNC 5f674 67 0 common_xtox_s<unsigned long,char>(const unsigned long, char* const, const unsigned long long, const unsigned int, const bool)
FUNC 5f6f4 69 0 common_xtox_s<unsigned long,wchar_t>(const unsigned long, wchar_t* const, const unsigned long long, const unsigned int, const bool)
FUNC 5f778 67 0 common_xtox_s<unsigned __int64,char>(const unsigned long long, char* const, const unsigned long long, const unsigned int, const bool)
FUNC 5f7f8 69 0 common_xtox_s<unsigned __int64,wchar_t>(const unsigned long long, wchar_t* const, const unsigned long long, const unsigned int, const bool)
FUNC 5f87c 31 0 i64toa(long long, char*, int)
FUNC 5f8bc 21 0 i64toa_s(long long, char*, unsigned long long, int)
FUNC 5f8e8 31 0 i64tow(long long, wchar_t*, int)
FUNC 5f928 21 0 i64tow_s(long long, wchar_t*, unsigned long long, int)
FUNC 5f954 30 0 itoa(int, char*, int)
FUNC 5f990 20 0 itoa_s(int, char*, unsigned long long, int)
FUNC 5f9b8 30 0 itow(int, wchar_t*, int)
FUNC 5f9f4 20 0 itow_s(int, wchar_t*, unsigned long long, int)
FUNC 5fa1c 30 0 ltoa(long, char*, int)
FUNC 5fa58 20 0 ltoa_s(long, char*, unsigned long long, int)
FUNC 5fa80 30 0 ltow(long, wchar_t*, int)
FUNC 5fabc 20 0 ltow_s(long, wchar_t*, unsigned long long, int)
FUNC 5fae4 23 0 ui64toa(unsigned long long, char*, int)
FUNC 5fb10 13 0 ui64toa_s(unsigned long long, char*, unsigned long long, int)
FUNC 5fb28 23 0 ui64tow(unsigned long long, wchar_t*, int)
FUNC 5fb54 13 0 ui64tow_s(unsigned long long, wchar_t*, unsigned long long, int)
FUNC 5fb6c 23 0 ultoa(unsigned long, char*, int)
FUNC 5fb98 13 0 ultoa_s(unsigned long, char*, unsigned long long, int)
FUNC 5fbb0 23 0 ultow(unsigned long, wchar_t*, int)
FUNC 5fbdc 13 0 ultow_s(unsigned long, wchar_t*, unsigned long long, int)
FUNC 5fbf4 aa 0 wcsnicmp(wchar_t const*, wchar_t const*, unsigned long long)
FUNC 5fcc8 126 0 wcsnicmp_l(wchar_t const*, wchar_t const*, unsigned long long, __crt_locale_pointers*)
FUNC 5fe38 35 0 wcscmp(wchar_t const*, wchar_t const*)
FUNC 5fe7c 5 0 msize(void*)
FUNC 5fe84 39 0 msize_base(void*)
FUNC 5fecc 7a 0 realloc_base(void*, unsigned long long)
FUNC 5ff64 7 0 _acrt_GetStringTypeW(unsigned long, wchar_t const*, int, unsigned short*)
FUNC 5ff6c 15 0 _strncnt(char const*, unsigned long long)
FUNC 5ff88 1d9 0 __crt_mbstring::__mbrtoc32_utf8(char32_t*, char const*, unsigned long long, _Mbstatet*)
FUNC 601d8 5 0 mbrtoc32(char32_t*, char const*, unsigned long long, _Mbstatet*)
FUNC 601e0 20 0 fegetenv(fenv_t*)
FUNC 60208 4d 0 fesetenv(fenv_t const*)
FUNC 60268 50 0 feholdexcept(fenv_t*)
FUNC 602cc c2 0 ceil(double)
FUNC 603c0 5ab 0 log10()
FUNC 60ad8 eb 0 common_lseek<long>(const int, const long, const int)
FUNC 60c00 ef 0 common_lseek<__int64>(const int, const long long, const int)
FUNC 60d2c f3 0 common_lseek_nolock<long>(const int, const long, const int)
FUNC 60e5c 99 0 common_lseek_nolock<__int64>(const int, const long long, const int)
FUNC 60f1c 9e 0 common_lseek_do_seek_nolock(void* const, const long, const int)
FUNC 60fe4 33 0 common_lseek_do_seek_nolock(void* const, const long long, const int)
FUNC 61024 5 0 lseek(int, long, int)
FUNC 6102c 5 0 lseek_nolock(int, long, int)
FUNC 61034 5 0 lseeki64(int, long long, int)
FUNC 6103c 5 0 lseeki64_nolock(int, long long, int)
FUNC 61044 66 0 _acrt_stdio_allocate_buffer_nolock(_iobuf*)
FUNC 610c4 71 0 __crt_seh_guarded_call<int>::operator()<<lambda_751a882b2c74d4b022dec766aa51a29a>,<lambda_628dfdc04ba53c8bfc02c9951375f3f5> & __ptr64,<lambda_f6c7be5f7998530c34de24c7437d6b54> >(__acrt_lowio_lock_fh_and_call::__l2::<lambda_751a882b2c74d4b022dec766aa51a29a>&&, _close::__l2::<lambda_628dfdc04ba53c8bfc02c9951375f3f5>&, __acrt_lowio_lock_fh_and_call::__l2::<lambda_f6c7be5f7998530c34de24c7437d6b54>&&)
FUNC 61154 26 0 __acrt_lowio_lock_fh_and_call<<lambda_628dfdc04ba53c8bfc02c9951375f3f5> >(const int, _close::__l2::<lambda_628dfdc04ba53c8bfc02c9951375f3f5>&&)
FUNC 61184 7 0 <lambda_628dfdc04ba53c8bfc02c9951375f3f5>::<lambda_628dfdc04ba53c8bfc02c9951375f3f5>(int const&)
FUNC 6118c 8 0 <lambda_751a882b2c74d4b022dec766aa51a29a>::<lambda_751a882b2c74d4b022dec766aa51a29a>(int const&)
FUNC 61198 8 0 <lambda_f6c7be5f7998530c34de24c7437d6b54>::<lambda_f6c7be5f7998530c34de24c7437d6b54>(int const&)
FUNC 611a4 49 0 <lambda_628dfdc04ba53c8bfc02c9951375f3f5>::operator()() const
FUNC 61200 7 0 <lambda_751a882b2c74d4b022dec766aa51a29a>::operator()() const
FUNC 61208 7 0 <lambda_f6c7be5f7998530c34de24c7437d6b54>::operator()() const
FUNC 61210 7e 0 close_os_handle_nolock(const int)
FUNC 612b0 a1 0 close(int)
FUNC 6137c bd 0 close_nolock(int)
FUNC 61468 8 0 __crt_internal_free_policy::operator()<__crt_stdio_stream_data>(__crt_stdio_stream_data const* const) const
FUNC 61474 7 0 __crt_unique_heap_ptr<__crt_stdio_stream_data,__crt_internal_free_policy>::__crt_unique_heap_ptr<__crt_stdio_stream_data,__crt_internal_free_policy>(__crt_stdio_stream_data* const)
FUNC 6147c 8 0 __crt_stdio_stream::__crt_stdio_stream()
FUNC 61488 1b 0 __crt_unique_heap_ptr<__crt_stdio_stream_data,__crt_internal_free_policy>::~__crt_unique_heap_ptr<__crt_stdio_stream_data,__crt_internal_free_policy>()
FUNC 614ac 56 0 __acrt_stdio_allocate_stream()
FUNC 61518 1c 0 __acrt_stdio_free_stream(__crt_stdio_stream)
FUNC 6153c 9 0 __crt_stdio_stream::deallocate()
FUNC 61548 8 0 __crt_unique_heap_ptr<__crt_stdio_stream_data,__crt_internal_free_policy>::detach()
FUNC 61554 ea 0 find_or_allocate_unused_stream_nolock()
FUNC 61678 8 0 __crt_stdio_stream::lock() const
FUNC 61684 1b 0 __crt_unique_heap_ptr<__crt_stdio_stream_data,__crt_internal_free_policy>::release()
FUNC 616a8 1f 0 __crt_stdio_stream::try_allocate()
FUNC 616d0 8 0 __crt_stdio_stream::unlock() const
FUNC 616dc 40 0 __crt_seh_guarded_call<unsigned short>::operator()<<lambda_0384895ae1aa6ccbfe369a30d6ca2ef7>,<lambda_9e0b6ab72a5b3ae37ad997d08b519f50> & __ptr64,<lambda_7e22f70504d73c22058e5832bde5914f> >(__acrt_lock_and_call::__l2::<lambda_0384895ae1aa6ccbfe369a30d6ca2ef7>&&, _putwch::__l2::<lambda_9e0b6ab72a5b3ae37ad997d08b519f50>&, __acrt_lock_and_call::__l2::<lambda_7e22f70504d73c22058e5832bde5914f>&&)
FUNC 6172c 26 0 __acrt_lock_and_call<<lambda_9e0b6ab72a5b3ae37ad997d08b519f50> >(const __acrt_lock_id, _putwch::__l2::<lambda_9e0b6ab72a5b3ae37ad997d08b519f50>&&)
FUNC 6175c 8 0 <lambda_0384895ae1aa6ccbfe369a30d6ca2ef7>::<lambda_0384895ae1aa6ccbfe369a30d6ca2ef7>(__acrt_lock_id const&)
FUNC 61768 8 0 <lambda_7e22f70504d73c22058e5832bde5914f>::<lambda_7e22f70504d73c22058e5832bde5914f>(__acrt_lock_id const&)
FUNC 61774 7 0 <lambda_9e0b6ab72a5b3ae37ad997d08b519f50>::<lambda_9e0b6ab72a5b3ae37ad997d08b519f50>(wchar_t const&)
FUNC 6177c 7 0 <lambda_0384895ae1aa6ccbfe369a30d6ca2ef7>::operator()() const
FUNC 61784 7 0 <lambda_7e22f70504d73c22058e5832bde5914f>::operator()() const
FUNC 6178c b 0 <lambda_9e0b6ab72a5b3ae37ad997d08b519f50>::operator()() const
FUNC 6179c 3b 0 putwch(wchar_t)
FUNC 617e8 3b 0 putwch_nolock(wchar_t)
FUNC 61834 1c9 0 translate_text_mode_nolock<char>(const int, char* const, const unsigned long long)
FUNC 61a70 269 0 translate_text_mode_nolock<wchar_t>(const int, wchar_t* const, const unsigned long long)
FUNC 61d74 22 0 store_lookahead(const int, const char)
FUNC 61da0 43 0 store_lookahead(const int, const wchar_t)
FUNC 61df4 19b 0 translate_ansi_or_utf8_nolock(const int, char* const, const unsigned long long, wchar_t* const, const unsigned long long)
FUNC 61ff8 8f 0 translate_utf16_from_console_nolock(const int, wchar_t* const, const unsigned long long)
FUNC 620ac 119 0 read(int, void*, unsigned int)
FUNC 6220c 456 0 read_nolock(int, void*, unsigned int)
FUNC 62778 202 0 _mbstowcs_l_helper(wchar_t*, char const*, unsigned long long, __crt_locale_pointers*)
FUNC 629fc 5 0 mbstowcs_l(wchar_t*, char const*, unsigned long long, __crt_locale_pointers*)
FUNC 62a04 133 0 mbstowcs_s_l(unsigned long long*, wchar_t*, unsigned long long, char const*, unsigned long long, __crt_locale_pointers*)
FUNC 62b84 1a 0 mbstowcs(wchar_t*, char const*, unsigned long long)
FUNC 62ba4 1e 0 mbstowcs_s(unsigned long long*, wchar_t*, unsigned long long, char const*, unsigned long long)
FUNC 62bcc bd 0 _acrt_CompareStringW(wchar_t const*, unsigned long, wchar_t const*, int, wchar_t const*, int)
FUNC 62cb8 5c 0 _ascii_strnicmp(char const*, char const*, unsigned long long)
FUNC 62d2c 4f 0 strnicmp(char const*, char const*, unsigned long long)
FUNC 62d90 da 0 strnicmp_l(char const*, char const*, unsigned long long, __crt_locale_pointers*)
FUNC 62ea0 35d 0 InternalCompareStringA(__crt_locale_pointers*, wchar_t const*, unsigned long, char const*, int, char const*, int, int)
FUNC 632d4 89 0 _acrt_CompareStringA(__crt_locale_pointers*, wchar_t const*, unsigned long, char const*, int, char const*, int, int)
FUNC 63380 87 0 _acrt_LCMapStringW(wchar_t const*, unsigned long, wchar_t const*, int, wchar_t*, int)
FUNC 63428 a 0 __acrt_fenv_shift_bits<enum __acrt_fenv_abstract_control>(const __acrt_fenv_abstract_control, const __acrt_fenv_abstract_control, const unsigned int)
FUNC 63434 a 0 __acrt_fenv_shift_bits<enum __acrt_fenv_abstract_status>(const __acrt_fenv_abstract_status, const __acrt_fenv_abstract_status, const unsigned int)
FUNC 63440 b 0 __acrt_fenv_translate_bit<enum __acrt_fenv_abstract_control,enum __acrt_fenv_machine_sse_control>(const __acrt_fenv_machine_sse_control, const __acrt_fenv_machine_sse_control, const __acrt_fenv_abstract_control, const __acrt_fenv_abstract_control)
FUNC 63450 a 0 __acrt_fenv_translate_bit<enum __acrt_fenv_abstract_status,enum __acrt_fenv_machine_sse_status>(const __acrt_fenv_machine_sse_status, const __acrt_fenv_machine_sse_status, const __acrt_fenv_abstract_status, const __acrt_fenv_abstract_status)
FUNC 6345c c 0 __acrt_fenv_translate_bit<enum __acrt_fenv_machine_sse_control,enum __acrt_fenv_abstract_control>(const __acrt_fenv_abstract_control, const __acrt_fenv_abstract_control, const __acrt_fenv_machine_sse_control, const __acrt_fenv_machine_sse_control)
FUNC 6346c a 0 __acrt_fenv_translate_bit<enum __acrt_fenv_machine_sse_status,enum __acrt_fenv_abstract_status>(const __acrt_fenv_abstract_status, const __acrt_fenv_abstract_status, const __acrt_fenv_machine_sse_status, const __acrt_fenv_machine_sse_status)
FUNC 63478 a 0 __acrt_fenv_unshift_bits<enum __acrt_fenv_abstract_control>(const __acrt_fenv_abstract_control, const __acrt_fenv_abstract_control, const unsigned int)
FUNC 63484 a 0 __acrt_fenv_unshift_bits<enum __acrt_fenv_abstract_status>(const __acrt_fenv_abstract_status, const __acrt_fenv_abstract_status, const unsigned int)
FUNC 63490 4d 0 to_abstract_status<enum __acrt_fenv_machine_sse_status>(const __acrt_fenv_machine_sse_status)
FUNC 634f0 58 0 translate_control_exception_mask<enum __acrt_fenv_abstract_control,enum __acrt_fenv_machine_sse_control>(const __acrt_fenv_machine_sse_control)
FUNC 63560 99 0 translate_control_exception_mask<enum __acrt_fenv_machine_sse_control,enum __acrt_fenv_abstract_control>(const __acrt_fenv_abstract_control)
FUNC 63620 33 0 translate_control_rounding_control<enum __acrt_fenv_abstract_control,enum __acrt_fenv_machine_sse_control>(const __acrt_fenv_machine_sse_control)
FUNC 63660 32 0 translate_control_rounding_control<enum __acrt_fenv_machine_sse_control,enum __acrt_fenv_abstract_control>(const __acrt_fenv_abstract_control)
FUNC 636a0 4d 0 translate_status<enum __acrt_fenv_abstract_status,enum __acrt_fenv_machine_sse_status>(const __acrt_fenv_machine_sse_status)
FUNC 63700 4d 0 translate_status<enum __acrt_fenv_machine_sse_status,enum __acrt_fenv_abstract_status>(const __acrt_fenv_abstract_status)
FUNC 63760 5 0 operator&(__acrt_fenv_abstract_control, __acrt_fenv_abstract_control)
FUNC 63768 5 0 operator&(__acrt_fenv_abstract_status, __acrt_fenv_abstract_status)
FUNC 63770 7 0 operator&(__acrt_fenv_machine_sse_control, __acrt_fenv_machine_sse_control)
FUNC 63778 5 0 operator&(__acrt_fenv_machine_sse_status, __acrt_fenv_machine_sse_status)
FUNC 63780 5 0 operator|(__acrt_fenv_abstract_control, __acrt_fenv_abstract_control)
FUNC 63788 5 0 operator|(__acrt_fenv_abstract_status, __acrt_fenv_abstract_status)
FUNC 63790 7 0 operator|(__acrt_fenv_machine_sse_control, __acrt_fenv_machine_sse_control)
FUNC 63798 6 0 operator|=(__acrt_fenv_abstract_control&, __acrt_fenv_abstract_control)
FUNC 637a0 6 0 operator|=(__acrt_fenv_abstract_status&, __acrt_fenv_abstract_status)
FUNC 637a8 7 0 operator|=(__acrt_fenv_machine_sse_control&, __acrt_fenv_machine_sse_control)
FUNC 637b0 6 0 operator|=(__acrt_fenv_machine_sse_status&, __acrt_fenv_machine_sse_status)
FUNC 637b8 13 0 __acrt_fenv_shift_abstract_sse_control(const __acrt_fenv_abstract_control)
FUNC 637d0 9 0 __acrt_fenv_shift_abstract_sse_status(const __acrt_fenv_abstract_status)
FUNC 637dc 16 0 __acrt_fenv_unshift_abstract_sse_control(const __acrt_fenv_abstract_control)
FUNC 637f8 9 0 __acrt_fenv_unshift_abstract_sse_status(const __acrt_fenv_abstract_status)
FUNC 63804 12 0 get_machine_sse_control()
FUNC 6381c d 0 get_machine_sse_status()
FUNC 6382c 23 0 set_machine_sse_control(const __acrt_fenv_machine_sse_control)
FUNC 63858 1b 0 set_machine_sse_status(const __acrt_fenv_machine_sse_status)
FUNC 6387c df 0 to_abstract_control(const __acrt_fenv_machine_sse_control)
FUNC 63994 137 0 to_machine_sse_control(const __acrt_fenv_abstract_control)
FUNC 63b18 57 0 to_machine_sse_status(const __acrt_fenv_abstract_status)
FUNC 63b84 34 0 translate_control_denormal_control_from_sse(const __acrt_fenv_machine_sse_control)
FUNC 63bc8 30 0 translate_control_denormal_control_to_sse(const __acrt_fenv_abstract_control)
FUNC 63c04 17 0 _acrt_fenv_expand_round_control(__acrt_fenv_abstract_control)
FUNC 63c20 9 0 _acrt_fenv_get_common_round_control(__acrt_fenv_abstract_control)
FUNC 63c2c f1 0 _acrt_fenv_get_control()
FUNC 63d5c b 0 _acrt_fenv_get_fp_status_word_from_exception_mask(__acrt_fenv_abstract_status)
FUNC 63d6c 53 0 _acrt_fenv_get_status()
FUNC 63dd4 147 0 _acrt_fenv_set_control(__acrt_fenv_abstract_control)
FUNC 63f6c 83 0 _acrt_fenv_set_status(__acrt_fenv_abstract_status)
FUNC 64010 c6 0 _abstract_cw(unsigned int)
FUNC 64108 5b 0 _abstract_sw(unsigned int)
FUNC 6417c 6e 0 clearfp(<NoType>)
FUNC 64208 5 0 control87(unsigned int, unsigned int)
FUNC 64210 9 0 controlfp(unsigned int, unsigned int)
FUNC 6421c a 0 fpreset(<NoType>)
FUNC 64228 bf 0 _hw_cw(unsigned int)
FUNC 64318 34 0 set_controlfp(unsigned int, unsigned int)
FUNC 6435c 62 0 statusfp(<NoType>)
FUNC 643d8 2be 0 common_control87(unsigned int, unsigned int)
FUNC 64748 65 0 _call_matherr(int, int, char*, double, double, double, unsigned long long)
FUNC 647c8 ba 0 _exception_enabled(unsigned int, unsigned long long)
FUNC 648b0 127 0 handle_error(char*, int, unsigned long long, int, int, int, double, double, int)
FUNC 64a20 133 0 handle_errorf(char*, int, unsigned long long, int, int, int, float, float, int)
FUNC 64ba0 19 0 handle_nan(unsigned long long)
FUNC 64bc0 f 0 handle_nanf(unsigned int)
FUNC 64be0 70 0 _acrt_initialize_fma3(<NoType>)
FUNC 64c6c 7 0 get_FMA3_enable(<NoType>)
FUNC 64c74 17 0 set_FMA3_enable(int)
FUNC 64c90 20 0 log10_special(double, double, unsigned int)
FUNC 64cb8 20 0 log10f_special(float, float, unsigned int)
FUNC 64ce0 20 0 log_special(double, double, unsigned int)
FUNC 64d08 96 0 _log_special_common(double, double, unsigned int, unsigned int, char*)
FUNC 64dc4 20 0 logf_special(float, float, unsigned int)
FUNC 64dec 9c 0 _logf_special_common(float, float, unsigned int, unsigned int, char*)
FUNC 64eb0 aa 0 console_output_reopen_and_retry<<lambda_61c1b8a38cedca4df5fdc542e6ccae6d> >(__dcrt_write_console::__l2::<lambda_61c1b8a38cedca4df5fdc542e6ccae6d> const&)
FUNC 64f84 17 0 <lambda_61c1b8a38cedca4df5fdc542e6ccae6d>::<lambda_61c1b8a38cedca4df5fdc542e6ccae6d>(void const* const&, unsigned long const&, unsigned long* const&)
FUNC 64fa0 27 0 <lambda_61c1b8a38cedca4df5fdc542e6ccae6d>::operator()() const
FUNC 64fd0 3b 0 __dcrt_lowio_initialize_console_output()
FUNC 6501c 52 0 _dcrt_lowio_ensure_console_output_initialized()
FUNC 65084 1c 0 _dcrt_terminate_console_output()
FUNC 650a8 be 0 _dcrt_write_console(void const*, unsigned long, unsigned long*)
FUNC 651b0 10 0 get_fpsr()
FUNC 651c0 a 0 set_fpsr()
FUNC 651ca 14 0 fclrf()
FUNC 651de 1f 0 frnd()
FUNC 65214 43 0 errcode(unsigned int)
FUNC 65268 f1 0 except1(int, int, double, double, unsigned long long)
FUNC 65398 106 0 except2(int, int, double, double, double, unsigned long long)
FUNC 654e0 31 0 _get_fname(unsigned int)
FUNC 65520 267 0 handle_exc(unsigned int, double*, unsigned long long)
FUNC 65820 5 0 handle_qnan2(double, double)
FUNC 65828 27 0 raise_exc(_FPIEEE_RECORD*, unsigned long long*, int, int, double*, double*)
FUNC 65858 30d 0 raise_exc_ex(_FPIEEE_RECORD*, unsigned long long*, int, int, void*, void*, int)
FUNC 65c28 2a 0 raise_excf(_FPIEEE_RECORD*, unsigned long long*, int, int, float*, float*)
FUNC 65c5c 2e 0 set_errno_from_matherr(int)
FUNC 65c98 d4 0 umatherr(int, unsigned int, double, double, double, unsigned long long)
FUNC 65da4 1d 0 clrfp(<NoType>)
FUNC 65dc8 7c 0 ctrlfp(unsigned long long, unsigned long long)
FUNC 65e64 1f 0 set_statfp(unsigned long long)
FUNC 65e8c 11 0 statfp(<NoType>)
FUNC 65ea4 4e 0 add_exp(double, int)
FUNC 65f08 138 0 decomp(double, int*)
FUNC 66090 1d 0 get_exp(double)
FUNC 660b4 30 0 set_bexp(double, int)
FUNC 660f0 38 0 set_exp(double, int)
FUNC 66138 74 0 sptype(double)
FUNC 661d0 44 0 FindPESection(unsigned char*, unsigned long long)
FUNC 66230 4d 0 IsNonwritableInCurrentImage(void const*)
FUNC 66290 2d 0 ValidateImageBase(unsigned char*)
FUNC 662c8 b 0 type_info::~type_info()
FUNC 662d8 2b 0 type_info::`scalar deleting destructor'(unsigned int)
FUNC 66310 1d 0 _GSHandlerCheck(_EXCEPTION_RECORD*, void*, _CONTEXT*, _DISPATCHER_CONTEXT*)
FUNC 66334 5b 0 _GSHandlerCheckCommon(void*, _DISPATCHER_CONTEXT*, _GS_HANDLER_DATA*)
FUNC 663c0 21 0 _security_check_cookie()
FUNC 663f0 5 0 operator delete(void*, unsigned long long)
FUNC 663f8 85 0 _GSHandlerCheck_SEH(_EXCEPTION_RECORD*, void*, _CONTEXT*, _DISPATCHER_CONTEXT*)
FUNC 664a0 34 0 _raise_securityfailure(_EXCEPTION_POINTERS* const)
FUNC 664e4 d1 0 _report_gsfailure(unsigned long long)
FUNC 665ec 13 0 _report_rangecheckfailure(<NoType>)
FUNC 66604 9b 0 _report_securityfailure(unsigned long)
FUNC 666c8 10e 0 _report_securityfailureEx(unsigned long, unsigned long, void**)
FUNC 6681c 6d 0 capture_current_context(_CONTEXT*)
FUNC 668a4 71 0 capture_previous_context(_CONTEXT*)
FUNC 66950 51 0 _chkstk()
FUNC 669bc 5 0 operator delete(void*)
PUBLIC 669c1 0 RtlUnwindEx
PUBLIC 669c7 0 InterlockedPushEntrySList
PUBLIC 669cd 0 InterlockedFlushSList
PUBLIC 669d3 0 GetLastError
PUBLIC 669d9 0 SetLastError
PUBLIC 669df 0 EnterCriticalSection
PUBLIC 669e5 0 LeaveCriticalSection
PUBLIC 669eb 0 DeleteCriticalSection
PUBLIC 669f1 0 InitializeCriticalSectionAndSpinCount
PUBLIC 669f7 0 TlsAlloc
PUBLIC 669fd 0 TlsGetValue
PUBLIC 66a03 0 TlsSetValue
PUBLIC 66a09 0 TlsFree
PUBLIC 66a0f 0 FreeLibrary
PUBLIC 66a15 0 GetProcAddress
PUBLIC 66a1b 0 LoadLibraryExW
PUBLIC 66a21 0 EncodePointer
PUBLIC 66a27 0 RaiseException
PUBLIC 66a2d 0 RtlPcToFileHeader
PUBLIC 66a33 0 GetStdHandle
PUBLIC 66a39 0 WriteFile
PUBLIC 66a3f 0 GetModuleFileNameW
PUBLIC 66a45 0 GetCurrentProcess
PUBLIC 66a4b 0 ExitProcess
PUBLIC 66a51 0 TerminateProcess
PUBLIC 66a57 0 GetModuleHandleExW
PUBLIC 66a5d 0 GetCommandLineA
PUBLIC 66a63 0 GetCommandLineW
PUBLIC 66a69 0 HeapFree
PUBLIC 66a6f 0 HeapAlloc
PUBLIC 66a75 0 GetCurrentThread
PUBLIC 66a7b 0 GetFileType
PUBLIC 66a81 0 GetDateFormatW
PUBLIC 66a87 0 GetTimeFormatW
PUBLIC 66a8d 0 CompareStringW
PUBLIC 66a93 0 LCMapStringW
PUBLIC 66a99 0 GetLocaleInfoW
PUBLIC 66a9f 0 IsValidLocale
PUBLIC 66aa5 0 GetUserDefaultLCID
PUBLIC 66aab 0 EnumSystemLocalesW
PUBLIC 66ab1 0 OutputDebugStringW
PUBLIC 66ab7 0 FindClose
PUBLIC 66abd 0 FindFirstFileExW
PUBLIC 66ac3 0 FindNextFileW
PUBLIC 66ac9 0 IsValidCodePage
PUBLIC 66acf 0 GetACP
PUBLIC 66ad5 0 GetOEMCP
PUBLIC 66adb 0 GetCPInfo
PUBLIC 66ae1 0 MultiByteToWideChar
PUBLIC 66ae7 0 WideCharToMultiByte
PUBLIC 66aed 0 GetEnvironmentStringsW
PUBLIC 66af3 0 FreeEnvironmentStringsW
PUBLIC 66af9 0 SetEnvironmentVariableW
PUBLIC 66aff 0 SetStdHandle
PUBLIC 66b05 0 GetStringTypeW
PUBLIC 66b0b 0 GetProcessHeap
PUBLIC 66b11 0 SetConsoleCtrlHandler
PUBLIC 66b17 0 GetFileSizeEx
PUBLIC 66b1d 0 SetFilePointerEx
PUBLIC 66b23 0 FlushFileBuffers
PUBLIC 66b29 0 GetConsoleCP
PUBLIC 66b2f 0 GetConsoleMode
PUBLIC 66b35 0 HeapSize
PUBLIC 66b3b 0 HeapReAlloc
PUBLIC 66b41 0 CloseHandle
PUBLIC 66b47 0 ReadFile
PUBLIC 66b4d 0 ReadConsoleW
PUBLIC 66b53 0 CreateFileW
PUBLIC 66b59 0 WriteConsoleW
FUNC 66b70 c7 0 memcmp()
FUNC 66c6c 149 0 strrchr(char const*, int)
FUNC 66e08 29 0 local_unwind(void*, void*)
FUNC 66e3c 89 0 strchr(char const*, int)
FUNC 66ee8 91 0 wcschr(wchar_t const*, wchar_t)
PUBLIC 66f9d 0 RtlUnwind
FUNC 68b20 2 0 guard_dispatch_icall_nop()
FUNC 69b30 1e 0 `__scrt_common_main_seh'::`1'::filt$0
FUNC 69b55 18 0 _scrt_is_nonwritable_in_current_image$filt$0
FUNC 69b73 18 0 _DestructExceptionObject$filt$0
FUNC 69b91 c 0 `UnDecorator::getDecoratedName'::`1'::dtor$0
FUNC 69ba0 16 0 _unDNameEx$fin$0
FUNC 69bbb 91 0 `_CallSETranslator<__FrameHandler3>'::`1'::filt$0
FUNC 69c70 91 0 `_CallSETranslator<__FrameHandler4>'::`1'::filt$0
FUNC 69d25 25 0 `__FrameHandler3::CxxCallCatchBlock'::`1'::filt$0
FUNC 69d4a 78 0 `__FrameHandler3::CxxCallCatchBlock'::`1'::fin$1
FUNC 69de9 3e 0 `__FrameHandler4::CxxCallCatchBlock'::`1'::filt$0
FUNC 69e27 94 0 `__FrameHandler4::CxxCallCatchBlock'::`1'::fin$1
FUNC 69eef 16 0 `__FrameHandler3::FrameUnwindToState'::`1'::filt$0
FUNC 69f05 23 0 `__FrameHandler3::FrameUnwindToState'::`1'::fin$1
FUNC 69f36 16 0 `__FrameHandler4::FrameUnwindToState'::`1'::filt$0
FUNC 69f4c 23 0 `__FrameHandler4::FrameUnwindToState'::`1'::fin$1
FUNC 69f7d 1b 0 `__crt_seh_guarded_call<int>::operator()<<lambda_0d412022a4b28cc8a401ea49574e8ae6>,<lambda_a775ed57af18ba8e4d5dc780aa9068fe> & __ptr64,<lambda_975a71a6baa488a08f4e15f6b0339b9e> >'::`1'::fin$0
FUNC 69f9e 1b 0 `__crt_seh_guarded_call<int>::operator()<<lambda_55577cdf4457e05136e8c1bc6549f697>,<lambda_ee59099aa97e0ff6f003b984c1584058> & __ptr64,<lambda_cd4250c7ac9eb50c05cf8bb6b444cf42> >'::`1'::fin$0
FUNC 69fbf 1b 0 `__crt_seh_guarded_call<int>::operator()<<lambda_74b93660f2d9eb3fb15c5de9eff9db7b>,<lambda_32f117a32e8f8eb613cbf2ca819ed45e> & __ptr64,<lambda_7322894ee7c8a2d41153fedefeab09e3> >'::`1'::fin$0
FUNC 69fe0 1b 0 `__crt_seh_guarded_call<int>::operator()<<lambda_a62c933ada0517137acf5807a1eeac1f>,<lambda_a31071773b9a94e445cbd5d04ef99106> & __ptr64,<lambda_56065050dbf3ada7e59a83db45153de3> >'::`1'::fin$0
FUNC 6a001 1b 0 `__crt_seh_guarded_call<int>::operator()<<lambda_d1aaa8c864b24422b55e9201296d78b9>,<lambda_a2288fdbbd702c8f223b438290af01a4> & __ptr64,<lambda_4f4c57057ae4c2bc431a3fc6ace2791f> >'::`1'::fin$0
FUNC 6a022 1b 0 `__crt_seh_guarded_call<int>::operator()<<lambda_e823f95267a816de70ce630183b86bc2>,<lambda_7e489fec146d5348dbc86d3cce37c1b5> & __ptr64,<lambda_57931389d27d3dce8b0bd13c3d0d8333> >'::`1'::fin$0
FUNC 6a043 1a 0 `__crt_seh_guarded_call<void>::operator()<<lambda_d80eeec6fff315bfe5c115232f3240e3>,<lambda_6e4b09c48022b2350581041d5f6b0c4c> & __ptr64,<lambda_2358e3775559c9db80273638284d5e45> >'::`1'::fin$0
FUNC 6a063 1b 0 `<lambda_6e4b09c48022b2350581041d5f6b0c4c>::operator()'::`1'::filt$0
FUNC 6a084 17 0 setmode$fin$0
FUNC 6a0a0 1a 0 `__crt_seh_guarded_call<void>::operator()<<lambda_0a55505eb881d180377eb1fc64ffb544>,<lambda_862e9a3f04921db6ca1ce3faa2bf3edf> & __ptr64,<lambda_c91f0b5e4ab41df1063aa1a95f49bd71> >'::`1'::fin$0
FUNC 6a0c0 1a 0 `__crt_seh_guarded_call<void>::operator()<<lambda_1d892b297fdedeee07ed8124eeb2f2fa>,<lambda_ffc046909424fd52df0ac47e64813305> & __ptr64,<lambda_01a7098693036236037e7cdb9bca3d73> >'::`1'::fin$0
FUNC 6a0e0 1a 0 `__crt_seh_guarded_call<void>::operator()<<lambda_410d79af7f07d98d83a3f525b3859a53>,<lambda_3e16ef9562a7dcce91392c22ab16ea36> & __ptr64,<lambda_38119f0e861e05405d8a144b9b982f0a> >'::`1'::fin$0
FUNC 6a100 21 0 `__crt_seh_guarded_call<void>::operator()<<lambda_7f2adfce497ff2baa965cd4f576ecfd1>,<lambda_2a444430fde8c29194d880d93eed5e8f> & __ptr64,<lambda_8dff2cf36a5417162780cd64fa2883ef> & __ptr64>'::`1'::fin$0
FUNC 6a129 1a 0 `__crt_seh_guarded_call<void>::operator()<<lambda_a48fd90c2dacdd6561e44078457d03a7>,<lambda_ebab98244f73a74f49db879bf13fa982> & __ptr64,<lambda_8b3bdacfa7480f205f16cb49964db269> >'::`1'::fin$0
FUNC 6a149 19 0 free_locale$fin$1
FUNC 6a162 19 0 free_locale$fin$0
FUNC 6a187 1a 0 `__crt_seh_guarded_call<int>::operator()<<lambda_638799b9deba96c50f710eeac98168cd>,<lambda_22ebabd17bc4fa466a2aca6d8deb888d> & __ptr64,<lambda_a6f7d7db0129f75315ebf26d50c089f1> >'::`1'::fin$0
FUNC 6a1a7 1a 0 `__crt_seh_guarded_call<int>::operator()<<lambda_7777bce6b2f8c936911f934f8298dc43>,<lambda_f03950bc5685219e0bcd2087efbe011e> & __ptr64,<lambda_3883c3dff614d5e0c5f61bb1ac94921c> >'::`1'::fin$0
FUNC 6a1c7 1a 0 `__crt_seh_guarded_call<void>::operator()<<lambda_0ae27a3a962d80f24befdcbee591983d>,<lambda_8d0ee55de4b1038c4002e0adecdf1839> & __ptr64,<lambda_dc504788e8f1664fe9b84e20bfb512f2> >'::`1'::fin$0
FUNC 6a1e7 1a 0 `__crt_seh_guarded_call<void>::operator()<<lambda_2d41944a1d46af3157314b8a01080d33>,<lambda_8f455de75cd7d7f24b4096f044d8b9e6> & __ptr64,<lambda_aa500f224e6afead328df44964fe2772> >'::`1'::fin$0
FUNC 6a207 1a 0 `__crt_seh_guarded_call<void>::operator()<<lambda_aa87e3671a710a21b5dc78c0bdf72e11>,<lambda_92619d2358a28f41a33ba319515a20b9> & __ptr64,<lambda_6992ecaafeb10aed2b74cb1fae11a551> >'::`1'::fin$0
FUNC 6a227 1a 0 `__crt_seh_guarded_call<void>::operator()<<lambda_f2e299630e499de9f9a165e60fcd3db5>,<lambda_2ae9d31cdba2644fcbeaf08da7c24588> & __ptr64,<lambda_40d01ff24d0e7b3814fdbdcee8eab3c7> >'::`1'::fin$0
FUNC 6a247 18 0 fputwc$fin$0
FUNC 6a265 1a 0 fputc$fin$0
FUNC 6a285 19 0 _acrt_initialize_lowio$fin$0
FUNC 6a2a4 1a 0 `__crt_seh_guarded_call<int>::operator()<<lambda_bd00b5aa228bd7e7e5b2b5db5fd2933b>,<lambda_777d11615145f89ee95b9466d285deeb> & __ptr64,<lambda_6e5e48fbd24f9f8f81b203eb3d877683> >'::`1'::fin$0
FUNC 6a2c4 19 0 fcloseall$fin$0
FUNC 6a2e3 1b 0 `__crt_seh_guarded_call<void>::operator()<<lambda_842d9ff0dc9ef11c61343bbaebe7f885>,<lambda_c5860995281e5c4ce005b3de8f5874ee> & __ptr64,<lambda_d90129c13df834fdcbf8d2b88dafcf2d> >'::`1'::fin$0
FUNC 6a304 1d 0 `__crt_seh_guarded_call<void>::operator()<<lambda_886d6c58226a84441f68b9f2b8217b83>,<lambda_ab61a845afdef5b7c387490eaf3616ee> & __ptr64,<lambda_f7f22ab5edc0698d5f6905b0d3f44752> >'::`1'::fin$0
FUNC 6a328 1b 0 `__crt_seh_guarded_call<int>::operator()<<lambda_c376a267cfb53b6959b3b692ec76b120>,<lambda_9a32fed5bf61b6b509b2d3f6003082a1> & __ptr64,<lambda_572fbb9fa0ab338edf41edfd4b5fcc8d> >'::`1'::fin$0
FUNC 6a349 1a 0 `__crt_seh_guarded_call<void>::operator()<<lambda_efdfa57d1f175319df784efa44bb7b81>,<lambda_5f0a4c1567f8adc6734073e5d1e1b35c> & __ptr64,<lambda_2e8a7d3640ea6ccb4c2413664c2db6fd> >'::`1'::fin$0
FUNC 6a369 19 0 `update_thread_multibyte_data_internal'::`1'::fin$0
FUNC 6a388 19 0 _acrt_lowio_ensure_fh_exists$fin$0
FUNC 6a3a7 19 0 alloc_osfhnd$fin$0
FUNC 6a3c6 41 0 open_osfhandle$fin$0
FUNC 6a417 19 0 _acrt_update_thread_locale_data$fin$0
FUNC 6a436 16 0 query_new_handler$fin$0
FUNC 6a451 16 0 set_new_handler$fin$0
FUNC 6a46c 1a 0 `__crt_seh_guarded_call<void (__cdecl*)(int)>::operator()<<lambda_450d765d439847d4c735a33c368b5fc0>,<lambda_44731a7d0e6d81c3e6aa82d741081786> & __ptr64,<lambda_601a2a7da3b7a96e9554ac7215c4b07c> >'::`1'::fin$0
FUNC 6a48c 19 0 `ctrlevent_capture'::`1'::fin$0
FUNC 6a4ab 21 0 raise$fin$0
FUNC 6a4d4 19 0 signal$fin$0
FUNC 6a4f3 18 0 fclose$fin$0
FUNC 6a511 1a 0 `__crt_seh_guarded_call<int>::operator()<<lambda_a37b2b86f63e897a80ea819b0eb08c01>,<lambda_38ce7e780aa69e748d6df282ebc68efe> & __ptr64,<lambda_99fb1378e971ab6e7edea83e3a7a83a2> >'::`1'::fin$0
FUNC 6a531 17 0 write$fin$0
FUNC 6a54d 17 0 `common_lseek<long>'::`1'::fin$0
FUNC 6a569 17 0 `common_lseek<__int64>'::`1'::fin$0
FUNC 6a585 1a 0 `__crt_seh_guarded_call<int>::operator()<<lambda_751a882b2c74d4b022dec766aa51a29a>,<lambda_628dfdc04ba53c8bfc02c9951375f3f5> & __ptr64,<lambda_f6c7be5f7998530c34de24c7437d6b54> >'::`1'::fin$0
FUNC 6a5a5 19 0 `__acrt_stdio_allocate_stream'::`1'::fin$0
FUNC 6a5c4 1a 0 `__crt_seh_guarded_call<unsigned short>::operator()<<lambda_0384895ae1aa6ccbfe369a30d6ca2ef7>,<lambda_9e0b6ab72a5b3ae37ad997d08b519f50> & __ptr64,<lambda_7e22f70504d73c22058e5832bde5914f> >'::`1'::fin$0
FUNC 6a5e4 17 0 read$fin$0
FUNC 6a600 2c 0 common_control87$filt$0
FUNC 6a637 2c 0 ctrlfp$filt$0
FUNC 6a670 20 0 IsNonwritableInCurrentImage$filt$0
STACK CFI INIT 6bc0 27 .cfa: $rsp 8 + .ra: .cfa 8 - ^
STACK CFI 6bc0 .cfa: $rsp 48 +
STACK CFI INIT 6bf0 46 .cfa: $rsp 8 + .ra: .cfa 8 - ^
STACK CFI 6bf0 .cfa: $rsp 48 +
STACK CFI INIT 6c40 26 .cfa: $rsp 8 + .ra: .cfa 8 - ^
STACK CFI 6c40 .cfa: $rsp 48 +
STACK CFI INIT 6c90 49 .cfa: $rsp 8 + .ra: .cfa 8 - ^
STACK CFI 6c90 .cfa: $rsp 80 +
STACK CFI INIT 6cf0 4b .cfa: $rsp 8 + .ra: .cfa 8 - ^
STACK CFI 6cf0 .cfa: $rsp 80 +
STACK CFI INIT 6d50 48 .cfa: $rsp 8 + .ra: .cfa 8 - ^
STACK CFI 6d50 .cfa: $rsp 80 +
STACK CFI INIT 6db0 51 .cfa: $rsp 8 + .ra: .cfa 8 - ^
STACK CFI 6db0 .cfa: $rsp 96 +
STACK CFI INIT 6e20 43 .cfa: $rsp 8 + .ra: .cfa 8 - ^
STACK CFI 6e20 .cfa: $rsp 80 +
STACK CFI INIT 6e80 d9 .cfa: $rsp 8 + .ra: .cfa 8 - ^
STACK CFI 6e80 .cfa: $rsp 160 +
STACK CFI INIT 6fa0 64 .cfa: $rsp 8 + .ra: .cfa 8 - ^
STACK CFI 6fa0 .cfa: $rsp 80 +
STACK CFI INIT 7020 6c .cfa: $rsp 8 + .ra: .cfa 8 - ^
STACK CFI 7020 .cfa: $rsp 112 +
STACK CFI INIT 97b0 b7 .cfa: $rsp 8 + .ra: .cfa 8 - ^
STACK CFI 97b0 .cfa: $rsp 48 +
STACK CFI INIT 9894 10 .cfa: $rsp 8 + .ra: .cfa 8 - ^
STACK CFI 9894 .cfa: $rsp 48 +
STACK CFI INIT 98a8 19 .cfa: $rsp 8 + .ra: .cfa 8 - ^
STACK CFI 98a8 .cfa: $rsp 48 +
STACK CFI INIT 98c8 12 .cfa: $rsp 8 + .ra: .cfa 8 - ^
STACK CFI 98c8 .cfa: $rsp 48 +
STACK CFI INIT 98e0 17c .cfa: $rsp 8 + .ra: .cfa 8 - ^
STACK CFI 98e0 .cfa: $rsp 64 +
STACK CFI INIT 9abc 14 .cfa: $rsp 8 + .ra: .cfa 8 - ^
STACK CFI 9abc .cfa: $rsp 48 +
STACK CFI INIT 9ae0 36 .cfa: $rsp 8 + .ra: .cfa 8 - ^
STACK CFI 9ae0 .cfa: $rsp 48 +
STACK CFI INIT 9b30 1b .cfa: $rsp 8 + .ra: .cfa 8 - ^
STACK CFI 9b30 .cfa: $rsp 48 +
STACK CFI INIT 9b54 14 .cfa: $rsp 8 + .ra: .cfa 8 - ^
STACK CFI 9b54 .cfa: $rsp 48 +
STACK CFI INIT 9b70 12 .cfa: $rsp 8 + .ra: .cfa 8 - ^
STACK CFI 9b70 .cfa: $rsp 48 +
STACK CFI INIT 9c7c 39 .cfa: $rsp 8 + .ra: .cfa 8 - ^
STACK CFI 9c7c .cfa: $rsp 48 +
STACK CFI INIT 9cc4 34 .cfa: $rsp 8 + .ra: .cfa 8 - ^
STACK CFI 9cc4 .cfa: $rsp 48 +
STACK CFI INIT 9d08 15 .cfa: $rsp 8 + .ra: .cfa 8 - ^
STACK CFI 9d08 .cfa: $rsp 48 +
STACK CFI INIT 9d24 28 .cfa: $rsp 8 + .ra: .cfa 8 - ^
STACK CFI 9d24 .cfa: $rsp 48 +
STACK CFI INIT 9d58 15 .cfa: $rsp 8 + .ra: .cfa 8 - ^
STACK CFI 9d58 .cfa: $rsp 48 +
STACK CFI INIT 9d74 60 .cfa: $rsp 8 + .ra: .cfa 8 - ^
STACK CFI 9d74 .cfa: $rsp 48 +
STACK CFI INIT 9dec 30 .cfa: $rsp 8 + .ra: .cfa 8 - ^
STACK CFI 9dec .cfa: $rsp 48 +
STACK CFI INIT 9e28 14 .cfa: $rsp 8 + .ra: .cfa 8 - ^
STACK CFI 9e28 .cfa: $rsp 48 +
STACK CFI INIT 9e44 49 .cfa: $rsp 8 + .ra: .cfa 8 - ^
STACK CFI 9e44 .cfa: $rsp 48 +
STACK CFI INIT 9ea0 d8 .cfa: $rsp 8 + .ra: .cfa 8 - ^
STACK CFI 9ea0 .cfa: $rsp 80 +
STACK CFI INIT 9fb0 99 .cfa: $rsp 8 + .ra: .cfa 8 - ^
STACK CFI 9fb0 .cfa: $rsp 32 +
STACK CFI INIT a070 24 .cfa: $rsp 8 + .ra: .cfa 8 - ^
STACK CFI a070 .cfa: $rsp 48 +
STACK CFI INIT a0a0 2b .cfa: $rsp 8 + .ra: .cfa 8 - ^
STACK CFI a0a0 .cfa: $rsp 48 +
STACK CFI INIT a0d8 4f .cfa: $rsp 8 + .ra: .cfa 8 - ^
STACK CFI a0d8 .cfa: $rsp 48 +
STACK CFI INIT a180 17 .cfa: $rsp 8 + .ra: .cfa 8 - ^
STACK CFI a180 .cfa: $rsp 48 +
STACK CFI INIT a19c 6b .cfa: $rsp 8 + .ra: .cfa 8 - ^
STACK CFI a19c .cfa: $rsp 48 +
STACK CFI INIT a224 ac .cfa: $rsp 8 + .ra: .cfa 8 - ^
STACK CFI a224 .cfa: $rsp 48 +
STACK CFI INIT a358 1b .cfa: $rsp 8 + .ra: .cfa 8 - ^
STACK CFI a358 .cfa: $rsp 48 +
STACK CFI INIT a3b0 14a .cfa: $rsp 8 + .ra: .cfa 8 - ^
STACK CFI a3b0 .cfa: $rsp 1488 +
STACK CFI INIT a54c 3a .cfa: $rsp 8 + .ra: .cfa 8 - ^
STACK CFI a54c .cfa: $rsp 160 +
STACK CFI INIT a5a0 52 .cfa: $rsp 8 + .ra: .cfa 8 - ^
STACK CFI a5a0 .cfa: $rsp 48 +
STACK CFI INIT a620 38 .cfa: $rsp 8 + .ra: .cfa 8 - ^
STACK CFI a620 .cfa: $rsp 48 +
STACK CFI INIT a668 3c .cfa: $rsp 8 + .ra: .cfa 8 - ^
STACK CFI a668 .cfa: $rsp 48 +
STACK CFI INIT a6b4 3c .cfa: $rsp 8 + .ra: .cfa 8 - ^
STACK CFI a6b4 .cfa: $rsp 48 +
STACK CFI INIT a72c 1b9 .cfa: $rsp 8 + .ra: .cfa 8 - ^
STACK CFI a72c .cfa: $rsp 48 +
STACK CFI INIT a9c4 20b .cfa: $rsp 8 + .ra: .cfa 8 - ^
STACK CFI a9c4 .cfa: $rsp 112 +
STACK CFI INIT ac54 32 .cfa: $rsp 8 + .ra: .cfa 8 - ^
STACK CFI ac54 .cfa: $rsp 48 +
STACK CFI INIT ac94 14 .cfa: $rsp 8 + .ra: .cfa 8 - ^
STACK CFI ac94 .cfa: $rsp 48 +
STACK CFI INIT acb0 12 .cfa: $rsp 8 + .ra: .cfa 8 - ^
STACK CFI acb0 .cfa: $rsp 48 +
STACK CFI INIT acc8 20 .cfa: $rsp 8 + .ra: .cfa 8 - ^
STACK CFI acc8 .cfa: $rsp 48 +
STACK CFI INIT acf0 10 .cfa: $rsp 8 + .ra: .cfa 8 - ^
STACK CFI acf0 .cfa: $rsp 48 +
STACK CFI INIT ad50 1b .cfa: $rsp 8 + .ra: .cfa 8 - ^
STACK CFI ad50 .cfa: $rsp 48 +
STACK CFI INIT ad74 1b .cfa: $rsp 8 + .ra: .cfa 8 - ^
STACK CFI ad74 .cfa: $rsp 48 +
STACK CFI INIT ae10 1b .cfa: $rsp 8 + .ra: .cfa 8 - ^
STACK CFI ae10 .cfa: $rsp 48 +
STACK CFI INIT ae34 1b .cfa: $rsp 8 + .ra: .cfa 8 - ^
STACK CFI ae34 .cfa: $rsp 48 +
STACK CFI INIT ae88 2a .cfa: $rsp 8 + .ra: .cfa 8 - ^
STACK CFI ae88 .cfa: $rsp 48 +
STACK CFI INIT af08 11c .cfa: $rsp 8 + .ra: .cfa 8 - ^
STACK CFI af08 .cfa: $rsp 112 +
STACK CFI INIT b080 10 .cfa: $rsp 8 + .ra: .cfa 8 - ^
STACK CFI b080 .cfa: $rsp 16 +
STACK CFI INIT b0a0 190 .cfa: $rsp 8 + .ra: .cfa 8 - ^
STACK CFI b0a0 .cfa: $rsp 8 +
STACK CFI INIT b2b0 18 .cfa: $rsp 8 + .ra: .cfa 8 - ^
STACK CFI b2b0 .cfa: $rsp 8 +
STACK CFI INIT b2d0 1 .cfa: $rsp 8 + .ra: .cfa 8 - ^
STACK CFI b2d0 .cfa: $rsp 8 +
STACK CFI INIT b2e0 1 .cfa: $rsp 8 + .ra: .cfa 8 - ^
STACK CFI b2e0 .cfa: $rsp 8 +
STACK CFI INIT b390 5b .cfa: $rsp 8 + .ra: .cfa 8 - ^
STACK CFI b390 .cfa: $rsp 48 +
STACK CFI INIT b404 71 .cfa: $rsp 8 + .ra: .cfa 8 - ^
STACK CFI b404 .cfa: $rsp 48 +
STACK CFI INIT b4a0 2f .cfa: $rsp 8 + .ra: .cfa 8 - ^
STACK CFI b4a0 .cfa: $rsp 48 +
STACK CFI INIT b514 4a .cfa: $rsp 8 + .ra: .cfa 8 - ^
STACK CFI b514 .cfa: $rsp 48 +
STACK CFI INIT b570 5b .cfa: $rsp 8 + .ra: .cfa 8 - ^
STACK CFI b570 .cfa: $rsp 64 +
STACK CFI INIT b5e4 12 .cfa: $rsp 8 + .ra: .cfa 8 - ^
STACK CFI b5e4 .cfa: $rsp 48 +
STACK CFI INIT b5fc 12 .cfa: $rsp 8 + .ra: .cfa 8 - ^
STACK CFI b5fc .cfa: $rsp 48 +
STACK CFI INIT b614 12 .cfa: $rsp 8 + .ra: .cfa 8 - ^
STACK CFI b614 .cfa: $rsp 48 +
STACK CFI INIT b62c a .cfa: $rsp 8 + .ra: .cfa 8 - ^
STACK CFI b62c .cfa: $rsp 48 +
STACK CFI INIT b638 a5 .cfa: $rsp 8 + .ra: .cfa 8 - ^
STACK CFI b638 .cfa: $rsp 48 +
STACK CFI INIT b71c 1a .cfa: $rsp 8 + .ra: .cfa 8 - ^
STACK CFI b71c .cfa: $rsp 48 +
STACK CFI INIT b73c 1b .cfa: $rsp 8 + .ra: .cfa 8 - ^
STACK CFI b73c .cfa: $rsp 48 +
STACK CFI INIT b794 1b .cfa: $rsp 8 + .ra: .cfa 8 - ^
STACK CFI b794 .cfa: $rsp 48 +
STACK CFI INIT b7b8 34 .cfa: $rsp 8 + .ra: .cfa 8 - ^
STACK CFI b7b8 .cfa: $rsp 48 +
STACK CFI INIT b7fc 1f .cfa: $rsp 8 + .ra: .cfa 8 - ^
STACK CFI b7fc .cfa: $rsp 48 +
STACK CFI INIT b824 4d .cfa: $rsp 8 + .ra: .cfa 8 - ^
STACK CFI b824 .cfa: $rsp 48 +
STACK CFI INIT b884 19 .cfa: $rsp 8 + .ra: .cfa 8 - ^
STACK CFI b884 .cfa: $rsp 48 +
STACK CFI INIT b8a4 cb .cfa: $rsp 8 + .ra: .cfa 8 - ^
STACK CFI b8a4 .cfa: $rsp 48 +
STACK CFI INIT b9a4 4d .cfa: $rsp 8 + .ra: .cfa 8 - ^
STACK CFI b9a4 .cfa: $rsp 48 +
STACK CFI INIT ba04 51 .cfa: $rsp 8 + .ra: .cfa 8 - ^
STACK CFI ba04 .cfa: $rsp 48 +
STACK CFI INIT ba6c 22 .cfa: $rsp 8 + .ra: .cfa 8 - ^
STACK CFI ba6c .cfa: $rsp 48 +
STACK CFI INIT ba98 46 .cfa: $rsp 8 + .ra: .cfa 8 - ^
STACK CFI ba98 .cfa: $rsp 48 +
STACK CFI INIT bb10 37 .cfa: $rsp 8 + .ra: .cfa 8 - ^
STACK CFI bb10 .cfa: $rsp 48 +
STACK CFI INIT bcb8 119 .cfa: $rsp 8 + .ra: .cfa 8 - ^
STACK CFI bcb8 .cfa: $rsp 64 +
STACK CFI INIT be18 1d6 .cfa: $rsp 8 + .ra: .cfa 8 - ^
STACK CFI be18 .cfa: $rsp 80 +
STACK CFI INIT c064 fe .cfa: $rsp 8 + .ra: .cfa 8 - ^
STACK CFI c064 .cfa: $rsp 48 +
STACK CFI INIT c1a4 137 .cfa: $rsp 8 + .ra: .cfa 8 - ^
STACK CFI c1a4 .cfa: $rsp 64 +
STACK CFI INIT c328 73 .cfa: $rsp 8 + .ra: .cfa 8 - ^
STACK CFI c328 .cfa: $rsp 48 +
STACK CFI INIT c3b8 45 .cfa: $rsp 8 + .ra: .cfa 8 - ^
STACK CFI c3b8 .cfa: $rsp 48 +
STACK CFI INIT c410 46 .cfa: $rsp 8 + .ra: .cfa 8 - ^
STACK CFI c410 .cfa: $rsp 48 +
STACK CFI INIT c468 46 .cfa: $rsp 8 + .ra: .cfa 8 - ^
STACK CFI c468 .cfa: $rsp 48 +
STACK CFI INIT c4c0 51 .cfa: $rsp 8 + .ra: .cfa 8 - ^
STACK CFI c4c0 .cfa: $rsp 48 +
STACK CFI INIT c528 61 .cfa: $rsp 8 + .ra: .cfa 8 - ^
STACK CFI c528 .cfa: $rsp 48 +
STACK CFI INIT c5a4 2f .cfa: $rsp 8 + .ra: .cfa 8 - ^
STACK CFI c5a4 .cfa: $rsp 8 +
STACK CFI INIT c5e0 3e .cfa: $rsp 8 + .ra: .cfa 8 - ^
STACK CFI c5e0 .cfa: $rsp 48 +
STACK CFI INIT c684 cc .cfa: $rsp 8 + .ra: .cfa 8 - ^
STACK CFI c684 .cfa: $rsp 48 +
STACK CFI INIT c798 31 .cfa: $rsp 8 + .ra: .cfa 8 - ^
STACK CFI c798 .cfa: $rsp 48 +
STACK CFI INIT c7d8 84 .cfa: $rsp 8 + .ra: .cfa 8 - ^
STACK CFI c7d8 .cfa: $rsp 48 +
STACK CFI INIT c880 40 .cfa: $rsp 8 + .ra: .cfa 8 - ^
STACK CFI c880 .cfa: $rsp 48 +
STACK CFI INIT c918 a6 .cfa: $rsp 8 + .ra: .cfa 8 - ^
STACK CFI c918 .cfa: $rsp 80 +
STACK CFI INIT c9e8 88 .cfa: $rsp 8 + .ra: .cfa 8 - ^
STACK CFI c9e8 .cfa: $rsp 80 +
STACK CFI INIT cb88 88 .cfa: $rsp 8 + .ra: .cfa 8 - ^
STACK CFI cb88 .cfa: $rsp 48 +
STACK CFI INIT cc64 31 .cfa: $rsp 8 + .ra: .cfa 8 - ^
STACK CFI cc64 .cfa: $rsp 48 +
STACK CFI INIT cca4 7e .cfa: $rsp 8 + .ra: .cfa 8 - ^
STACK CFI cca4 .cfa: $rsp 48 +
STACK CFI INIT cd44 36 .cfa: $rsp 8 + .ra: .cfa 8 - ^
STACK CFI cd44 .cfa: $rsp 48 +
STACK CFI INIT ce00 36 .cfa: $rsp 8 + .ra: .cfa 8 - ^
STACK CFI ce00 .cfa: $rsp 64 +
STACK CFI INIT ce44 36 .cfa: $rsp 8 + .ra: .cfa 8 - ^
STACK CFI ce44 .cfa: $rsp 64 +
STACK CFI INIT ce88 49 .cfa: $rsp 8 + .ra: .cfa 8 - ^
STACK CFI ce88 .cfa: $rsp 64 +
STACK CFI INIT cee4 29 .cfa: $rsp 8 + .ra: .cfa 8 - ^
STACK CFI cee4 .cfa: $rsp 48 +
STACK CFI INIT cf18 29 .cfa: $rsp 8 + .ra: .cfa 8 - ^
STACK CFI cf18 .cfa: $rsp 48 +
STACK CFI INIT cf4c 29 .cfa: $rsp 8 + .ra: .cfa 8 - ^
STACK CFI cf4c .cfa: $rsp 48 +
STACK CFI INIT cf80 29 .cfa: $rsp 8 + .ra: .cfa 8 - ^
STACK CFI cf80 .cfa: $rsp 48 +
STACK CFI INIT cfb4 29 .cfa: $rsp 8 + .ra: .cfa 8 - ^
STACK CFI cfb4 .cfa: $rsp 48 +
STACK CFI INIT cfe8 44 .cfa: $rsp 8 + .ra: .cfa 8 - ^
STACK CFI cfe8 .cfa: $rsp 48 +
STACK CFI INIT d040 7d .cfa: $rsp 8 + .ra: .cfa 8 - ^
STACK CFI d040 .cfa: $rsp 48 +
STACK CFI INIT d0dc 95 .cfa: $rsp 8 + .ra: .cfa 8 - ^
STACK CFI d0dc .cfa: $rsp 48 +
STACK CFI INIT d198 8a .cfa: $rsp 8 + .ra: .cfa 8 - ^
STACK CFI d198 .cfa: $rsp 48 +
STACK CFI INIT d244 6b .cfa: $rsp 8 + .ra: .cfa 8 - ^
STACK CFI d244 .cfa: $rsp 48 +
STACK CFI INIT d2cc 67 .cfa: $rsp 8 + .ra: .cfa 8 - ^
STACK CFI d2cc .cfa: $rsp 48 +
STACK CFI INIT d384 42 .cfa: $rsp 8 + .ra: .cfa 8 - ^
STACK CFI d384 .cfa: $rsp 48 +
STACK CFI INIT d400 63 .cfa: $rsp 8 + .ra: .cfa 8 - ^
STACK CFI d400 .cfa: $rsp 48 +
STACK CFI INIT d47c db3 .cfa: $rsp 8 + .ra: .cfa 8 - ^
STACK CFI d47c .cfa: $rsp 352 +
STACK CFI INIT e65c a6 .cfa: $rsp 8 + .ra: .cfa 8 - ^
STACK CFI e65c .cfa: $rsp 48 +
STACK CFI INIT e7a0 12b .cfa: $rsp 8 + .ra: .cfa 8 - ^
STACK CFI e7a0 .cfa: $rsp 96 +
STACK CFI INIT e918 f3 .cfa: $rsp 8 + .ra: .cfa 8 - ^
STACK CFI e918 .cfa: $rsp 64 +
STACK CFI INIT ea48 253 .cfa: $rsp 8 + .ra: .cfa 8 - ^
STACK CFI ea48 .cfa: $rsp 160 +
STACK CFI INIT ed30 c8 .cfa: $rsp 8 + .ra: .cfa 8 - ^
STACK CFI ed30 .cfa: $rsp 80 +
STACK CFI INIT ee2c 468 .cfa: $rsp 8 + .ra: .cfa 8 - ^
STACK CFI ee2c .cfa: $rsp 112 +
STACK CFI INIT f3b0 11d .cfa: $rsp 8 + .ra: .cfa 8 - ^
STACK CFI f3b0 .cfa: $rsp 64 +
STACK CFI INIT f514 19 .cfa: $rsp 8 + .ra: .cfa 8 - ^
STACK CFI f514 .cfa: $rsp 48 +
STACK CFI INIT f534 13e .cfa: $rsp 8 + .ra: .cfa 8 - ^
STACK CFI f534 .cfa: $rsp 64 +
STACK CFI INIT f6c4 7b8 .cfa: $rsp 8 + .ra: .cfa 8 - ^
STACK CFI f6c4 .cfa: $rsp 288 +
STACK CFI INIT 1006c 3e .cfa: $rsp 8 + .ra: .cfa 8 - ^
STACK CFI 1006c .cfa: $rsp 96 +
STACK CFI INIT 100bc e6 .cfa: $rsp 8 + .ra: .cfa 8 - ^
STACK CFI 100bc .cfa: $rsp 112 +
STACK CFI INIT 101dc 2a8 .cfa: $rsp 8 + .ra: .cfa 8 - ^
STACK CFI 101dc .cfa: $rsp 144 +
STACK CFI INIT 10530 179 .cfa: $rsp 8 + .ra: .cfa 8 - ^
STACK CFI 10530 .cfa: $rsp 112 +
STACK CFI INIT 10768 19 .cfa: $rsp 8 + .ra: .cfa 8 - ^
STACK CFI 10768 .cfa: $rsp 48 +
STACK CFI INIT 10788 160 .cfa: $rsp 8 + .ra: .cfa 8 - ^
STACK CFI 10788 .cfa: $rsp 112 +
STACK CFI INIT 10940 17 .cfa: $rsp 8 + .ra: .cfa 8 - ^
STACK CFI 10940 .cfa: $rsp 48 +
STACK CFI INIT 1095c fc .cfa: $rsp 8 + .ra: .cfa 8 - ^
STACK CFI 1095c .cfa: $rsp 96 +
STACK CFI INIT 10a98 214 .cfa: $rsp 8 + .ra: .cfa 8 - ^
STACK CFI 10a98 .cfa: $rsp 112 +
STACK CFI INIT 10d34 c6 .cfa: $rsp 8 + .ra: .cfa 8 - ^
STACK CFI 10d34 .cfa: $rsp 144 +
STACK CFI INIT 10e2c 556 .cfa: $rsp 8 + .ra: .cfa 8 - ^
STACK CFI 10e2c .cfa: $rsp 208 +
STACK CFI INIT 114d8 19 .cfa: $rsp 8 + .ra: .cfa 8 - ^
STACK CFI 114d8 .cfa: $rsp 48 +
STACK CFI INIT 1152c 29 .cfa: $rsp 8 + .ra: .cfa 8 - ^
STACK CFI 1152c .cfa: $rsp 48 +
STACK CFI INIT 11560 35 .cfa: $rsp 8 + .ra: .cfa 8 - ^
STACK CFI 11560 .cfa: $rsp 48 +
STACK CFI INIT 115c0 71 .cfa: $rsp 8 + .ra: .cfa 8 - ^
STACK CFI 115c0 .cfa: $rsp 96 +
STACK CFI INIT 11650 a9 .cfa: $rsp 8 + .ra: .cfa 8 - ^
STACK CFI 11650 .cfa: $rsp 48 +
STACK CFI INIT 11724 45 .cfa: $rsp 8 + .ra: .cfa 8 - ^
STACK CFI 11724 .cfa: $rsp 48 +
STACK CFI INIT 1180c 76d .cfa: $rsp 8 + .ra: .cfa 8 - ^
STACK CFI 1180c .cfa: $rsp 160 +
STACK CFI INIT 12154 1e .cfa: $rsp 8 + .ra: .cfa 8 - ^
STACK CFI 12154 .cfa: $rsp 48 +
STACK CFI INIT 1217c 1e .cfa: $rsp 8 + .ra: .cfa 8 - ^
STACK CFI 1217c .cfa: $rsp 48 +
STACK CFI INIT 121a4 24d .cfa: $rsp 8 + .ra: .cfa 8 - ^
STACK CFI 121a4 .cfa: $rsp 96 +
STACK CFI INIT 12484 162 .cfa: $rsp 8 + .ra: .cfa 8 - ^
STACK CFI 12484 .cfa: $rsp 96 +
STACK CFI INIT 12640 136 .cfa: $rsp 8 + .ra: .cfa 8 - ^
STACK CFI 12640 .cfa: $rsp 96 +
STACK CFI INIT 127c4 17 .cfa: $rsp 8 + .ra: .cfa 8 - ^
STACK CFI 127c4 .cfa: $rsp 48 +
STACK CFI INIT 127e0 13d .cfa: $rsp 8 + .ra: .cfa 8 - ^
STACK CFI 127e0 .cfa: $rsp 64 +
STACK CFI INIT 1296c 34 .cfa: $rsp 8 + .ra: .cfa 8 - ^
STACK CFI 1296c .cfa: $rsp 48 +
STACK CFI INIT 129b0 478 .cfa: $rsp 8 + .ra: .cfa 8 - ^
STACK CFI 129b0 .cfa: $rsp 544 +
STACK CFI INIT 12f48 103 .cfa: $rsp 8 + .ra: .cfa 8 - ^
STACK CFI 12f48 .cfa: $rsp 96 +
STACK CFI INIT 1308c 94 .cfa: $rsp 8 + .ra: .cfa 8 - ^
STACK CFI 1308c .cfa: $rsp 80 +
STACK CFI INIT 13148 3e .cfa: $rsp 8 + .ra: .cfa 8 - ^
STACK CFI 13148 .cfa: $rsp 96 +
STACK CFI INIT 131b8 94 .cfa: $rsp 8 + .ra: .cfa 8 - ^
STACK CFI 131b8 .cfa: $rsp 48 +
STACK CFI INIT 132e4 2d .cfa: $rsp 8 + .ra: .cfa 8 - ^
STACK CFI 132e4 .cfa: $rsp 48 +
STACK CFI INIT 1331c 4b .cfa: $rsp 8 + .ra: .cfa 8 - ^
STACK CFI 1331c .cfa: $rsp 48 +
STACK CFI INIT 133c0 d0 .cfa: $rsp 8 + .ra: .cfa 8 - ^
STACK CFI 133c0 .cfa: $rsp 80 +
STACK CFI INIT 134fc 4c .cfa: $rsp 8 + .ra: .cfa 8 - ^
STACK CFI 134fc .cfa: $rsp 48 +
STACK CFI INIT 1355c 31a .cfa: $rsp 8 + .ra: .cfa 8 - ^
STACK CFI 1355c .cfa: $rsp 288 +
STACK CFI INIT 1393c 3a0 .cfa: $rsp 8 + .ra: .cfa 8 - ^
STACK CFI 1393c .cfa: $rsp 256 +
STACK CFI INIT 13dc4 1fa .cfa: $rsp 8 + .ra: .cfa 8 - ^
STACK CFI 13dc4 .cfa: $rsp 432 +
STACK CFI INIT 1403c 42 .cfa: $rsp 8 + .ra: .cfa 8 - ^
STACK CFI 1403c .cfa: $rsp 96 +
STACK CFI INIT 140bc 35e .cfa: $rsp 8 + .ra: .cfa 8 - ^
STACK CFI 140bc .cfa: $rsp 48 +
STACK CFI INIT 144f4 109 .cfa: $rsp 8 + .ra: .cfa 8 - ^
STACK CFI 144f4 .cfa: $rsp 80 +
STACK CFI INIT 14640 58 .cfa: $rsp 8 + .ra: .cfa 8 - ^
STACK CFI 14640 .cfa: $rsp 48 +
STACK CFI INIT 146b0 17 .cfa: $rsp 8 + .ra: .cfa 8 - ^
STACK CFI 146b0 .cfa: $rsp 48 +
STACK CFI INIT 146cc 5f .cfa: $rsp 8 + .ra: .cfa 8 - ^
STACK CFI 146cc .cfa: $rsp 64 +
STACK CFI INIT 14744 1fd .cfa: $rsp 8 + .ra: .cfa 8 - ^
STACK CFI 14744 .cfa: $rsp 144 +
STACK CFI INIT 149c0 2d9 .cfa: $rsp 8 + .ra: .cfa 8 - ^
STACK CFI 149c0 .cfa: $rsp 176 +
STACK CFI INIT 14e30 28 .cfa: $rsp 8 + .ra: .cfa 8 - ^
STACK CFI 14e30 .cfa: $rsp 48 +
STACK CFI INIT 14e64 53 .cfa: $rsp 8 + .ra: .cfa 8 - ^
STACK CFI 14e64 .cfa: $rsp 48 +
STACK CFI INIT 14ef8 f5 .cfa: $rsp 8 + .ra: .cfa 8 - ^
STACK CFI 14ef8 .cfa: $rsp 96 +
STACK CFI INIT 150e8 27 .cfa: $rsp 8 + .ra: .cfa 8 - ^
STACK CFI 150e8 .cfa: $rsp 80 +
STACK CFI INIT 15118 132 .cfa: $rsp 8 + .ra: .cfa 8 - ^
STACK CFI 15118 .cfa: $rsp 224 +
STACK CFI INIT 15298 62 .cfa: $rsp 8 + .ra: .cfa 8 - ^
STACK CFI 15298 .cfa: $rsp 64 +
STACK CFI INIT 15314 52 .cfa: $rsp 8 + .ra: .cfa 8 - ^
STACK CFI 15314 .cfa: $rsp 96 +
STACK CFI INIT 1537c 106 .cfa: $rsp 8 + .ra: .cfa 8 - ^
STACK CFI 1537c .cfa: $rsp 224 +
STACK CFI INIT 1550c 2e .cfa: $rsp 8 + .ra: .cfa 8 - ^
STACK CFI 1550c .cfa: $rsp 48 +
STACK CFI INIT 155c4 95 .cfa: $rsp 8 + .ra: .cfa 8 - ^
STACK CFI 155c4 .cfa: $rsp 80 +
STACK CFI INIT 15680 95 .cfa: $rsp 8 + .ra: .cfa 8 - ^
STACK CFI 15680 .cfa: $rsp 80 +
STACK CFI INIT 1573c 51 .cfa: $rsp 8 + .ra: .cfa 8 - ^
STACK CFI 1573c .cfa: $rsp 128 +
STACK CFI INIT 157a4 51 .cfa: $rsp 8 + .ra: .cfa 8 - ^
STACK CFI 157a4 .cfa: $rsp 128 +
STACK CFI INIT 15944 56 .cfa: $rsp 8 + .ra: .cfa 8 - ^
STACK CFI 15944 .cfa: $rsp 48 +
STACK CFI INIT 15b34 2a .cfa: $rsp 8 + .ra: .cfa 8 - ^
STACK CFI 15b34 .cfa: $rsp 48 +
STACK CFI INIT 15b74 64 .cfa: $rsp 8 + .ra: .cfa 8 - ^
STACK CFI 15b74 .cfa: $rsp 48 +
STACK CFI INIT 15bf4 35 .cfa: $rsp 8 + .ra: .cfa 8 - ^
STACK CFI 15bf4 .cfa: $rsp 48 +
STACK CFI INIT 15c38 c9 .cfa: $rsp 8 + .ra: .cfa 8 - ^
STACK CFI 15c38 .cfa: $rsp 80 +
STACK CFI INIT 15d64 159 .cfa: $rsp 8 + .ra: .cfa 8 - ^
STACK CFI 15d64 .cfa: $rsp 128 +
STACK CFI INIT 15f14 d3 .cfa: $rsp 8 + .ra: .cfa 8 - ^
STACK CFI 15f14 .cfa: $rsp 128 +
STACK CFI INIT 16068 121 .cfa: $rsp 8 + .ra: .cfa 8 - ^
STACK CFI 16068 .cfa: $rsp 1472 +
STACK CFI INIT 161d4 170 .cfa: $rsp 8 + .ra: .cfa 8 - ^
STACK CFI 161d4 .cfa: $rsp 1472 +
STACK CFI INIT 163e4 175 .cfa: $rsp 8 + .ra: .cfa 8 - ^
STACK CFI 163e4 .cfa: $rsp 64 +
STACK CFI INIT 165b8 3a .cfa: $rsp 8 + .ra: .cfa 8 - ^
STACK CFI 165b8 .cfa: $rsp 48 +
STACK CFI INIT 16600 53 .cfa: $rsp 8 + .ra: .cfa 8 - ^
STACK CFI 16600 .cfa: $rsp 48 +
STACK CFI INIT 16668 12 .cfa: $rsp 8 + .ra: .cfa 8 - ^
STACK CFI 16668 .cfa: $rsp 48 +
STACK CFI INIT 16680 12 .cfa: $rsp 8 + .ra: .cfa 8 - ^
STACK CFI 16680 .cfa: $rsp 48 +
STACK CFI INIT 16698 18 .cfa: $rsp 8 + .ra: .cfa 8 - ^
STACK CFI 16698 .cfa: $rsp 48 +
STACK CFI INIT 166b8 18 .cfa: $rsp 8 + .ra: .cfa 8 - ^
STACK CFI 166b8 .cfa: $rsp 48 +
STACK CFI INIT 166e8 7d .cfa: $rsp 8 + .ra: .cfa 8 - ^
STACK CFI 166e8 .cfa: $rsp 80 +
STACK CFI INIT 16784 a1 .cfa: $rsp 8 + .ra: .cfa 8 - ^
STACK CFI 16784 .cfa: $rsp 112 +
STACK CFI INIT 16860 13 .cfa: $rsp 8 + .ra: .cfa 8 - ^
STACK CFI 16860 .cfa: $rsp 24 +
STACK CFI INIT 16880 435 .cfa: $rsp 8 + .ra: .cfa 8 - ^
STACK CFI 16880 .cfa: $rsp 8 +
STACK CFI INIT 16dd0 27 .cfa: $rsp 8 + .ra: .cfa 8 - ^
STACK CFI 16dd0 .cfa: $rsp 48 +
STACK CFI INIT 16e00 29 .cfa: $rsp 8 + .ra: .cfa 8 - ^
STACK CFI 16e00 .cfa: $rsp 48 +
STACK CFI INIT 16e44 3b .cfa: $rsp 8 + .ra: .cfa 8 - ^
STACK CFI 16e44 .cfa: $rsp 48 +
STACK CFI INIT 16ea8 66 .cfa: $rsp 8 + .ra: .cfa 8 - ^
STACK CFI 16ea8 .cfa: $rsp 48 +
STACK CFI INIT 16f28 ed .cfa: $rsp 8 + .ra: .cfa 8 - ^
STACK CFI 16f28 .cfa: $rsp 80 +
STACK CFI INIT 17054 1fd .cfa: $rsp 8 + .ra: .cfa 8 - ^
STACK CFI 17054 .cfa: $rsp 80 +
STACK CFI INIT 172d0 201 .cfa: $rsp 8 + .ra: .cfa 8 - ^
STACK CFI 172d0 .cfa: $rsp 80 +
STACK CFI INIT 17554 c0 .cfa: $rsp 8 + .ra: .cfa 8 - ^
STACK CFI 17554 .cfa: $rsp 48 +
STACK CFI INIT 17644 c1 .cfa: $rsp 8 + .ra: .cfa 8 - ^
STACK CFI 17644 .cfa: $rsp 48 +
STACK CFI INIT 17738 cd .cfa: $rsp 8 + .ra: .cfa 8 - ^
STACK CFI 17738 .cfa: $rsp 144 +
STACK CFI INIT 17838 cd .cfa: $rsp 8 + .ra: .cfa 8 - ^
STACK CFI 17838 .cfa: $rsp 144 +
STACK CFI INIT 17938 461 .cfa: $rsp 8 + .ra: .cfa 8 - ^
STACK CFI 17938 .cfa: $rsp 288 +
STACK CFI INIT 17eb4 400 .cfa: $rsp 8 + .ra: .cfa 8 - ^
STACK CFI 17eb4 .cfa: $rsp 384 +
STACK CFI INIT 183b4 22e .cfa: $rsp 8 + .ra: .cfa 8 - ^
STACK CFI 183b4 .cfa: $rsp 224 +
STACK CFI INIT 18670 237 .cfa: $rsp 8 + .ra: .cfa 8 - ^
STACK CFI 18670 .cfa: $rsp 352 +
STACK CFI INIT 18934 141 .cfa: $rsp 8 + .ra: .cfa 8 - ^
STACK CFI 18934 .cfa: $rsp 48 +
STACK CFI INIT 18ac8 146 .cfa: $rsp 8 + .ra: .cfa 8 - ^
STACK CFI 18ac8 .cfa: $rsp 48 +
STACK CFI INIT 18c60 246 .cfa: $rsp 8 + .ra: .cfa 8 - ^
STACK CFI 18c60 .cfa: $rsp 96 +
STACK CFI INIT 18f38 29f .cfa: $rsp 8 + .ra: .cfa 8 - ^
STACK CFI 18f38 .cfa: $rsp 160 +
STACK CFI INIT 1929c 6b .cfa: $rsp 8 + .ra: .cfa 8 - ^
STACK CFI 1929c .cfa: $rsp 48 +
STACK CFI INIT 194c0 3f .cfa: $rsp 8 + .ra: .cfa 8 - ^
STACK CFI 194c0 .cfa: $rsp 48 +
STACK CFI INIT 19538 35 .cfa: $rsp 8 + .ra: .cfa 8 - ^
STACK CFI 19538 .cfa: $rsp 48 +
STACK CFI INIT 19620 1b .cfa: $rsp 8 + .ra: .cfa 8 - ^
STACK CFI 19620 .cfa: $rsp 48 +
STACK CFI INIT 196a8 3c .cfa: $rsp 8 + .ra: .cfa 8 - ^
STACK CFI 196a8 .cfa: $rsp 48 +
STACK CFI INIT 196fc 1d .cfa: $rsp 8 + .ra: .cfa 8 - ^
STACK CFI 196fc .cfa: $rsp 48 +
STACK CFI INIT 19728 4d .cfa: $rsp 8 + .ra: .cfa 8 - ^
STACK CFI 19728 .cfa: $rsp 48 +
STACK CFI INIT 197cc 42 .cfa: $rsp 8 + .ra: .cfa 8 - ^
STACK CFI 197cc .cfa: $rsp 48 +
STACK CFI INIT 19820 42 .cfa: $rsp 8 + .ra: .cfa 8 - ^
STACK CFI 19820 .cfa: $rsp 48 +
STACK CFI INIT 19894 1ea .cfa: $rsp 8 + .ra: .cfa 8 - ^
STACK CFI 19894 .cfa: $rsp 176 +
STACK CFI INIT 19af8 240 .cfa: $rsp 8 + .ra: .cfa 8 - ^
STACK CFI 19af8 .cfa: $rsp 224 +
STACK CFI INIT 19f60 87 .cfa: $rsp 8 + .ra: .cfa 8 - ^
STACK CFI 19f60 .cfa: $rsp 48 +
STACK CFI INIT 1a008 193 .cfa: $rsp 8 + .ra: .cfa 8 - ^
STACK CFI 1a008 .cfa: $rsp 112 +
STACK CFI INIT 1a200 2d9 .cfa: $rsp 8 + .ra: .cfa 8 - ^
STACK CFI 1a200 .cfa: $rsp 288 +
STACK CFI INIT 1a590 96 .cfa: $rsp 8 + .ra: .cfa 8 - ^
STACK CFI 1a590 .cfa: $rsp 48 +
STACK CFI INIT 1a64c 37 .cfa: $rsp 8 + .ra: .cfa 8 - ^
STACK CFI 1a64c .cfa: $rsp 48 +
STACK CFI INIT 1a6dc d6 .cfa: $rsp 8 + .ra: .cfa 8 - ^
STACK CFI 1a6dc .cfa: $rsp 80 +
STACK CFI INIT 1a7e8 91 .cfa: $rsp 8 + .ra: .cfa 8 - ^
STACK CFI 1a7e8 .cfa: $rsp 48 +
STACK CFI INIT 1a970 2e .cfa: $rsp 8 + .ra: .cfa 8 - ^
STACK CFI 1a970 .cfa: $rsp 48 +
STACK CFI INIT 1aa54 28 .cfa: $rsp 8 + .ra: .cfa 8 - ^
STACK CFI 1aa54 .cfa: $rsp 48 +
STACK CFI INIT 1aaa4 4e .cfa: $rsp 8 + .ra: .cfa 8 - ^
STACK CFI 1aaa4 .cfa: $rsp 48 +
STACK CFI INIT 1ab40 a1 .cfa: $rsp 8 + .ra: .cfa 8 - ^
STACK CFI 1ab40 .cfa: $rsp 96 +
STACK CFI INIT 1ac0c 86 .cfa: $rsp 8 + .ra: .cfa 8 - ^
STACK CFI 1ac0c .cfa: $rsp 48 +
STACK CFI INIT 1ad08 39 .cfa: $rsp 8 + .ra: .cfa 8 - ^
STACK CFI 1ad08 .cfa: $rsp 48 +
STACK CFI INIT 1ada0 40 .cfa: $rsp 8 + .ra: .cfa 8 - ^
STACK CFI 1ada0 .cfa: $rsp 48 +
STACK CFI INIT 1adf0 47 .cfa: $rsp 8 + .ra: .cfa 8 - ^
STACK CFI 1adf0 .cfa: $rsp 48 +
STACK CFI INIT 1ae74 1b .cfa: $rsp 8 + .ra: .cfa 8 - ^
STACK CFI 1ae74 .cfa: $rsp 48 +
STACK CFI INIT 1aec0 1b .cfa: $rsp 8 + .ra: .cfa 8 - ^
STACK CFI 1aec0 .cfa: $rsp 48 +
STACK CFI INIT 1aee4 8d .cfa: $rsp 8 + .ra: .cfa 8 - ^
STACK CFI 1aee4 .cfa: $rsp 48 +
STACK CFI INIT 1af94 25 .cfa: $rsp 8 + .ra: .cfa 8 - ^
STACK CFI 1af94 .cfa: $rsp 48 +
STACK CFI INIT 1afc4 bf .cfa: $rsp 8 + .ra: .cfa 8 - ^
STACK CFI 1afc4 .cfa: $rsp 112 +
STACK CFI INIT 1b0b4 81 .cfa: $rsp 8 + .ra: .cfa 8 - ^
STACK CFI 1b0b4 .cfa: $rsp 8 +
STACK CFI INIT 1b158 9e .cfa: $rsp 8 + .ra: .cfa 8 - ^
STACK CFI 1b158 .cfa: $rsp 8 +
STACK CFI INIT 1b220 81 .cfa: $rsp 8 + .ra: .cfa 8 - ^
STACK CFI 1b220 .cfa: $rsp 8 +
STACK CFI INIT 1b2c4 85 .cfa: $rsp 8 + .ra: .cfa 8 - ^
STACK CFI 1b2c4 .cfa: $rsp 8 +
STACK CFI INIT 1b36c a2 .cfa: $rsp 8 + .ra: .cfa 8 - ^
STACK CFI 1b36c .cfa: $rsp 8 +
STACK CFI INIT 1b438 85 .cfa: $rsp 8 + .ra: .cfa 8 - ^
STACK CFI 1b438 .cfa: $rsp 8 +
STACK CFI INIT 1b4e0 81 .cfa: $rsp 8 + .ra: .cfa 8 - ^
STACK CFI 1b4e0 .cfa: $rsp 8 +
STACK CFI INIT 1b584 9e .cfa: $rsp 8 + .ra: .cfa 8 - ^
STACK CFI 1b584 .cfa: $rsp 8 +
STACK CFI INIT 1b64c 81 .cfa: $rsp 8 + .ra: .cfa 8 - ^
STACK CFI 1b64c .cfa: $rsp 8 +
STACK CFI INIT 1b6f0 85 .cfa: $rsp 8 + .ra: .cfa 8 - ^
STACK CFI 1b6f0 .cfa: $rsp 8 +
STACK CFI INIT 1b798 a2 .cfa: $rsp 8 + .ra: .cfa 8 - ^
STACK CFI 1b798 .cfa: $rsp 8 +
STACK CFI INIT 1b864 85 .cfa: $rsp 8 + .ra: .cfa 8 - ^
STACK CFI 1b864 .cfa: $rsp 8 +
STACK CFI INIT 1b90c 3d .cfa: $rsp 8 + .ra: .cfa 8 - ^
STACK CFI 1b90c .cfa: $rsp 48 +
STACK CFI INIT 1b958 3d .cfa: $rsp 8 + .ra: .cfa 8 - ^
STACK CFI 1b958 .cfa: $rsp 48 +
STACK CFI INIT 1b9a4 3d .cfa: $rsp 8 + .ra: .cfa 8 - ^
STACK CFI 1b9a4 .cfa: $rsp 48 +
STACK CFI INIT 1b9f0 3d .cfa: $rsp 8 + .ra: .cfa 8 - ^
STACK CFI 1b9f0 .cfa: $rsp 48 +
STACK CFI INIT 1ba3c 3d .cfa: $rsp 8 + .ra: .cfa 8 - ^
STACK CFI 1ba3c .cfa: $rsp 48 +
STACK CFI INIT 1ba88 3d .cfa: $rsp 8 + .ra: .cfa 8 - ^
STACK CFI 1ba88 .cfa: $rsp 48 +
STACK CFI INIT 1bad4 28 .cfa: $rsp 8 + .ra: .cfa 8 - ^
STACK CFI 1bad4 .cfa: $rsp 48 +
STACK CFI INIT 1bb08 28 .cfa: $rsp 8 + .ra: .cfa 8 - ^
STACK CFI 1bb08 .cfa: $rsp 48 +
STACK CFI INIT 1bb3c 28 .cfa: $rsp 8 + .ra: .cfa 8 - ^
STACK CFI 1bb3c .cfa: $rsp 48 +
STACK CFI INIT 1bb70 28 .cfa: $rsp 8 + .ra: .cfa 8 - ^
STACK CFI 1bb70 .cfa: $rsp 48 +
STACK CFI INIT 1bba4 28 .cfa: $rsp 8 + .ra: .cfa 8 - ^
STACK CFI 1bba4 .cfa: $rsp 48 +
STACK CFI INIT 1bbd8 28 .cfa: $rsp 8 + .ra: .cfa 8 - ^
STACK CFI 1bbd8 .cfa: $rsp 48 +
STACK CFI INIT 1bc10 85 .cfa: $rsp 8 + .ra: .cfa 8 - ^
STACK CFI 1bc10 .cfa: $rsp 112 +
STACK CFI INIT 1bcb8 85 .cfa: $rsp 8 + .ra: .cfa 8 - ^
STACK CFI 1bcb8 .cfa: $rsp 112 +
STACK CFI INIT 1bd60 85 .cfa: $rsp 8 + .ra: .cfa 8 - ^
STACK CFI 1bd60 .cfa: $rsp 112 +
STACK CFI INIT 1be08 85 .cfa: $rsp 8 + .ra: .cfa 8 - ^
STACK CFI 1be08 .cfa: $rsp 112 +
STACK CFI INIT 1beb0 85 .cfa: $rsp 8 + .ra: .cfa 8 - ^
STACK CFI 1beb0 .cfa: $rsp 112 +
STACK CFI INIT 1bf58 85 .cfa: $rsp 8 + .ra: .cfa 8 - ^
STACK CFI 1bf58 .cfa: $rsp 112 +
STACK CFI INIT 1c000 114 .cfa: $rsp 8 + .ra: .cfa 8 - ^
STACK CFI 1c000 .cfa: $rsp 64 +
STACK CFI INIT 1c15c 117 .cfa: $rsp 8 + .ra: .cfa 8 - ^
STACK CFI 1c15c .cfa: $rsp 80 +
STACK CFI INIT 1c2b8 1cb .cfa: $rsp 8 + .ra: .cfa 8 - ^
STACK CFI 1c2b8 .cfa: $rsp 1328 +
STACK CFI INIT 1c4f8 1d2 .cfa: $rsp 8 + .ra: .cfa 8 - ^
STACK CFI 1c4f8 .cfa: $rsp 1328 +
STACK CFI INIT 1c740 1e7 .cfa: $rsp 8 + .ra: .cfa 8 - ^
STACK CFI 1c740 .cfa: $rsp 3744 +
STACK CFI INIT 1c9a0 1ee .cfa: $rsp 8 + .ra: .cfa 8 - ^
STACK CFI 1c9a0 .cfa: $rsp 3744 +
STACK CFI INIT 1cc0c 1cb .cfa: $rsp 8 + .ra: .cfa 8 - ^
STACK CFI 1cc0c .cfa: $rsp 1328 +
STACK CFI INIT 1ce4c 1d2 .cfa: $rsp 8 + .ra: .cfa 8 - ^
STACK CFI 1ce4c .cfa: $rsp 1328 +
STACK CFI INIT 1d094 63 .cfa: $rsp 8 + .ra: .cfa 8 - ^
STACK CFI 1d094 .cfa: $rsp 64 +
STACK CFI INIT 1d110 6e .cfa: $rsp 8 + .ra: .cfa 8 - ^
STACK CFI 1d110 .cfa: $rsp 64 +
STACK CFI INIT 1d20c a6 .cfa: $rsp 8 + .ra: .cfa 8 - ^
STACK CFI 1d20c .cfa: $rsp 48 +
STACK CFI INIT 1d2dc a9 .cfa: $rsp 8 + .ra: .cfa 8 - ^
STACK CFI 1d2dc .cfa: $rsp 48 +
STACK CFI INIT 1d3b0 bc .cfa: $rsp 8 + .ra: .cfa 8 - ^
STACK CFI 1d3b0 .cfa: $rsp 64 +
STACK CFI INIT 1d49c bc .cfa: $rsp 8 + .ra: .cfa 8 - ^
STACK CFI 1d49c .cfa: $rsp 64 +
STACK CFI INIT 1d588 be .cfa: $rsp 8 + .ra: .cfa 8 - ^
STACK CFI 1d588 .cfa: $rsp 64 +
STACK CFI INIT 1d678 be .cfa: $rsp 8 + .ra: .cfa 8 - ^
STACK CFI 1d678 .cfa: $rsp 64 +
STACK CFI INIT 1d7d8 bb .cfa: $rsp 8 + .ra: .cfa 8 - ^
STACK CFI 1d7d8 .cfa: $rsp 64 +
STACK CFI INIT 1d8c4 bb .cfa: $rsp 8 + .ra: .cfa 8 - ^
STACK CFI 1d8c4 .cfa: $rsp 64 +
STACK CFI INIT 1d9b0 bd .cfa: $rsp 8 + .ra: .cfa 8 - ^
STACK CFI 1d9b0 .cfa: $rsp 64 +
STACK CFI INIT 1da9c bd .cfa: $rsp 8 + .ra: .cfa 8 - ^
STACK CFI 1da9c .cfa: $rsp 64 +
STACK CFI INIT 1dbe8 bc .cfa: $rsp 8 + .ra: .cfa 8 - ^
STACK CFI 1dbe8 .cfa: $rsp 64 +
STACK CFI INIT 1dcd4 bc .cfa: $rsp 8 + .ra: .cfa 8 - ^
STACK CFI 1dcd4 .cfa: $rsp 64 +
STACK CFI INIT 1ddc0 be .cfa: $rsp 8 + .ra: .cfa 8 - ^
STACK CFI 1ddc0 .cfa: $rsp 64 +
STACK CFI INIT 1deb0 be .cfa: $rsp 8 + .ra: .cfa 8 - ^
STACK CFI 1deb0 .cfa: $rsp 64 +
STACK CFI INIT 1e010 b8 .cfa: $rsp 8 + .ra: .cfa 8 - ^
STACK CFI 1e010 .cfa: $rsp 64 +
STACK CFI INIT 1e0f8 b8 .cfa: $rsp 8 + .ra: .cfa 8 - ^
STACK CFI 1e0f8 .cfa: $rsp 64 +
STACK CFI INIT 1e210 bb .cfa: $rsp 8 + .ra: .cfa 8 - ^
STACK CFI 1e210 .cfa: $rsp 64 +
STACK CFI INIT 1e2fc bb .cfa: $rsp 8 + .ra: .cfa 8 - ^
STACK CFI 1e2fc .cfa: $rsp 64 +
STACK CFI INIT 1e3e8 bd .cfa: $rsp 8 + .ra: .cfa 8 - ^
STACK CFI 1e3e8 .cfa: $rsp 64 +
STACK CFI INIT 1e4d4 bd .cfa: $rsp 8 + .ra: .cfa 8 - ^
STACK CFI 1e4d4 .cfa: $rsp 64 +
STACK CFI INIT 1e620 ba .cfa: $rsp 8 + .ra: .cfa 8 - ^
STACK CFI 1e620 .cfa: $rsp 64 +
STACK CFI INIT 1e708 ba .cfa: $rsp 8 + .ra: .cfa 8 - ^
STACK CFI 1e708 .cfa: $rsp 64 +
STACK CFI INIT 1e7f0 bc .cfa: $rsp 8 + .ra: .cfa 8 - ^
STACK CFI 1e7f0 .cfa: $rsp 64 +
STACK CFI INIT 1e8dc bc .cfa: $rsp 8 + .ra: .cfa 8 - ^
STACK CFI 1e8dc .cfa: $rsp 64 +
STACK CFI INIT 1ea28 b9 .cfa: $rsp 8 + .ra: .cfa 8 - ^
STACK CFI 1ea28 .cfa: $rsp 64 +
STACK CFI INIT 1eb10 b9 .cfa: $rsp 8 + .ra: .cfa 8 - ^
STACK CFI 1eb10 .cfa: $rsp 64 +
STACK CFI INIT 1ebf8 bb .cfa: $rsp 8 + .ra: .cfa 8 - ^
STACK CFI 1ebf8 .cfa: $rsp 64 +
STACK CFI INIT 1ece4 bb .cfa: $rsp 8 + .ra: .cfa 8 - ^
STACK CFI 1ece4 .cfa: $rsp 64 +
STACK CFI INIT 1ee30 ba .cfa: $rsp 8 + .ra: .cfa 8 - ^
STACK CFI 1ee30 .cfa: $rsp 64 +
STACK CFI INIT 1ef18 ba .cfa: $rsp 8 + .ra: .cfa 8 - ^
STACK CFI 1ef18 .cfa: $rsp 64 +
STACK CFI INIT 1f000 bc .cfa: $rsp 8 + .ra: .cfa 8 - ^
STACK CFI 1f000 .cfa: $rsp 64 +
STACK CFI INIT 1f0ec bc .cfa: $rsp 8 + .ra: .cfa 8 - ^
STACK CFI 1f0ec .cfa: $rsp 64 +
STACK CFI INIT 1f250 ba .cfa: $rsp 8 + .ra: .cfa 8 - ^
STACK CFI 1f250 .cfa: $rsp 64 +
STACK CFI INIT 1f380 ba .cfa: $rsp 8 + .ra: .cfa 8 - ^
STACK CFI 1f380 .cfa: $rsp 64 +
STACK CFI INIT 1f4b0 bc .cfa: $rsp 8 + .ra: .cfa 8 - ^
STACK CFI 1f4b0 .cfa: $rsp 64 +
STACK CFI INIT 1f5e4 bc .cfa: $rsp 8 + .ra: .cfa 8 - ^
STACK CFI 1f5e4 .cfa: $rsp 64 +
STACK CFI INIT 1f700 ba .cfa: $rsp 8 + .ra: .cfa 8 - ^
STACK CFI 1f700 .cfa: $rsp 64 +
STACK CFI INIT 1f7e8 ba .cfa: $rsp 8 + .ra: .cfa 8 - ^
STACK CFI 1f7e8 .cfa: $rsp 64 +
STACK CFI INIT 1f8d0 bc .cfa: $rsp 8 + .ra: .cfa 8 - ^
STACK CFI 1f8d0 .cfa: $rsp 64 +
STACK CFI INIT 1f9bc bc .cfa: $rsp 8 + .ra: .cfa 8 - ^
STACK CFI 1f9bc .cfa: $rsp 64 +
STACK CFI INIT 1fb08 ba .cfa: $rsp 8 + .ra: .cfa 8 - ^
STACK CFI 1fb08 .cfa: $rsp 64 +
STACK CFI INIT 1fbf0 ba .cfa: $rsp 8 + .ra: .cfa 8 - ^
STACK CFI 1fbf0 .cfa: $rsp 64 +
STACK CFI INIT 1fcd8 bc .cfa: $rsp 8 + .ra: .cfa 8 - ^
STACK CFI 1fcd8 .cfa: $rsp 64 +
STACK CFI INIT 1fdc4 bc .cfa: $rsp 8 + .ra: .cfa 8 - ^
STACK CFI 1fdc4 .cfa: $rsp 64 +
STACK CFI INIT 1ff20 ba .cfa: $rsp 8 + .ra: .cfa 8 - ^
STACK CFI 1ff20 .cfa: $rsp 64 +
STACK CFI INIT 20008 ba .cfa: $rsp 8 + .ra: .cfa 8 - ^
STACK CFI 20008 .cfa: $rsp 64 +
STACK CFI INIT 200f0 bc .cfa: $rsp 8 + .ra: .cfa 8 - ^
STACK CFI 200f0 .cfa: $rsp 64 +
STACK CFI INIT 201dc bc .cfa: $rsp 8 + .ra: .cfa 8 - ^
STACK CFI 201dc .cfa: $rsp 64 +
STACK CFI INIT 20328 ba .cfa: $rsp 8 + .ra: .cfa 8 - ^
STACK CFI 20328 .cfa: $rsp 64 +
STACK CFI INIT 20410 ba .cfa: $rsp 8 + .ra: .cfa 8 - ^
STACK CFI 20410 .cfa: $rsp 64 +
STACK CFI INIT 204f8 bc .cfa: $rsp 8 + .ra: .cfa 8 - ^
STACK CFI 204f8 .cfa: $rsp 64 +
STACK CFI INIT 205e4 bc .cfa: $rsp 8 + .ra: .cfa 8 - ^
STACK CFI 205e4 .cfa: $rsp 64 +
STACK CFI INIT 20730 bc .cfa: $rsp 8 + .ra: .cfa 8 - ^
STACK CFI 20730 .cfa: $rsp 64 +
STACK CFI INIT 2081c bc .cfa: $rsp 8 + .ra: .cfa 8 - ^
STACK CFI 2081c .cfa: $rsp 64 +
STACK CFI INIT 20908 be .cfa: $rsp 8 + .ra: .cfa 8 - ^
STACK CFI 20908 .cfa: $rsp 64 +
STACK CFI INIT 209f8 be .cfa: $rsp 8 + .ra: .cfa 8 - ^
STACK CFI 209f8 .cfa: $rsp 64 +
STACK CFI INIT 2101c 8e .cfa: $rsp 8 + .ra: .cfa 8 - ^
STACK CFI 2101c .cfa: $rsp 8 +
STACK CFI INIT 210d0 8e .cfa: $rsp 8 + .ra: .cfa 8 - ^
STACK CFI 210d0 .cfa: $rsp 8 +
STACK CFI INIT 21184 8e .cfa: $rsp 8 + .ra: .cfa 8 - ^
STACK CFI 21184 .cfa: $rsp 8 +
STACK CFI INIT 21238 8e .cfa: $rsp 8 + .ra: .cfa 8 - ^
STACK CFI 21238 .cfa: $rsp 8 +
STACK CFI INIT 212ec 8e .cfa: $rsp 8 + .ra: .cfa 8 - ^
STACK CFI 212ec .cfa: $rsp 8 +
STACK CFI INIT 213a0 8e .cfa: $rsp 8 + .ra: .cfa 8 - ^
STACK CFI 213a0 .cfa: $rsp 8 +
STACK CFI INIT 21454 a3 .cfa: $rsp 8 + .ra: .cfa 8 - ^
STACK CFI 21454 .cfa: $rsp 8 +
STACK CFI INIT 21520 a3 .cfa: $rsp 8 + .ra: .cfa 8 - ^
STACK CFI 21520 .cfa: $rsp 8 +
STACK CFI INIT 215ec a3 .cfa: $rsp 8 + .ra: .cfa 8 - ^
STACK CFI 215ec .cfa: $rsp 8 +
STACK CFI INIT 216b8 a3 .cfa: $rsp 8 + .ra: .cfa 8 - ^
STACK CFI 216b8 .cfa: $rsp 8 +
STACK CFI INIT 21784 a3 .cfa: $rsp 8 + .ra: .cfa 8 - ^
STACK CFI 21784 .cfa: $rsp 8 +
STACK CFI INIT 21850 a3 .cfa: $rsp 8 + .ra: .cfa 8 - ^
STACK CFI 21850 .cfa: $rsp 8 +
STACK CFI INIT 2191c 94 .cfa: $rsp 8 + .ra: .cfa 8 - ^
STACK CFI 2191c .cfa: $rsp 8 +
STACK CFI INIT 219d8 94 .cfa: $rsp 8 + .ra: .cfa 8 - ^
STACK CFI 219d8 .cfa: $rsp 8 +
STACK CFI INIT 21a94 94 .cfa: $rsp 8 + .ra: .cfa 8 - ^
STACK CFI 21a94 .cfa: $rsp 8 +
STACK CFI INIT 21b50 94 .cfa: $rsp 8 + .ra: .cfa 8 - ^
STACK CFI 21b50 .cfa: $rsp 8 +
STACK CFI INIT 21c0c 94 .cfa: $rsp 8 + .ra: .cfa 8 - ^
STACK CFI 21c0c .cfa: $rsp 8 +
STACK CFI INIT 21cc8 94 .cfa: $rsp 8 + .ra: .cfa 8 - ^
STACK CFI 21cc8 .cfa: $rsp 8 +
STACK CFI INIT 21d84 a4 .cfa: $rsp 8 + .ra: .cfa 8 - ^
STACK CFI 21d84 .cfa: $rsp 8 +
STACK CFI INIT 21e54 a4 .cfa: $rsp 8 + .ra: .cfa 8 - ^
STACK CFI 21e54 .cfa: $rsp 8 +
STACK CFI INIT 21f24 a4 .cfa: $rsp 8 + .ra: .cfa 8 - ^
STACK CFI 21f24 .cfa: $rsp 8 +
STACK CFI INIT 21ff4 a4 .cfa: $rsp 8 + .ra: .cfa 8 - ^
STACK CFI 21ff4 .cfa: $rsp 8 +
STACK CFI INIT 220c4 a4 .cfa: $rsp 8 + .ra: .cfa 8 - ^
STACK CFI 220c4 .cfa: $rsp 8 +
STACK CFI INIT 22194 a4 .cfa: $rsp 8 + .ra: .cfa 8 - ^
STACK CFI 22194 .cfa: $rsp 8 +
STACK CFI INIT 22264 8b .cfa: $rsp 8 + .ra: .cfa 8 - ^
STACK CFI 22264 .cfa: $rsp 48 +
STACK CFI INIT 22314 91 .cfa: $rsp 8 + .ra: .cfa 8 - ^
STACK CFI 22314 .cfa: $rsp 48 +
STACK CFI INIT 223cc 75 .cfa: $rsp 8 + .ra: .cfa 8 - ^
STACK CFI 223cc .cfa: $rsp 8 +
STACK CFI INIT 22460 7a .cfa: $rsp 8 + .ra: .cfa 8 - ^
STACK CFI 22460 .cfa: $rsp 8 +
STACK CFI INIT 2303c 9b .cfa: $rsp 8 + .ra: .cfa 8 - ^
STACK CFI 2303c .cfa: $rsp 48 +
STACK CFI INIT 23100 20 .cfa: $rsp 8 + .ra: .cfa 8 - ^
STACK CFI 23100 .cfa: $rsp 48 +
STACK CFI INIT 2316c 23 .cfa: $rsp 8 + .ra: .cfa 8 - ^
STACK CFI 2316c .cfa: $rsp 48 +
STACK CFI INIT 23198 23 .cfa: $rsp 8 + .ra: .cfa 8 - ^
STACK CFI 23198 .cfa: $rsp 48 +
STACK CFI INIT 231c4 23 .cfa: $rsp 8 + .ra: .cfa 8 - ^
STACK CFI 231c4 .cfa: $rsp 48 +
STACK CFI INIT 231f0 23 .cfa: $rsp 8 + .ra: .cfa 8 - ^
STACK CFI 231f0 .cfa: $rsp 48 +
STACK CFI INIT 2321c 23 .cfa: $rsp 8 + .ra: .cfa 8 - ^
STACK CFI 2321c .cfa: $rsp 48 +
STACK CFI INIT 23248 23 .cfa: $rsp 8 + .ra: .cfa 8 - ^
STACK CFI 23248 .cfa: $rsp 48 +
STACK CFI INIT 23274 23 .cfa: $rsp 8 + .ra: .cfa 8 - ^
STACK CFI 23274 .cfa: $rsp 48 +
STACK CFI INIT 232a0 23 .cfa: $rsp 8 + .ra: .cfa 8 - ^
STACK CFI 232a0 .cfa: $rsp 48 +
STACK CFI INIT 232cc 23 .cfa: $rsp 8 + .ra: .cfa 8 - ^
STACK CFI 232cc .cfa: $rsp 48 +
STACK CFI INIT 232f8 23 .cfa: $rsp 8 + .ra: .cfa 8 - ^
STACK CFI 232f8 .cfa: $rsp 48 +
STACK CFI INIT 23324 23 .cfa: $rsp 8 + .ra: .cfa 8 - ^
STACK CFI 23324 .cfa: $rsp 48 +
STACK CFI INIT 23350 23 .cfa: $rsp 8 + .ra: .cfa 8 - ^
STACK CFI 23350 .cfa: $rsp 48 +
STACK CFI INIT 2337c 23 .cfa: $rsp 8 + .ra: .cfa 8 - ^
STACK CFI 2337c .cfa: $rsp 48 +
STACK CFI INIT 233a8 23 .cfa: $rsp 8 + .ra: .cfa 8 - ^
STACK CFI 233a8 .cfa: $rsp 48 +
STACK CFI INIT 233d4 23 .cfa: $rsp 8 + .ra: .cfa 8 - ^
STACK CFI 233d4 .cfa: $rsp 48 +
STACK CFI INIT 23400 23 .cfa: $rsp 8 + .ra: .cfa 8 - ^
STACK CFI 23400 .cfa: $rsp 48 +
STACK CFI INIT 2342c 23 .cfa: $rsp 8 + .ra: .cfa 8 - ^
STACK CFI 2342c .cfa: $rsp 48 +
STACK CFI INIT 23458 23 .cfa: $rsp 8 + .ra: .cfa 8 - ^
STACK CFI 23458 .cfa: $rsp 48 +
STACK CFI INIT 23484 23 .cfa: $rsp 8 + .ra: .cfa 8 - ^
STACK CFI 23484 .cfa: $rsp 48 +
STACK CFI INIT 234b0 23 .cfa: $rsp 8 + .ra: .cfa 8 - ^
STACK CFI 234b0 .cfa: $rsp 48 +
STACK CFI INIT 234dc 23 .cfa: $rsp 8 + .ra: .cfa 8 - ^
STACK CFI 234dc .cfa: $rsp 48 +
STACK CFI INIT 23508 23 .cfa: $rsp 8 + .ra: .cfa 8 - ^
STACK CFI 23508 .cfa: $rsp 48 +
STACK CFI INIT 23534 23 .cfa: $rsp 8 + .ra: .cfa 8 - ^
STACK CFI 23534 .cfa: $rsp 48 +
STACK CFI INIT 23560 23 .cfa: $rsp 8 + .ra: .cfa 8 - ^
STACK CFI 23560 .cfa: $rsp 48 +
STACK CFI INIT 2358c 23 .cfa: $rsp 8 + .ra: .cfa 8 - ^
STACK CFI 2358c .cfa: $rsp 48 +
STACK CFI INIT 235b8 23 .cfa: $rsp 8 + .ra: .cfa 8 - ^
STACK CFI 235b8 .cfa: $rsp 48 +
STACK CFI INIT 235e4 23 .cfa: $rsp 8 + .ra: .cfa 8 - ^
STACK CFI 235e4 .cfa: $rsp 48 +
STACK CFI INIT 23610 23 .cfa: $rsp 8 + .ra: .cfa 8 - ^
STACK CFI 23610 .cfa: $rsp 48 +
STACK CFI INIT 2363c 23 .cfa: $rsp 8 + .ra: .cfa 8 - ^
STACK CFI 2363c .cfa: $rsp 48 +
STACK CFI INIT 23668 23 .cfa: $rsp 8 + .ra: .cfa 8 - ^
STACK CFI 23668 .cfa: $rsp 48 +
STACK CFI INIT 236d4 23 .cfa: $rsp 8 + .ra: .cfa 8 - ^
STACK CFI 236d4 .cfa: $rsp 48 +
STACK CFI INIT 23700 34 .cfa: $rsp 8 + .ra: .cfa 8 - ^
STACK CFI 23700 .cfa: $rsp 48 +
STACK CFI INIT 23754 12d .cfa: $rsp 8 + .ra: .cfa 8 - ^
STACK CFI 23754 .cfa: $rsp 1264 +
STACK CFI INIT 23914 131 .cfa: $rsp 8 + .ra: .cfa 8 - ^
STACK CFI 23914 .cfa: $rsp 1264 +
STACK CFI INIT 23aa0 14a .cfa: $rsp 8 + .ra: .cfa 8 - ^
STACK CFI 23aa0 .cfa: $rsp 3680 +
STACK CFI INIT 23c3c 12d .cfa: $rsp 8 + .ra: .cfa 8 - ^
STACK CFI 23c3c .cfa: $rsp 1264 +
STACK CFI INIT 23dc0 131 .cfa: $rsp 8 + .ra: .cfa 8 - ^
STACK CFI 23dc0 .cfa: $rsp 1264 +
STACK CFI INIT 23f64 14e .cfa: $rsp 8 + .ra: .cfa 8 - ^
STACK CFI 23f64 .cfa: $rsp 3680 +
STACK CFI INIT 24738 6d .cfa: $rsp 8 + .ra: .cfa 8 - ^
STACK CFI 24738 .cfa: $rsp 48 +
STACK CFI INIT 247c0 1f .cfa: $rsp 8 + .ra: .cfa 8 - ^
STACK CFI 247c0 .cfa: $rsp 48 +
STACK CFI INIT 24950 230 .cfa: $rsp 8 + .ra: .cfa 8 - ^
STACK CFI 24950 .cfa: $rsp 8 +
STACK CFI INIT 24c0c 230 .cfa: $rsp 8 + .ra: .cfa 8 - ^
STACK CFI 24c0c .cfa: $rsp 8 +
STACK CFI INIT 24ec8 200 .cfa: $rsp 8 + .ra: .cfa 8 - ^
STACK CFI 24ec8 .cfa: $rsp 48 +
STACK CFI INIT 25148 200 .cfa: $rsp 8 + .ra: .cfa 8 - ^
STACK CFI 25148 .cfa: $rsp 48 +
STACK CFI INIT 25468 a1 .cfa: $rsp 8 + .ra: .cfa 8 - ^
STACK CFI 25468 .cfa: $rsp 64 +
STACK CFI INIT 25534 a1 .cfa: $rsp 8 + .ra: .cfa 8 - ^
STACK CFI 25534 .cfa: $rsp 64 +
STACK CFI INIT 25600 a1 .cfa: $rsp 8 + .ra: .cfa 8 - ^
STACK CFI 25600 .cfa: $rsp 64 +
STACK CFI INIT 256cc a1 .cfa: $rsp 8 + .ra: .cfa 8 - ^
STACK CFI 256cc .cfa: $rsp 64 +
STACK CFI INIT 25798 a1 .cfa: $rsp 8 + .ra: .cfa 8 - ^
STACK CFI 25798 .cfa: $rsp 64 +
STACK CFI INIT 25864 a1 .cfa: $rsp 8 + .ra: .cfa 8 - ^
STACK CFI 25864 .cfa: $rsp 64 +
STACK CFI INIT 25930 a3 .cfa: $rsp 8 + .ra: .cfa 8 - ^
STACK CFI 25930 .cfa: $rsp 48 +
STACK CFI INIT 259fc a3 .cfa: $rsp 8 + .ra: .cfa 8 - ^
STACK CFI 259fc .cfa: $rsp 48 +
STACK CFI INIT 25ac8 a3 .cfa: $rsp 8 + .ra: .cfa 8 - ^
STACK CFI 25ac8 .cfa: $rsp 48 +
STACK CFI INIT 25b94 a3 .cfa: $rsp 8 + .ra: .cfa 8 - ^
STACK CFI 25b94 .cfa: $rsp 48 +
STACK CFI INIT 25c60 a3 .cfa: $rsp 8 + .ra: .cfa 8 - ^
STACK CFI 25c60 .cfa: $rsp 48 +
STACK CFI INIT 25d2c a3 .cfa: $rsp 8 + .ra: .cfa 8 - ^
STACK CFI 25d2c .cfa: $rsp 48 +
STACK CFI INIT 25df8 227 .cfa: $rsp 8 + .ra: .cfa 8 - ^
STACK CFI 25df8 .cfa: $rsp 48 +
STACK CFI INIT 260a8 2a6 .cfa: $rsp 8 + .ra: .cfa 8 - ^
STACK CFI 260a8 .cfa: $rsp 64 +
STACK CFI INIT 263f8 216 .cfa: $rsp 8 + .ra: .cfa 8 - ^
STACK CFI 263f8 .cfa: $rsp 48 +
STACK CFI INIT 26694 218 .cfa: $rsp 8 + .ra: .cfa 8 - ^
STACK CFI 26694 .cfa: $rsp 48 +
STACK CFI INIT 26934 295 .cfa: $rsp 8 + .ra: .cfa 8 - ^
STACK CFI 26934 .cfa: $rsp 64 +
STACK CFI INIT 26c70 20a .cfa: $rsp 8 + .ra: .cfa 8 - ^
STACK CFI 26c70 .cfa: $rsp 48 +
STACK CFI INIT 26efc 277 .cfa: $rsp 8 + .ra: .cfa 8 - ^
STACK CFI 26efc .cfa: $rsp 64 +
STACK CFI INIT 27210 2b2 .cfa: $rsp 8 + .ra: .cfa 8 - ^
STACK CFI 27210 .cfa: $rsp 80 +
STACK CFI INIT 27570 26a .cfa: $rsp 8 + .ra: .cfa 8 - ^
STACK CFI 27570 .cfa: $rsp 64 +
STACK CFI INIT 27874 288 .cfa: $rsp 8 + .ra: .cfa 8 - ^
STACK CFI 27874 .cfa: $rsp 64 +
STACK CFI INIT 27ba0 2b2 .cfa: $rsp 8 + .ra: .cfa 8 - ^
STACK CFI 27ba0 .cfa: $rsp 80 +
STACK CFI INIT 27f00 27b .cfa: $rsp 8 + .ra: .cfa 8 - ^
STACK CFI 27f00 .cfa: $rsp 64 +
STACK CFI INIT 28858 70 .cfa: $rsp 8 + .ra: .cfa 8 - ^
STACK CFI 28858 .cfa: $rsp 48 +
STACK CFI INIT 288e4 94 .cfa: $rsp 8 + .ra: .cfa 8 - ^
STACK CFI 288e4 .cfa: $rsp 48 +
STACK CFI INIT 289a0 70 .cfa: $rsp 8 + .ra: .cfa 8 - ^
STACK CFI 289a0 .cfa: $rsp 48 +
STACK CFI INIT 28a2c 74 .cfa: $rsp 8 + .ra: .cfa 8 - ^
STACK CFI 28a2c .cfa: $rsp 48 +
STACK CFI INIT 28ac0 98 .cfa: $rsp 8 + .ra: .cfa 8 - ^
STACK CFI 28ac0 .cfa: $rsp 48 +
STACK CFI INIT 28b80 74 .cfa: $rsp 8 + .ra: .cfa 8 - ^
STACK CFI 28b80 .cfa: $rsp 48 +
STACK CFI INIT 28c14 58 .cfa: $rsp 8 + .ra: .cfa 8 - ^
STACK CFI 28c14 .cfa: $rsp 48 +
STACK CFI INIT 28c84 7c .cfa: $rsp 8 + .ra: .cfa 8 - ^
STACK CFI 28c84 .cfa: $rsp 48 +
STACK CFI INIT 28d20 58 .cfa: $rsp 8 + .ra: .cfa 8 - ^
STACK CFI 28d20 .cfa: $rsp 48 +
STACK CFI INIT 28f00 5c .cfa: $rsp 8 + .ra: .cfa 8 - ^
STACK CFI 28f00 .cfa: $rsp 48 +
STACK CFI INIT 28f74 5c .cfa: $rsp 8 + .ra: .cfa 8 - ^
STACK CFI 28f74 .cfa: $rsp 48 +
STACK CFI INIT 28fe8 5c .cfa: $rsp 8 + .ra: .cfa 8 - ^
STACK CFI 28fe8 .cfa: $rsp 48 +
STACK CFI INIT 2905c 60 .cfa: $rsp 8 + .ra: .cfa 8 - ^
STACK CFI 2905c .cfa: $rsp 48 +
STACK CFI INIT 290d4 60 .cfa: $rsp 8 + .ra: .cfa 8 - ^
STACK CFI 290d4 .cfa: $rsp 48 +
STACK CFI INIT 2914c 60 .cfa: $rsp 8 + .ra: .cfa 8 - ^
STACK CFI 2914c .cfa: $rsp 48 +
STACK CFI INIT 291c4 58 .cfa: $rsp 8 + .ra: .cfa 8 - ^
STACK CFI 291c4 .cfa: $rsp 48 +
STACK CFI INIT 29234 58 .cfa: $rsp 8 + .ra: .cfa 8 - ^
STACK CFI 29234 .cfa: $rsp 48 +
STACK CFI INIT 292a4 58 .cfa: $rsp 8 + .ra: .cfa 8 - ^
STACK CFI 292a4 .cfa: $rsp 48 +
STACK CFI INIT 29458 a2 .cfa: $rsp 8 + .ra: .cfa 8 - ^
STACK CFI 29458 .cfa: $rsp 48 +
STACK CFI INIT 29524 a2 .cfa: $rsp 8 + .ra: .cfa 8 - ^
STACK CFI 29524 .cfa: $rsp 48 +
STACK CFI INIT 295f0 a2 .cfa: $rsp 8 + .ra: .cfa 8 - ^
STACK CFI 295f0 .cfa: $rsp 48 +
STACK CFI INIT 296bc a8 .cfa: $rsp 8 + .ra: .cfa 8 - ^
STACK CFI 296bc .cfa: $rsp 48 +
STACK CFI INIT 29790 a8 .cfa: $rsp 8 + .ra: .cfa 8 - ^
STACK CFI 29790 .cfa: $rsp 48 +
STACK CFI INIT 29864 a8 .cfa: $rsp 8 + .ra: .cfa 8 - ^
STACK CFI 29864 .cfa: $rsp 48 +
STACK CFI INIT 29ae8 4a .cfa: $rsp 8 + .ra: .cfa 8 - ^
STACK CFI 29ae8 .cfa: $rsp 48 +
STACK CFI INIT 29ba4 4a .cfa: $rsp 8 + .ra: .cfa 8 - ^
STACK CFI 29ba4 .cfa: $rsp 48 +
STACK CFI INIT 29c64 4b .cfa: $rsp 8 + .ra: .cfa 8 - ^
STACK CFI 29c64 .cfa: $rsp 48 +
STACK CFI INIT 29d2c 4b .cfa: $rsp 8 + .ra: .cfa 8 - ^
STACK CFI 29d2c .cfa: $rsp 48 +
STACK CFI INIT 29dc0 171 .cfa: $rsp 8 + .ra: .cfa 8 - ^
STACK CFI 29dc0 .cfa: $rsp 48 +
STACK CFI INIT 29f90 171 .cfa: $rsp 8 + .ra: .cfa 8 - ^
STACK CFI 29f90 .cfa: $rsp 48 +
STACK CFI INIT 2a160 171 .cfa: $rsp 8 + .ra: .cfa 8 - ^
STACK CFI 2a160 .cfa: $rsp 48 +
STACK CFI INIT 2a330 171 .cfa: $rsp 8 + .ra: .cfa 8 - ^
STACK CFI 2a330 .cfa: $rsp 48 +
STACK CFI INIT 2a500 171 .cfa: $rsp 8 + .ra: .cfa 8 - ^
STACK CFI 2a500 .cfa: $rsp 48 +
STACK CFI INIT 2a6d0 171 .cfa: $rsp 8 + .ra: .cfa 8 - ^
STACK CFI 2a6d0 .cfa: $rsp 48 +
STACK CFI INIT 2a8a0 196 .cfa: $rsp 8 + .ra: .cfa 8 - ^
STACK CFI 2a8a0 .cfa: $rsp 48 +
STACK CFI INIT 2aa9c 196 .cfa: $rsp 8 + .ra: .cfa 8 - ^
STACK CFI 2aa9c .cfa: $rsp 48 +
STACK CFI INIT 2ac98 196 .cfa: $rsp 8 + .ra: .cfa 8 - ^
STACK CFI 2ac98 .cfa: $rsp 48 +
STACK CFI INIT 2ae94 196 .cfa: $rsp 8 + .ra: .cfa 8 - ^
STACK CFI 2ae94 .cfa: $rsp 48 +
STACK CFI INIT 2b090 196 .cfa: $rsp 8 + .ra: .cfa 8 - ^
STACK CFI 2b090 .cfa: $rsp 48 +
STACK CFI INIT 2b28c 196 .cfa: $rsp 8 + .ra: .cfa 8 - ^
STACK CFI 2b28c .cfa: $rsp 48 +
STACK CFI INIT 2b488 284 .cfa: $rsp 8 + .ra: .cfa 8 - ^
STACK CFI 2b488 .cfa: $rsp 80 +
STACK CFI INIT 2b7b0 29a .cfa: $rsp 8 + .ra: .cfa 8 - ^
STACK CFI 2b7b0 .cfa: $rsp 80 +
STACK CFI INIT 2baf0 284 .cfa: $rsp 8 + .ra: .cfa 8 - ^
STACK CFI 2baf0 .cfa: $rsp 80 +
STACK CFI INIT 2be18 266 .cfa: $rsp 8 + .ra: .cfa 8 - ^
STACK CFI 2be18 .cfa: $rsp 80 +
STACK CFI INIT 2c118 27c .cfa: $rsp 8 + .ra: .cfa 8 - ^
STACK CFI 2c118 .cfa: $rsp 80 +
STACK CFI INIT 2c434 266 .cfa: $rsp 8 + .ra: .cfa 8 - ^
STACK CFI 2c434 .cfa: $rsp 80 +
STACK CFI INIT 2c734 2dd .cfa: $rsp 8 + .ra: .cfa 8 - ^
STACK CFI 2c734 .cfa: $rsp 112 +
STACK CFI INIT 2cac8 2f3 .cfa: $rsp 8 + .ra: .cfa 8 - ^
STACK CFI 2cac8 .cfa: $rsp 112 +
STACK CFI INIT 2ce78 2dd .cfa: $rsp 8 + .ra: .cfa 8 - ^
STACK CFI 2ce78 .cfa: $rsp 112 +
STACK CFI INIT 2d20c 2ca .cfa: $rsp 8 + .ra: .cfa 8 - ^
STACK CFI 2d20c .cfa: $rsp 112 +
STACK CFI INIT 2d588 2e0 .cfa: $rsp 8 + .ra: .cfa 8 - ^
STACK CFI 2d588 .cfa: $rsp 112 +
STACK CFI INIT 2d920 2ca .cfa: $rsp 8 + .ra: .cfa 8 - ^
STACK CFI 2d920 .cfa: $rsp 112 +
STACK CFI INIT 2dcdc 50 .cfa: $rsp 8 + .ra: .cfa 8 - ^
STACK CFI 2dcdc .cfa: $rsp 48 +
STACK CFI INIT 2ddc0 50 .cfa: $rsp 8 + .ra: .cfa 8 - ^
STACK CFI 2ddc0 .cfa: $rsp 48 +
STACK CFI INIT 2dea4 51 .cfa: $rsp 8 + .ra: .cfa 8 - ^
STACK CFI 2dea4 .cfa: $rsp 48 +
STACK CFI INIT 2df8c 51 .cfa: $rsp 8 + .ra: .cfa 8 - ^
STACK CFI 2df8c .cfa: $rsp 48 +
STACK CFI INIT 2e2a0 15b .cfa: $rsp 8 + .ra: .cfa 8 - ^
STACK CFI 2e2a0 .cfa: $rsp 64 +
STACK CFI INIT 2e57c 15b .cfa: $rsp 8 + .ra: .cfa 8 - ^
STACK CFI 2e57c .cfa: $rsp 64 +
STACK CFI INIT 2e7c4 7c .cfa: $rsp 8 + .ra: .cfa 8 - ^
STACK CFI 2e7c4 .cfa: $rsp 48 +
STACK CFI INIT 2e860 141 .cfa: $rsp 8 + .ra: .cfa 8 - ^
STACK CFI 2e860 .cfa: $rsp 64 +
STACK CFI INIT 2e9f4 7c .cfa: $rsp 8 + .ra: .cfa 8 - ^
STACK CFI 2e9f4 .cfa: $rsp 48 +
STACK CFI INIT 2ea90 7c .cfa: $rsp 8 + .ra: .cfa 8 - ^
STACK CFI 2ea90 .cfa: $rsp 48 +
STACK CFI INIT 2eb2c 141 .cfa: $rsp 8 + .ra: .cfa 8 - ^
STACK CFI 2eb2c .cfa: $rsp 64 +
STACK CFI INIT 2ecc0 7c .cfa: $rsp 8 + .ra: .cfa 8 - ^
STACK CFI 2ecc0 .cfa: $rsp 48 +
STACK CFI INIT 2ed5c 1ba .cfa: $rsp 8 + .ra: .cfa 8 - ^
STACK CFI 2ed5c .cfa: $rsp 96 +
STACK CFI INIT 2ef84 1f1 .cfa: $rsp 8 + .ra: .cfa 8 - ^
STACK CFI 2ef84 .cfa: $rsp 96 +
STACK CFI INIT 2f1f4 1ba .cfa: $rsp 8 + .ra: .cfa 8 - ^
STACK CFI 2f1f4 .cfa: $rsp 96 +
STACK CFI INIT 2f41c 1ba .cfa: $rsp 8 + .ra: .cfa 8 - ^
STACK CFI 2f41c .cfa: $rsp 96 +
STACK CFI INIT 2f644 1f1 .cfa: $rsp 8 + .ra: .cfa 8 - ^
STACK CFI 2f644 .cfa: $rsp 96 +
STACK CFI INIT 2f8b4 1ba .cfa: $rsp 8 + .ra: .cfa 8 - ^
STACK CFI 2f8b4 .cfa: $rsp 96 +
STACK CFI INIT 2fadc 1de .cfa: $rsp 8 + .ra: .cfa 8 - ^
STACK CFI 2fadc .cfa: $rsp 96 +
STACK CFI INIT 2fd34 215 .cfa: $rsp 8 + .ra: .cfa 8 - ^
STACK CFI 2fd34 .cfa: $rsp 96 +
STACK CFI INIT 2ffd0 1de .cfa: $rsp 8 + .ra: .cfa 8 - ^
STACK CFI 2ffd0 .cfa: $rsp 96 +
STACK CFI INIT 30228 1de .cfa: $rsp 8 + .ra: .cfa 8 - ^
STACK CFI 30228 .cfa: $rsp 96 +
STACK CFI INIT 30480 215 .cfa: $rsp 8 + .ra: .cfa 8 - ^
STACK CFI 30480 .cfa: $rsp 96 +
STACK CFI INIT 3071c 1de .cfa: $rsp 8 + .ra: .cfa 8 - ^
STACK CFI 3071c .cfa: $rsp 96 +
STACK CFI INIT 309d4 bc .cfa: $rsp 8 + .ra: .cfa 8 - ^
STACK CFI 309d4 .cfa: $rsp 48 +
STACK CFI INIT 30ac0 ff .cfa: $rsp 8 + .ra: .cfa 8 - ^
STACK CFI 30ac0 .cfa: $rsp 48 +
STACK CFI INIT 30c00 bc .cfa: $rsp 8 + .ra: .cfa 8 - ^
STACK CFI 30c00 .cfa: $rsp 48 +
STACK CFI INIT 30cec bc .cfa: $rsp 8 + .ra: .cfa 8 - ^
STACK CFI 30cec .cfa: $rsp 48 +
STACK CFI INIT 30dd8 ff .cfa: $rsp 8 + .ra: .cfa 8 - ^
STACK CFI 30dd8 .cfa: $rsp 48 +
STACK CFI INIT 30f18 bc .cfa: $rsp 8 + .ra: .cfa 8 - ^
STACK CFI 30f18 .cfa: $rsp 48 +
STACK CFI INIT 31004 a6 .cfa: $rsp 8 + .ra: .cfa 8 - ^
STACK CFI 31004 .cfa: $rsp 48 +
STACK CFI INIT 310d4 cc .cfa: $rsp 8 + .ra: .cfa 8 - ^
STACK CFI 310d4 .cfa: $rsp 48 +
STACK CFI INIT 311d4 a6 .cfa: $rsp 8 + .ra: .cfa 8 - ^
STACK CFI 311d4 .cfa: $rsp 48 +
STACK CFI INIT 312a4 a6 .cfa: $rsp 8 + .ra: .cfa 8 - ^
STACK CFI 312a4 .cfa: $rsp 48 +
STACK CFI INIT 31374 cc .cfa: $rsp 8 + .ra: .cfa 8 - ^
STACK CFI 31374 .cfa: $rsp 48 +
STACK CFI INIT 31474 a6 .cfa: $rsp 8 + .ra: .cfa 8 - ^
STACK CFI 31474 .cfa: $rsp 48 +
STACK CFI INIT 31634 1c5 .cfa: $rsp 8 + .ra: .cfa 8 - ^
STACK CFI 31634 .cfa: $rsp 64 +
STACK CFI INIT 3186c 202 .cfa: $rsp 8 + .ra: .cfa 8 - ^
STACK CFI 3186c .cfa: $rsp 80 +
STACK CFI INIT 31af0 1c5 .cfa: $rsp 8 + .ra: .cfa 8 - ^
STACK CFI 31af0 .cfa: $rsp 64 +
STACK CFI INIT 31d28 1c5 .cfa: $rsp 8 + .ra: .cfa 8 - ^
STACK CFI 31d28 .cfa: $rsp 64 +
STACK CFI INIT 31f60 202 .cfa: $rsp 8 + .ra: .cfa 8 - ^
STACK CFI 31f60 .cfa: $rsp 80 +
STACK CFI INIT 321e4 1c5 .cfa: $rsp 8 + .ra: .cfa 8 - ^
STACK CFI 321e4 .cfa: $rsp 64 +
STACK CFI INIT 3241c 1cb .cfa: $rsp 8 + .ra: .cfa 8 - ^
STACK CFI 3241c .cfa: $rsp 64 +
STACK CFI INIT 3265c 208 .cfa: $rsp 8 + .ra: .cfa 8 - ^
STACK CFI 3265c .cfa: $rsp 80 +
STACK CFI INIT 328e8 1cb .cfa: $rsp 8 + .ra: .cfa 8 - ^
STACK CFI 328e8 .cfa: $rsp 64 +
STACK CFI INIT 32b28 1cb .cfa: $rsp 8 + .ra: .cfa 8 - ^
STACK CFI 32b28 .cfa: $rsp 64 +
STACK CFI INIT 32d68 208 .cfa: $rsp 8 + .ra: .cfa 8 - ^
STACK CFI 32d68 .cfa: $rsp 80 +
STACK CFI INIT 32ff4 1cb .cfa: $rsp 8 + .ra: .cfa 8 - ^
STACK CFI 32ff4 .cfa: $rsp 64 +
STACK CFI INIT 33234 db .cfa: $rsp 8 + .ra: .cfa 8 - ^
STACK CFI 33234 .cfa: $rsp 48 +
STACK CFI INIT 33348 104 .cfa: $rsp 8 + .ra: .cfa 8 - ^
STACK CFI 33348 .cfa: $rsp 48 +
STACK CFI INIT 33490 db .cfa: $rsp 8 + .ra: .cfa 8 - ^
STACK CFI 33490 .cfa: $rsp 48 +
STACK CFI INIT 335a4 db .cfa: $rsp 8 + .ra: .cfa 8 - ^
STACK CFI 335a4 .cfa: $rsp 48 +
STACK CFI INIT 336b8 104 .cfa: $rsp 8 + .ra: .cfa 8 - ^
STACK CFI 336b8 .cfa: $rsp 48 +
STACK CFI INIT 33800 db .cfa: $rsp 8 + .ra: .cfa 8 - ^
STACK CFI 33800 .cfa: $rsp 48 +
STACK CFI INIT 33914 db .cfa: $rsp 8 + .ra: .cfa 8 - ^
STACK CFI 33914 .cfa: $rsp 48 +
STACK CFI INIT 33a28 104 .cfa: $rsp 8 + .ra: .cfa 8 - ^
STACK CFI 33a28 .cfa: $rsp 48 +
STACK CFI INIT 33b70 db .cfa: $rsp 8 + .ra: .cfa 8 - ^
STACK CFI 33b70 .cfa: $rsp 48 +
STACK CFI INIT 33c84 db .cfa: $rsp 8 + .ra: .cfa 8 - ^
STACK CFI 33c84 .cfa: $rsp 48 +
STACK CFI INIT 33d98 104 .cfa: $rsp 8 + .ra: .cfa 8 - ^
STACK CFI 33d98 .cfa: $rsp 48 +
STACK CFI INIT 33ee0 db .cfa: $rsp 8 + .ra: .cfa 8 - ^
STACK CFI 33ee0 .cfa: $rsp 48 +
STACK CFI INIT 34324 96 .cfa: $rsp 8 + .ra: .cfa 8 - ^
STACK CFI 34324 .cfa: $rsp 48 +
STACK CFI INIT 343e0 b5 .cfa: $rsp 8 + .ra: .cfa 8 - ^
STACK CFI 343e0 .cfa: $rsp 48 +
STACK CFI INIT 344c4 96 .cfa: $rsp 8 + .ra: .cfa 8 - ^
STACK CFI 344c4 .cfa: $rsp 48 +
STACK CFI INIT 34580 96 .cfa: $rsp 8 + .ra: .cfa 8 - ^
STACK CFI 34580 .cfa: $rsp 48 +
STACK CFI INIT 3463c b5 .cfa: $rsp 8 + .ra: .cfa 8 - ^
STACK CFI 3463c .cfa: $rsp 48 +
STACK CFI INIT 34720 96 .cfa: $rsp 8 + .ra: .cfa 8 - ^
STACK CFI 34720 .cfa: $rsp 48 +
STACK CFI INIT 347dc c7 .cfa: $rsp 8 + .ra: .cfa 8 - ^
STACK CFI 347dc .cfa: $rsp 48 +
STACK CFI INIT 348d4 e9 .cfa: $rsp 8 + .ra: .cfa 8 - ^
STACK CFI 348d4 .cfa: $rsp 48 +
STACK CFI INIT 349f8 c7 .cfa: $rsp 8 + .ra: .cfa 8 - ^
STACK CFI 349f8 .cfa: $rsp 48 +
STACK CFI INIT 34af0 c7 .cfa: $rsp 8 + .ra: .cfa 8 - ^
STACK CFI 34af0 .cfa: $rsp 48 +
STACK CFI INIT 34be8 e9 .cfa: $rsp 8 + .ra: .cfa 8 - ^
STACK CFI 34be8 .cfa: $rsp 48 +
STACK CFI INIT 34d0c c7 .cfa: $rsp 8 + .ra: .cfa 8 - ^
STACK CFI 34d0c .cfa: $rsp 48 +
STACK CFI INIT 34e64 53 .cfa: $rsp 8 + .ra: .cfa 8 - ^
STACK CFI 34e64 .cfa: $rsp 8 +
STACK CFI INIT 34ecc 53 .cfa: $rsp 8 + .ra: .cfa 8 - ^
STACK CFI 34ecc .cfa: $rsp 8 +
STACK CFI INIT 34f34 53 .cfa: $rsp 8 + .ra: .cfa 8 - ^
STACK CFI 34f34 .cfa: $rsp 8 +
STACK CFI INIT 34f9c 53 .cfa: $rsp 8 + .ra: .cfa 8 - ^
STACK CFI 34f9c .cfa: $rsp 8 +
STACK CFI INIT 35004 53 .cfa: $rsp 8 + .ra: .cfa 8 - ^
STACK CFI 35004 .cfa: $rsp 8 +
STACK CFI INIT 3506c 53 .cfa: $rsp 8 + .ra: .cfa 8 - ^
STACK CFI 3506c .cfa: $rsp 8 +
STACK CFI INIT 352b4 115 .cfa: $rsp 8 + .ra: .cfa 8 - ^
STACK CFI 352b4 .cfa: $rsp 64 +
STACK CFI INIT 35410 115 .cfa: $rsp 8 + .ra: .cfa 8 - ^
STACK CFI 35410 .cfa: $rsp 64 +
STACK CFI INIT 3556c 118 .cfa: $rsp 8 + .ra: .cfa 8 - ^
STACK CFI 3556c .cfa: $rsp 64 +
STACK CFI INIT 356cc 118 .cfa: $rsp 8 + .ra: .cfa 8 - ^
STACK CFI 356cc .cfa: $rsp 64 +
STACK CFI INIT 3588c 115 .cfa: $rsp 8 + .ra: .cfa 8 - ^
STACK CFI 3588c .cfa: $rsp 64 +
STACK CFI INIT 359e8 115 .cfa: $rsp 8 + .ra: .cfa 8 - ^
STACK CFI 359e8 .cfa: $rsp 64 +
STACK CFI INIT 35b44 118 .cfa: $rsp 8 + .ra: .cfa 8 - ^
STACK CFI 35b44 .cfa: $rsp 64 +
STACK CFI INIT 35ca4 118 .cfa: $rsp 8 + .ra: .cfa 8 - ^
STACK CFI 35ca4 .cfa: $rsp 64 +
STACK CFI INIT 35e70 2c .cfa: $rsp 8 + .ra: .cfa 8 - ^
STACK CFI 35e70 .cfa: $rsp 48 +
STACK CFI INIT 35ea8 25 .cfa: $rsp 8 + .ra: .cfa 8 - ^
STACK CFI 35ea8 .cfa: $rsp 48 +
STACK CFI INIT 35ed8 25 .cfa: $rsp 8 + .ra: .cfa 8 - ^
STACK CFI 35ed8 .cfa: $rsp 48 +
STACK CFI INIT 35f08 25 .cfa: $rsp 8 + .ra: .cfa 8 - ^
STACK CFI 35f08 .cfa: $rsp 48 +
STACK CFI INIT 35f38 3f .cfa: $rsp 8 + .ra: .cfa 8 - ^
STACK CFI 35f38 .cfa: $rsp 64 +
STACK CFI INIT 35f88 3f .cfa: $rsp 8 + .ra: .cfa 8 - ^
STACK CFI 35f88 .cfa: $rsp 64 +
STACK CFI INIT 35fd8 40 .cfa: $rsp 8 + .ra: .cfa 8 - ^
STACK CFI 35fd8 .cfa: $rsp 64 +
STACK CFI INIT 36028 40 .cfa: $rsp 8 + .ra: .cfa 8 - ^
STACK CFI 36028 .cfa: $rsp 64 +
STACK CFI INIT 36078 10b .cfa: $rsp 8 + .ra: .cfa 8 - ^
STACK CFI 36078 .cfa: $rsp 48 +
STACK CFI INIT 361c8 10b .cfa: $rsp 8 + .ra: .cfa 8 - ^
STACK CFI 361c8 .cfa: $rsp 48 +
STACK CFI INIT 36318 114 .cfa: $rsp 8 + .ra: .cfa 8 - ^
STACK CFI 36318 .cfa: $rsp 48 +
STACK CFI INIT 36474 114 .cfa: $rsp 8 + .ra: .cfa 8 - ^
STACK CFI 36474 .cfa: $rsp 48 +
STACK CFI INIT 365e0 2b .cfa: $rsp 8 + .ra: .cfa 8 - ^
STACK CFI 365e0 .cfa: $rsp 48 +
STACK CFI INIT 36618 2b .cfa: $rsp 8 + .ra: .cfa 8 - ^
STACK CFI 36618 .cfa: $rsp 48 +
STACK CFI INIT 36650 2b .cfa: $rsp 8 + .ra: .cfa 8 - ^
STACK CFI 36650 .cfa: $rsp 48 +
STACK CFI INIT 36688 2b .cfa: $rsp 8 + .ra: .cfa 8 - ^
STACK CFI 36688 .cfa: $rsp 48 +
STACK CFI INIT 366c0 9b .cfa: $rsp 8 + .ra: .cfa 8 - ^
STACK CFI 366c0 .cfa: $rsp 48 +
STACK CFI INIT 36784 9b .cfa: $rsp 8 + .ra: .cfa 8 - ^
STACK CFI 36784 .cfa: $rsp 48 +
STACK CFI INIT 36848 9b .cfa: $rsp 8 + .ra: .cfa 8 - ^
STACK CFI 36848 .cfa: $rsp 48 +
STACK CFI INIT 3690c 9b .cfa: $rsp 8 + .ra: .cfa 8 - ^
STACK CFI 3690c .cfa: $rsp 48 +
STACK CFI INIT 369e0 9b .cfa: $rsp 8 + .ra: .cfa 8 - ^
STACK CFI 369e0 .cfa: $rsp 64 +
STACK CFI INIT 36aa4 9b .cfa: $rsp 8 + .ra: .cfa 8 - ^
STACK CFI 36aa4 .cfa: $rsp 64 +
STACK CFI INIT 36b68 9d .cfa: $rsp 8 + .ra: .cfa 8 - ^
STACK CFI 36b68 .cfa: $rsp 64 +
STACK CFI INIT 36c2c 9d .cfa: $rsp 8 + .ra: .cfa 8 - ^
STACK CFI 36c2c .cfa: $rsp 64 +
STACK CFI INIT 36d00 9a .cfa: $rsp 8 + .ra: .cfa 8 - ^
STACK CFI 36d00 .cfa: $rsp 48 +
STACK CFI INIT 36e54 48 .cfa: $rsp 8 + .ra: .cfa 8 - ^
STACK CFI 36e54 .cfa: $rsp 48 +
STACK CFI INIT 36eb0 4b .cfa: $rsp 8 + .ra: .cfa 8 - ^
STACK CFI 36eb0 .cfa: $rsp 48 +
STACK CFI INIT 36fc4 40 .cfa: $rsp 8 + .ra: .cfa 8 - ^
STACK CFI 36fc4 .cfa: $rsp 48 +
STACK CFI INIT 37014 43 .cfa: $rsp 8 + .ra: .cfa 8 - ^
STACK CFI 37014 .cfa: $rsp 48 +
STACK CFI INIT 37068 121 .cfa: $rsp 8 + .ra: .cfa 8 - ^
STACK CFI 37068 .cfa: $rsp 96 +
STACK CFI INIT 371d4 121 .cfa: $rsp 8 + .ra: .cfa 8 - ^
STACK CFI 371d4 .cfa: $rsp 96 +
STACK CFI INIT 37340 121 .cfa: $rsp 8 + .ra: .cfa 8 - ^
STACK CFI 37340 .cfa: $rsp 96 +
STACK CFI INIT 374ac d5 .cfa: $rsp 8 + .ra: .cfa 8 - ^
STACK CFI 374ac .cfa: $rsp 96 +
STACK CFI INIT 375b8 d5 .cfa: $rsp 8 + .ra: .cfa 8 - ^
STACK CFI 375b8 .cfa: $rsp 96 +
STACK CFI INIT 376c4 d5 .cfa: $rsp 8 + .ra: .cfa 8 - ^
STACK CFI 376c4 .cfa: $rsp 96 +
STACK CFI INIT 377d0 106 .cfa: $rsp 8 + .ra: .cfa 8 - ^
STACK CFI 377d0 .cfa: $rsp 80 +
STACK CFI INIT 37918 106 .cfa: $rsp 8 + .ra: .cfa 8 - ^
STACK CFI 37918 .cfa: $rsp 80 +
STACK CFI INIT 37a60 106 .cfa: $rsp 8 + .ra: .cfa 8 - ^
STACK CFI 37a60 .cfa: $rsp 80 +
STACK CFI INIT 37ba8 eb .cfa: $rsp 8 + .ra: .cfa 8 - ^
STACK CFI 37ba8 .cfa: $rsp 64 +
STACK CFI INIT 37cd0 eb .cfa: $rsp 8 + .ra: .cfa 8 - ^
STACK CFI 37cd0 .cfa: $rsp 64 +
STACK CFI INIT 37df8 eb .cfa: $rsp 8 + .ra: .cfa 8 - ^
STACK CFI 37df8 .cfa: $rsp 64 +
STACK CFI INIT 37f80 a3 .cfa: $rsp 8 + .ra: .cfa 8 - ^
STACK CFI 37f80 .cfa: $rsp 48 +
STACK CFI INIT 3804c a5 .cfa: $rsp 8 + .ra: .cfa 8 - ^
STACK CFI 3804c .cfa: $rsp 64 +
STACK CFI INIT 3811c f5 .cfa: $rsp 8 + .ra: .cfa 8 - ^
STACK CFI 3811c .cfa: $rsp 64 +
STACK CFI INIT 38250 103 .cfa: $rsp 8 + .ra: .cfa 8 - ^
STACK CFI 38250 .cfa: $rsp 64 +
STACK CFI INIT 383f0 8b .cfa: $rsp 8 + .ra: .cfa 8 - ^
STACK CFI 383f0 .cfa: $rsp 112 +
STACK CFI INIT 384a0 8b .cfa: $rsp 8 + .ra: .cfa 8 - ^
STACK CFI 384a0 .cfa: $rsp 112 +
STACK CFI INIT 38550 8b .cfa: $rsp 8 + .ra: .cfa 8 - ^
STACK CFI 38550 .cfa: $rsp 112 +
STACK CFI INIT 38600 8b .cfa: $rsp 8 + .ra: .cfa 8 - ^
STACK CFI 38600 .cfa: $rsp 112 +
STACK CFI INIT 386b0 8b .cfa: $rsp 8 + .ra: .cfa 8 - ^
STACK CFI 386b0 .cfa: $rsp 112 +
STACK CFI INIT 38760 8b .cfa: $rsp 8 + .ra: .cfa 8 - ^
STACK CFI 38760 .cfa: $rsp 112 +
STACK CFI INIT 38810 134 .cfa: $rsp 8 + .ra: .cfa 8 - ^
STACK CFI 38810 .cfa: $rsp 80 +
STACK CFI INIT 38994 143 .cfa: $rsp 8 + .ra: .cfa 8 - ^
STACK CFI 38994 .cfa: $rsp 80 +
STACK CFI INIT 38b38 63 .cfa: $rsp 8 + .ra: .cfa 8 - ^
STACK CFI 38b38 .cfa: $rsp 64 +
STACK CFI INIT 38bc4 6e .cfa: $rsp 8 + .ra: .cfa 8 - ^
STACK CFI 38bc4 .cfa: $rsp 64 +
STACK CFI INIT 38c64 1b .cfa: $rsp 8 + .ra: .cfa 8 - ^
STACK CFI 38c64 .cfa: $rsp 48 +
STACK CFI INIT 38c94 1b .cfa: $rsp 8 + .ra: .cfa 8 - ^
STACK CFI 38c94 .cfa: $rsp 48 +
STACK CFI INIT 38cb8 11f .cfa: $rsp 8 + .ra: .cfa 8 - ^
STACK CFI 38cb8 .cfa: $rsp 48 +
STACK CFI INIT 38e38 5b .cfa: $rsp 8 + .ra: .cfa 8 - ^
STACK CFI 38e38 .cfa: $rsp 48 +
STACK CFI INIT 38eac 47 .cfa: $rsp 8 + .ra: .cfa 8 - ^
STACK CFI 38eac .cfa: $rsp 48 +
STACK CFI INIT 38f60 182 .cfa: $rsp 8 + .ra: .cfa 8 - ^
STACK CFI 38f60 .cfa: $rsp 48 +
STACK CFI INIT 39148 2b .cfa: $rsp 8 + .ra: .cfa 8 - ^
STACK CFI 39148 .cfa: $rsp 48 +
STACK CFI INIT 39180 a7 .cfa: $rsp 8 + .ra: .cfa 8 - ^
STACK CFI 39180 .cfa: $rsp 608 +
STACK CFI INIT 39250 15d .cfa: $rsp 8 + .ra: .cfa 8 - ^
STACK CFI 39250 .cfa: $rsp 80 +
STACK CFI INIT 39404 31 .cfa: $rsp 8 + .ra: .cfa 8 - ^
STACK CFI 39404 .cfa: $rsp 64 +
STACK CFI INIT 3949c 27 .cfa: $rsp 8 + .ra: .cfa 8 - ^
STACK CFI 3949c .cfa: $rsp 8 +
STACK CFI INIT 39590 175 .cfa: $rsp 8 + .ra: .cfa 8 - ^
STACK CFI 39590 .cfa: $rsp 96 +
STACK CFI INIT 39764 171 .cfa: $rsp 8 + .ra: .cfa 8 - ^
STACK CFI 39764 .cfa: $rsp 96 +
STACK CFI INIT 39954 1c3 .cfa: $rsp 8 + .ra: .cfa 8 - ^
STACK CFI 39954 .cfa: $rsp 64 +
STACK CFI INIT 39b88 1a2 .cfa: $rsp 8 + .ra: .cfa 8 - ^
STACK CFI 39b88 .cfa: $rsp 16 +
STACK CFI INIT 39ddc 1b .cfa: $rsp 8 + .ra: .cfa 8 - ^
STACK CFI 39ddc .cfa: $rsp 48 +
STACK CFI INIT 39e00 1b .cfa: $rsp 8 + .ra: .cfa 8 - ^
STACK CFI 39e00 .cfa: $rsp 48 +
STACK CFI INIT 39e24 1b .cfa: $rsp 8 + .ra: .cfa 8 - ^
STACK CFI 39e24 .cfa: $rsp 48 +
STACK CFI INIT 39f2c 1b .cfa: $rsp 8 + .ra: .cfa 8 - ^
STACK CFI 39f2c .cfa: $rsp 48 +
STACK CFI INIT 39f50 1b .cfa: $rsp 8 + .ra: .cfa 8 - ^
STACK CFI 39f50 .cfa: $rsp 48 +
STACK CFI INIT 39f74 1b .cfa: $rsp 8 + .ra: .cfa 8 - ^
STACK CFI 39f74 .cfa: $rsp 48 +
STACK CFI INIT 39f98 16 .cfa: $rsp 8 + .ra: .cfa 8 - ^
STACK CFI 39f98 .cfa: $rsp 48 +
STACK CFI INIT 39fb8 5d .cfa: $rsp 8 + .ra: .cfa 8 - ^
STACK CFI 39fb8 .cfa: $rsp 48 +
STACK CFI INIT 3a02c 186 .cfa: $rsp 8 + .ra: .cfa 8 - ^
STACK CFI 3a02c .cfa: $rsp 96 +
STACK CFI INIT 3a214 182 .cfa: $rsp 8 + .ra: .cfa 8 - ^
STACK CFI 3a214 .cfa: $rsp 96 +
STACK CFI INIT 3a41c 4e .cfa: $rsp 8 + .ra: .cfa 8 - ^
STACK CFI 3a41c .cfa: $rsp 48 +
STACK CFI INIT 3a480 4e .cfa: $rsp 8 + .ra: .cfa 8 - ^
STACK CFI 3a480 .cfa: $rsp 48 +
STACK CFI INIT 3a4e4 3b .cfa: $rsp 8 + .ra: .cfa 8 - ^
STACK CFI 3a4e4 .cfa: $rsp 48 +
STACK CFI INIT 3a530 3b .cfa: $rsp 8 + .ra: .cfa 8 - ^
STACK CFI 3a530 .cfa: $rsp 48 +
STACK CFI INIT 3a57c 6c .cfa: $rsp 8 + .ra: .cfa 8 - ^
STACK CFI 3a57c .cfa: $rsp 48 +
STACK CFI INIT 3a604 67 .cfa: $rsp 8 + .ra: .cfa 8 - ^
STACK CFI 3a604 .cfa: $rsp 48 +
STACK CFI INIT 3a710 106 .cfa: $rsp 8 + .ra: .cfa 8 - ^
STACK CFI 3a710 .cfa: $rsp 80 +
STACK CFI INIT 3a858 113 .cfa: $rsp 8 + .ra: .cfa 8 - ^
STACK CFI 3a858 .cfa: $rsp 80 +
STACK CFI INIT 3a9b0 41 .cfa: $rsp 8 + .ra: .cfa 8 - ^
STACK CFI 3a9b0 .cfa: $rsp 48 +
STACK CFI INIT 3aa04 41 .cfa: $rsp 8 + .ra: .cfa 8 - ^
STACK CFI 3aa04 .cfa: $rsp 48 +
STACK CFI INIT 3aa68 d1 .cfa: $rsp 8 + .ra: .cfa 8 - ^
STACK CFI 3aa68 .cfa: $rsp 80 +
STACK CFI INIT 3ab70 b1 .cfa: $rsp 8 + .ra: .cfa 8 - ^
STACK CFI 3ab70 .cfa: $rsp 64 +
STACK CFI INIT 3acc0 43 .cfa: $rsp 8 + .ra: .cfa 8 - ^
STACK CFI 3acc0 .cfa: $rsp 48 +
STACK CFI INIT 3ad14 43 .cfa: $rsp 8 + .ra: .cfa 8 - ^
STACK CFI 3ad14 .cfa: $rsp 48 +
STACK CFI INIT 3ad68 1a .cfa: $rsp 8 + .ra: .cfa 8 - ^
STACK CFI 3ad68 .cfa: $rsp 48 +
STACK CFI INIT 3ad88 1a .cfa: $rsp 8 + .ra: .cfa 8 - ^
STACK CFI 3ad88 .cfa: $rsp 48 +
STACK CFI INIT 3adb0 1b .cfa: $rsp 8 + .ra: .cfa 8 - ^
STACK CFI 3adb0 .cfa: $rsp 48 +
STACK CFI INIT 3adf8 24 .cfa: $rsp 8 + .ra: .cfa 8 - ^
STACK CFI 3adf8 .cfa: $rsp 64 +
STACK CFI INIT 3ae28 2e .cfa: $rsp 8 + .ra: .cfa 8 - ^
STACK CFI 3ae28 .cfa: $rsp 80 +
STACK CFI INIT 3ae64 23 .cfa: $rsp 8 + .ra: .cfa 8 - ^
STACK CFI 3ae64 .cfa: $rsp 64 +
STACK CFI INIT 3ae90 2e .cfa: $rsp 8 + .ra: .cfa 8 - ^
STACK CFI 3ae90 .cfa: $rsp 80 +
STACK CFI INIT 3af30 27 .cfa: $rsp 8 + .ra: .cfa 8 - ^
STACK CFI 3af30 .cfa: $rsp 8 +
STACK CFI INIT 3af60 27 .cfa: $rsp 8 + .ra: .cfa 8 - ^
STACK CFI 3af60 .cfa: $rsp 8 +
STACK CFI INIT 3afc0 1b .cfa: $rsp 8 + .ra: .cfa 8 - ^
STACK CFI 3afc0 .cfa: $rsp 48 +
STACK CFI INIT 3afec 3b .cfa: $rsp 8 + .ra: .cfa 8 - ^
STACK CFI 3afec .cfa: $rsp 48 +
STACK CFI INIT 3b038 3b .cfa: $rsp 8 + .ra: .cfa 8 - ^
STACK CFI 3b038 .cfa: $rsp 48 +
STACK CFI INIT 3b084 38 .cfa: $rsp 8 + .ra: .cfa 8 - ^
STACK CFI 3b084 .cfa: $rsp 48 +
STACK CFI INIT 3b0e4 4e .cfa: $rsp 8 + .ra: .cfa 8 - ^
STACK CFI 3b0e4 .cfa: $rsp 48 +
STACK CFI INIT 3b148 4e .cfa: $rsp 8 + .ra: .cfa 8 - ^
STACK CFI 3b148 .cfa: $rsp 48 +
STACK CFI INIT 3b1bc 64 .cfa: $rsp 8 + .ra: .cfa 8 - ^
STACK CFI 3b1bc .cfa: $rsp 48 +
STACK CFI INIT 3b23c 3d .cfa: $rsp 8 + .ra: .cfa 8 - ^
STACK CFI 3b23c .cfa: $rsp 48 +
STACK CFI INIT 3b294 38 .cfa: $rsp 8 + .ra: .cfa 8 - ^
STACK CFI 3b294 .cfa: $rsp 48 +
STACK CFI INIT 3b2dc 26 .cfa: $rsp 8 + .ra: .cfa 8 - ^
STACK CFI 3b2dc .cfa: $rsp 48 +
STACK CFI INIT 3b38c 21 .cfa: $rsp 8 + .ra: .cfa 8 - ^
STACK CFI 3b38c .cfa: $rsp 48 +
STACK CFI INIT 3b3c0 c1 .cfa: $rsp 8 + .ra: .cfa 8 - ^
STACK CFI 3b3c0 .cfa: $rsp 48 +
STACK CFI INIT 3b4d4 21 .cfa: $rsp 8 + .ra: .cfa 8 - ^
STACK CFI 3b4d4 .cfa: $rsp 48 +
STACK CFI INIT 3b500 14 .cfa: $rsp 8 + .ra: .cfa 8 - ^
STACK CFI 3b500 .cfa: $rsp 48 +
STACK CFI INIT 3b51c bc .cfa: $rsp 8 + .ra: .cfa 8 - ^
STACK CFI 3b51c .cfa: $rsp 96 +
STACK CFI INIT 3b608 4a .cfa: $rsp 8 + .ra: .cfa 8 - ^
STACK CFI 3b608 .cfa: $rsp 48 +
STACK CFI INIT 3b670 52 .cfa: $rsp 8 + .ra: .cfa 8 - ^
STACK CFI 3b670 .cfa: $rsp 48 +
STACK CFI INIT 3b6d8 30 .cfa: $rsp 8 + .ra: .cfa 8 - ^
STACK CFI 3b6d8 .cfa: $rsp 48 +
STACK CFI INIT 3b714 5b .cfa: $rsp 8 + .ra: .cfa 8 - ^
STACK CFI 3b714 .cfa: $rsp 48 +
STACK CFI INIT 3b7e0 3c .cfa: $rsp 8 + .ra: .cfa 8 - ^
STACK CFI 3b7e0 .cfa: $rsp 48 +
STACK CFI INIT 3b850 2f .cfa: $rsp 8 + .ra: .cfa 8 - ^
STACK CFI 3b850 .cfa: $rsp 48 +
STACK CFI INIT 3b88c 3d .cfa: $rsp 8 + .ra: .cfa 8 - ^
STACK CFI 3b88c .cfa: $rsp 48 +
STACK CFI INIT 3b8d8 101 .cfa: $rsp 8 + .ra: .cfa 8 - ^
STACK CFI 3b8d8 .cfa: $rsp 64 +
STACK CFI INIT 3ba1c de .cfa: $rsp 8 + .ra: .cfa 8 - ^
STACK CFI 3ba1c .cfa: $rsp 8 +
STACK CFI INIT 3bb34 25 .cfa: $rsp 8 + .ra: .cfa 8 - ^
STACK CFI 3bb34 .cfa: $rsp 48 +
STACK CFI INIT 3bbbc 36 .cfa: $rsp 8 + .ra: .cfa 8 - ^
STACK CFI 3bbbc .cfa: $rsp 48 +
STACK CFI INIT 3bc00 36 .cfa: $rsp 8 + .ra: .cfa 8 - ^
STACK CFI 3bc00 .cfa: $rsp 48 +
STACK CFI INIT 3bc6c 3e .cfa: $rsp 8 + .ra: .cfa 8 - ^
STACK CFI 3bc6c .cfa: $rsp 48 +
STACK CFI INIT 3bcbc 13a .cfa: $rsp 8 + .ra: .cfa 8 - ^
STACK CFI 3bcbc .cfa: $rsp 48 +
STACK CFI INIT 3be44 6e .cfa: $rsp 8 + .ra: .cfa 8 - ^
STACK CFI 3be44 .cfa: $rsp 64 +
STACK CFI INIT 3bed0 29 .cfa: $rsp 8 + .ra: .cfa 8 - ^
STACK CFI 3bed0 .cfa: $rsp 48 +
STACK CFI INIT 3bf04 41 .cfa: $rsp 8 + .ra: .cfa 8 - ^
STACK CFI 3bf04 .cfa: $rsp 48 +
STACK CFI INIT 3bf58 26 .cfa: $rsp 8 + .ra: .cfa 8 - ^
STACK CFI 3bf58 .cfa: $rsp 48 +
STACK CFI INIT 3bf88 26 .cfa: $rsp 8 + .ra: .cfa 8 - ^
STACK CFI 3bf88 .cfa: $rsp 48 +
STACK CFI INIT 3bfb8 26 .cfa: $rsp 8 + .ra: .cfa 8 - ^
STACK CFI 3bfb8 .cfa: $rsp 48 +
STACK CFI INIT 3bfe8 26 .cfa: $rsp 8 + .ra: .cfa 8 - ^
STACK CFI 3bfe8 .cfa: $rsp 48 +
STACK CFI INIT 3c038 4e .cfa: $rsp 8 + .ra: .cfa 8 - ^
STACK CFI 3c038 .cfa: $rsp 48 +
STACK CFI INIT 3c184 1b .cfa: $rsp 8 + .ra: .cfa 8 - ^
STACK CFI 3c184 .cfa: $rsp 48 +
STACK CFI INIT 3c1a8 1b .cfa: $rsp 8 + .ra: .cfa 8 - ^
STACK CFI 3c1a8 .cfa: $rsp 48 +
STACK CFI INIT 3c1cc 1b .cfa: $rsp 8 + .ra: .cfa 8 - ^
STACK CFI 3c1cc .cfa: $rsp 48 +
STACK CFI INIT 3c22c 8e .cfa: $rsp 8 + .ra: .cfa 8 - ^
STACK CFI 3c22c .cfa: $rsp 96 +
STACK CFI INIT 3c2e0 26 .cfa: $rsp 8 + .ra: .cfa 8 - ^
STACK CFI 3c2e0 .cfa: $rsp 48 +
STACK CFI INIT 3c318 2c .cfa: $rsp 8 + .ra: .cfa 8 - ^
STACK CFI 3c318 .cfa: $rsp 48 +
STACK CFI INIT 3c3b0 11d .cfa: $rsp 8 + .ra: .cfa 8 - ^
STACK CFI 3c3b0 .cfa: $rsp 48 +
STACK CFI INIT 3c568 1b .cfa: $rsp 8 + .ra: .cfa 8 - ^
STACK CFI 3c568 .cfa: $rsp 48 +
STACK CFI INIT 3c58c 1b .cfa: $rsp 8 + .ra: .cfa 8 - ^
STACK CFI 3c58c .cfa: $rsp 48 +
STACK CFI INIT 3c5b0 1b .cfa: $rsp 8 + .ra: .cfa 8 - ^
STACK CFI 3c5b0 .cfa: $rsp 48 +
STACK CFI INIT 3c5d8 82 .cfa: $rsp 8 + .ra: .cfa 8 - ^
STACK CFI 3c5d8 .cfa: $rsp 64 +
STACK CFI INIT 3c68c 2e .cfa: $rsp 8 + .ra: .cfa 8 - ^
STACK CFI 3c68c .cfa: $rsp 48 +
STACK CFI INIT 3c6c8 a2 .cfa: $rsp 8 + .ra: .cfa 8 - ^
STACK CFI 3c6c8 .cfa: $rsp 64 +
STACK CFI INIT 3c794 17b .cfa: $rsp 8 + .ra: .cfa 8 - ^
STACK CFI 3c794 .cfa: $rsp 80 +
STACK CFI INIT 3c970 69 .cfa: $rsp 8 + .ra: .cfa 8 - ^
STACK CFI 3c970 .cfa: $rsp 48 +
STACK CFI INIT 3c9f4 be .cfa: $rsp 8 + .ra: .cfa 8 - ^
STACK CFI 3c9f4 .cfa: $rsp 48 +
STACK CFI INIT 3cae4 76 .cfa: $rsp 8 + .ra: .cfa 8 - ^
STACK CFI 3cae4 .cfa: $rsp 352 +
STACK CFI INIT 3cb78 3e2 .cfa: $rsp 8 + .ra: .cfa 8 - ^
STACK CFI 3cb78 .cfa: $rsp 656 +
STACK CFI INIT 3d054 a2 .cfa: $rsp 8 + .ra: .cfa 8 - ^
STACK CFI 3d054 .cfa: $rsp 48 +
STACK CFI INIT 3d120 bb .cfa: $rsp 8 + .ra: .cfa 8 - ^
STACK CFI 3d120 .cfa: $rsp 80 +
STACK CFI INIT 3d20c 148 .cfa: $rsp 8 + .ra: .cfa 8 - ^
STACK CFI 3d20c .cfa: $rsp 64 +
STACK CFI INIT 3d3a8 65 .cfa: $rsp 8 + .ra: .cfa 8 - ^
STACK CFI 3d3a8 .cfa: $rsp 96 +
STACK CFI INIT 3d428 a1 .cfa: $rsp 8 + .ra: .cfa 8 - ^
STACK CFI 3d428 .cfa: $rsp 112 +
STACK CFI INIT 3d4f4 1ea .cfa: $rsp 8 + .ra: .cfa 8 - ^
STACK CFI 3d4f4 .cfa: $rsp 96 +
STACK CFI INIT 3d758 294 .cfa: $rsp 8 + .ra: .cfa 8 - ^
STACK CFI 3d758 .cfa: $rsp 576 +
STACK CFI INIT 3da94 352 .cfa: $rsp 8 + .ra: .cfa 8 - ^
STACK CFI 3da94 .cfa: $rsp 880 +
STACK CFI INIT 3defc 2b .cfa: $rsp 8 + .ra: .cfa 8 - ^
STACK CFI 3defc .cfa: $rsp 48 +
STACK CFI INIT 3df58 3b .cfa: $rsp 8 + .ra: .cfa 8 - ^
STACK CFI 3df58 .cfa: $rsp 48 +
STACK CFI INIT 3dfa4 3b .cfa: $rsp 8 + .ra: .cfa 8 - ^
STACK CFI 3dfa4 .cfa: $rsp 48 +
STACK CFI INIT 3dff0 26 .cfa: $rsp 8 + .ra: .cfa 8 - ^
STACK CFI 3dff0 .cfa: $rsp 48 +
STACK CFI INIT 3e020 26 .cfa: $rsp 8 + .ra: .cfa 8 - ^
STACK CFI 3e020 .cfa: $rsp 48 +
STACK CFI INIT 3e0c8 1b .cfa: $rsp 8 + .ra: .cfa 8 - ^
STACK CFI 3e0c8 .cfa: $rsp 48 +
STACK CFI INIT 3e0f0 1b0 .cfa: $rsp 8 + .ra: .cfa 8 - ^
STACK CFI 3e0f0 .cfa: $rsp 64 +
STACK CFI INIT 3e32c 116 .cfa: $rsp 8 + .ra: .cfa 8 - ^
STACK CFI 3e32c .cfa: $rsp 64 +
STACK CFI INIT 3e494 1b .cfa: $rsp 8 + .ra: .cfa 8 - ^
STACK CFI 3e494 .cfa: $rsp 48 +
STACK CFI INIT 3e4e0 3a .cfa: $rsp 8 + .ra: .cfa 8 - ^
STACK CFI 3e4e0 .cfa: $rsp 64 +
STACK CFI INIT 3e558 48 .cfa: $rsp 8 + .ra: .cfa 8 - ^
STACK CFI 3e558 .cfa: $rsp 80 +
STACK CFI INIT 3e5cc 23 .cfa: $rsp 8 + .ra: .cfa 8 - ^
STACK CFI 3e5cc .cfa: $rsp 48 +
STACK CFI INIT 3e600 10 .cfa: $rsp 8 + .ra: .cfa 8 - ^
STACK CFI 3e600 .cfa: $rsp 48 +
STACK CFI INIT 3e61c 3d .cfa: $rsp 8 + .ra: .cfa 8 - ^
STACK CFI 3e61c .cfa: $rsp 48 +
STACK CFI INIT 3e670 40 .cfa: $rsp 8 + .ra: .cfa 8 - ^
STACK CFI 3e670 .cfa: $rsp 48 +
STACK CFI INIT 3e6c0 5b .cfa: $rsp 8 + .ra: .cfa 8 - ^
STACK CFI 3e6c0 .cfa: $rsp 48 +
STACK CFI INIT 3e738 6f .cfa: $rsp 8 + .ra: .cfa 8 - ^
STACK CFI 3e738 .cfa: $rsp 48 +
STACK CFI INIT 3e7c4 3e .cfa: $rsp 8 + .ra: .cfa 8 - ^
STACK CFI 3e7c4 .cfa: $rsp 48 +
STACK CFI INIT 3e824 27 .cfa: $rsp 8 + .ra: .cfa 8 - ^
STACK CFI 3e824 .cfa: $rsp 8 +
STACK CFI INIT 3e86c 14 .cfa: $rsp 8 + .ra: .cfa 8 - ^
STACK CFI 3e86c .cfa: $rsp 48 +
STACK CFI INIT 3e888 10 .cfa: $rsp 8 + .ra: .cfa 8 - ^
STACK CFI 3e888 .cfa: $rsp 48 +
STACK CFI INIT 3e89c 35 .cfa: $rsp 8 + .ra: .cfa 8 - ^
STACK CFI 3e89c .cfa: $rsp 48 +
STACK CFI INIT 3e8e0 10 .cfa: $rsp 8 + .ra: .cfa 8 - ^
STACK CFI 3e8e0 .cfa: $rsp 48 +
STACK CFI INIT 3e90c 22 .cfa: $rsp 8 + .ra: .cfa 8 - ^
STACK CFI 3e90c .cfa: $rsp 48 +
STACK CFI INIT 3e938 2c .cfa: $rsp 8 + .ra: .cfa 8 - ^
STACK CFI 3e938 .cfa: $rsp 48 +
STACK CFI INIT 3e970 20 .cfa: $rsp 8 + .ra: .cfa 8 - ^
STACK CFI 3e970 .cfa: $rsp 48 +
STACK CFI INIT 3e9b8 62 .cfa: $rsp 8 + .ra: .cfa 8 - ^
STACK CFI 3e9b8 .cfa: $rsp 48 +
STACK CFI INIT 3ea34 5f .cfa: $rsp 8 + .ra: .cfa 8 - ^
STACK CFI 3ea34 .cfa: $rsp 48 +
STACK CFI INIT 3ead0 56 .cfa: $rsp 8 + .ra: .cfa 8 - ^
STACK CFI 3ead0 .cfa: $rsp 48 +
STACK CFI INIT 3ec18 33a .cfa: $rsp 8 + .ra: .cfa 8 - ^
STACK CFI 3ec18 .cfa: $rsp 96 +
STACK CFI INIT 3f020 6b4 .cfa: $rsp 8 + .ra: .cfa 8 - ^
STACK CFI 3f020 .cfa: $rsp 112 +
STACK CFI INIT 3f884 32e .cfa: $rsp 8 + .ra: .cfa 8 - ^
STACK CFI 3f884 .cfa: $rsp 96 +
STACK CFI INIT 3fc80 761 .cfa: $rsp 8 + .ra: .cfa 8 - ^
STACK CFI 3fc80 .cfa: $rsp 208 +
STACK CFI INIT 405bc 2e .cfa: $rsp 8 + .ra: .cfa 8 - ^
STACK CFI 405bc .cfa: $rsp 64 +
STACK CFI INIT 405f8 2e .cfa: $rsp 8 + .ra: .cfa 8 - ^
STACK CFI 405f8 .cfa: $rsp 64 +
STACK CFI INIT 40634 2e .cfa: $rsp 8 + .ra: .cfa 8 - ^
STACK CFI 40634 .cfa: $rsp 64 +
STACK CFI INIT 40670 2e .cfa: $rsp 8 + .ra: .cfa 8 - ^
STACK CFI 40670 .cfa: $rsp 64 +
STACK CFI INIT 40728 47 .cfa: $rsp 8 + .ra: .cfa 8 - ^
STACK CFI 40728 .cfa: $rsp 48 +
STACK CFI INIT 40780 18 .cfa: $rsp 8 + .ra: .cfa 8 - ^
STACK CFI 40780 .cfa: $rsp 48 +
STACK CFI INIT 40a6c 2a .cfa: $rsp 8 + .ra: .cfa 8 - ^
STACK CFI 40a6c .cfa: $rsp 48 +
STACK CFI INIT 40aa0 2d .cfa: $rsp 8 + .ra: .cfa 8 - ^
STACK CFI 40aa0 .cfa: $rsp 48 +
STACK CFI INIT 40ad8 25 .cfa: $rsp 8 + .ra: .cfa 8 - ^
STACK CFI 40ad8 .cfa: $rsp 48 +
STACK CFI INIT 40b08 25 .cfa: $rsp 8 + .ra: .cfa 8 - ^
STACK CFI 40b08 .cfa: $rsp 48 +
STACK CFI INIT 40d44 29 .cfa: $rsp 8 + .ra: .cfa 8 - ^
STACK CFI 40d44 .cfa: $rsp 64 +
STACK CFI INIT 40d78 2d .cfa: $rsp 8 + .ra: .cfa 8 - ^
STACK CFI 40d78 .cfa: $rsp 64 +
STACK CFI INIT 40db0 2d .cfa: $rsp 8 + .ra: .cfa 8 - ^
STACK CFI 40db0 .cfa: $rsp 64 +
STACK CFI INIT 40de8 2d .cfa: $rsp 8 + .ra: .cfa 8 - ^
STACK CFI 40de8 .cfa: $rsp 64 +
STACK CFI INIT 40e20 2d .cfa: $rsp 8 + .ra: .cfa 8 - ^
STACK CFI 40e20 .cfa: $rsp 64 +
STACK CFI INIT 40e58 61 .cfa: $rsp 8 + .ra: .cfa 8 - ^
STACK CFI 40e58 .cfa: $rsp 48 +
STACK CFI INIT 40ed4 65 .cfa: $rsp 8 + .ra: .cfa 8 - ^
STACK CFI 40ed4 .cfa: $rsp 48 +
STACK CFI INIT 40f54 29 .cfa: $rsp 8 + .ra: .cfa 8 - ^
STACK CFI 40f54 .cfa: $rsp 64 +
STACK CFI INIT 40f88 29 .cfa: $rsp 8 + .ra: .cfa 8 - ^
STACK CFI 40f88 .cfa: $rsp 64 +
STACK CFI INIT 40fbc 2d .cfa: $rsp 8 + .ra: .cfa 8 - ^
STACK CFI 40fbc .cfa: $rsp 64 +
STACK CFI INIT 40ff4 2d .cfa: $rsp 8 + .ra: .cfa 8 - ^
STACK CFI 40ff4 .cfa: $rsp 64 +
STACK CFI INIT 4102c 29 .cfa: $rsp 8 + .ra: .cfa 8 - ^
STACK CFI 4102c .cfa: $rsp 64 +
STACK CFI INIT 41060 2d .cfa: $rsp 8 + .ra: .cfa 8 - ^
STACK CFI 41060 .cfa: $rsp 64 +
STACK CFI INIT 41098 29 .cfa: $rsp 8 + .ra: .cfa 8 - ^
STACK CFI 41098 .cfa: $rsp 64 +
STACK CFI INIT 410cc 2d .cfa: $rsp 8 + .ra: .cfa 8 - ^
STACK CFI 410cc .cfa: $rsp 64 +
STACK CFI INIT 41104 29 .cfa: $rsp 8 + .ra: .cfa 8 - ^
STACK CFI 41104 .cfa: $rsp 64 +
STACK CFI INIT 41138 29 .cfa: $rsp 8 + .ra: .cfa 8 - ^
STACK CFI 41138 .cfa: $rsp 64 +
STACK CFI INIT 4116c 29 .cfa: $rsp 8 + .ra: .cfa 8 - ^
STACK CFI 4116c .cfa: $rsp 64 +
STACK CFI INIT 411b0 7d .cfa: $rsp 8 + .ra: .cfa 8 - ^
STACK CFI 411b0 .cfa: $rsp 8 +
STACK CFI INIT 4129c 6d .cfa: $rsp 8 + .ra: .cfa 8 - ^
STACK CFI 4129c .cfa: $rsp 80 +
STACK CFI INIT 4132c 15b .cfa: $rsp 8 + .ra: .cfa 8 - ^
STACK CFI 4132c .cfa: $rsp 1552 +
STACK CFI INIT 41508 1a .cfa: $rsp 8 + .ra: .cfa 8 - ^
STACK CFI 41508 .cfa: $rsp 48 +
STACK CFI INIT 41528 ae .cfa: $rsp 8 + .ra: .cfa 8 - ^
STACK CFI 41528 .cfa: $rsp 64 +
STACK CFI INIT 41604 1e .cfa: $rsp 8 + .ra: .cfa 8 - ^
STACK CFI 41604 .cfa: $rsp 64 +
STACK CFI INIT 4162c 2f .cfa: $rsp 8 + .ra: .cfa 8 - ^
STACK CFI 4162c .cfa: $rsp 64 +
STACK CFI INIT 41668 47 .cfa: $rsp 8 + .ra: .cfa 8 - ^
STACK CFI 41668 .cfa: $rsp 48 +
STACK CFI INIT 41704 25 .cfa: $rsp 8 + .ra: .cfa 8 - ^
STACK CFI 41704 .cfa: $rsp 48 +
STACK CFI INIT 4176c 53 .cfa: $rsp 8 + .ra: .cfa 8 - ^
STACK CFI 4176c .cfa: $rsp 48 +
STACK CFI INIT 417d4 5b .cfa: $rsp 8 + .ra: .cfa 8 - ^
STACK CFI 417d4 .cfa: $rsp 48 +
STACK CFI INIT 41850 69 .cfa: $rsp 8 + .ra: .cfa 8 - ^
STACK CFI 41850 .cfa: $rsp 80 +
STACK CFI INIT 418d4 69 .cfa: $rsp 8 + .ra: .cfa 8 - ^
STACK CFI 418d4 .cfa: $rsp 80 +
STACK CFI INIT 41958 74 .cfa: $rsp 8 + .ra: .cfa 8 - ^
STACK CFI 41958 .cfa: $rsp 80 +
STACK CFI INIT 419ec 66 .cfa: $rsp 8 + .ra: .cfa 8 - ^
STACK CFI 419ec .cfa: $rsp 80 +
STACK CFI INIT 41a6c 25 .cfa: $rsp 8 + .ra: .cfa 8 - ^
STACK CFI 41a6c .cfa: $rsp 48 +
STACK CFI INIT 41a9c 25 .cfa: $rsp 8 + .ra: .cfa 8 - ^
STACK CFI 41a9c .cfa: $rsp 48 +
STACK CFI INIT 41acc 66 .cfa: $rsp 8 + .ra: .cfa 8 - ^
STACK CFI 41acc .cfa: $rsp 80 +
STACK CFI INIT 41b4c 69 .cfa: $rsp 8 + .ra: .cfa 8 - ^
STACK CFI 41b4c .cfa: $rsp 80 +
STACK CFI INIT 41bd0 66 .cfa: $rsp 8 + .ra: .cfa 8 - ^
STACK CFI 41bd0 .cfa: $rsp 80 +
STACK CFI INIT 41c50 69 .cfa: $rsp 8 + .ra: .cfa 8 - ^
STACK CFI 41c50 .cfa: $rsp 80 +
STACK CFI INIT 41cd4 66 .cfa: $rsp 8 + .ra: .cfa 8 - ^
STACK CFI 41cd4 .cfa: $rsp 80 +
STACK CFI INIT 41d54 66 .cfa: $rsp 8 + .ra: .cfa 8 - ^
STACK CFI 41d54 .cfa: $rsp 80 +
STACK CFI INIT 41dd4 67 .cfa: $rsp 8 + .ra: .cfa 8 - ^
STACK CFI 41dd4 .cfa: $rsp 80 +
STACK CFI INIT 41e54 69 .cfa: $rsp 8 + .ra: .cfa 8 - ^
STACK CFI 41e54 .cfa: $rsp 80 +
STACK CFI INIT 41ed8 3c .cfa: $rsp 8 + .ra: .cfa 8 - ^
STACK CFI 41ed8 .cfa: $rsp 48 +
STACK CFI INIT 41f24 3c .cfa: $rsp 8 + .ra: .cfa 8 - ^
STACK CFI 41f24 .cfa: $rsp 48 +
STACK CFI INIT 41f70 50 .cfa: $rsp 8 + .ra: .cfa 8 - ^
STACK CFI 41f70 .cfa: $rsp 48 +
STACK CFI INIT 41fd4 94 .cfa: $rsp 8 + .ra: .cfa 8 - ^
STACK CFI 41fd4 .cfa: $rsp 80 +
STACK CFI INIT 42090 94 .cfa: $rsp 8 + .ra: .cfa 8 - ^
STACK CFI 42090 .cfa: $rsp 80 +
STACK CFI INIT 4214c 3c .cfa: $rsp 8 + .ra: .cfa 8 - ^
STACK CFI 4214c .cfa: $rsp 48 +
STACK CFI INIT 42198 94 .cfa: $rsp 8 + .ra: .cfa 8 - ^
STACK CFI 42198 .cfa: $rsp 80 +
STACK CFI INIT 42254 3c .cfa: $rsp 8 + .ra: .cfa 8 - ^
STACK CFI 42254 .cfa: $rsp 48 +
STACK CFI INIT 422a0 94 .cfa: $rsp 8 + .ra: .cfa 8 - ^
STACK CFI 422a0 .cfa: $rsp 80 +
STACK CFI INIT 4235c 94 .cfa: $rsp 8 + .ra: .cfa 8 - ^
STACK CFI 4235c .cfa: $rsp 80 +
STACK CFI INIT 42418 94 .cfa: $rsp 8 + .ra: .cfa 8 - ^
STACK CFI 42418 .cfa: $rsp 80 +
STACK CFI INIT 424d4 3c .cfa: $rsp 8 + .ra: .cfa 8 - ^
STACK CFI 424d4 .cfa: $rsp 48 +
STACK CFI INIT 42520 13a .cfa: $rsp 8 + .ra: .cfa 8 - ^
STACK CFI 42520 .cfa: $rsp 144 +
STACK CFI INIT 426a8 13a .cfa: $rsp 8 + .ra: .cfa 8 - ^
STACK CFI 426a8 .cfa: $rsp 144 +
STACK CFI INIT 42830 5e .cfa: $rsp 8 + .ra: .cfa 8 - ^
STACK CFI 42830 .cfa: $rsp 48 +
STACK CFI INIT 428a8 5e .cfa: $rsp 8 + .ra: .cfa 8 - ^
STACK CFI 428a8 .cfa: $rsp 48 +
STACK CFI INIT 42954 13e .cfa: $rsp 8 + .ra: .cfa 8 - ^
STACK CFI 42954 .cfa: $rsp 128 +
STACK CFI INIT 42ae8 13e .cfa: $rsp 8 + .ra: .cfa 8 - ^
STACK CFI 42ae8 .cfa: $rsp 128 +
STACK CFI INIT 42c78 2a .cfa: $rsp 8 + .ra: .cfa 8 - ^
STACK CFI 42c78 .cfa: $rsp 48 +
STACK CFI INIT 42cac 2a .cfa: $rsp 8 + .ra: .cfa 8 - ^
STACK CFI 42cac .cfa: $rsp 48 +
STACK CFI INIT 42d38 4e .cfa: $rsp 8 + .ra: .cfa 8 - ^
STACK CFI 42d38 .cfa: $rsp 48 +
STACK CFI INIT 42d9c 20 .cfa: $rsp 8 + .ra: .cfa 8 - ^
STACK CFI 42d9c .cfa: $rsp 48 +
STACK CFI INIT 42dc4 20 .cfa: $rsp 8 + .ra: .cfa 8 - ^
STACK CFI 42dc4 .cfa: $rsp 48 +
STACK CFI INIT 42dec 3b .cfa: $rsp 8 + .ra: .cfa 8 - ^
STACK CFI 42dec .cfa: $rsp 48 +
STACK CFI INIT 42e38 3b .cfa: $rsp 8 + .ra: .cfa 8 - ^
STACK CFI 42e38 .cfa: $rsp 48 +
STACK CFI INIT 42e84 3a .cfa: $rsp 8 + .ra: .cfa 8 - ^
STACK CFI 42e84 .cfa: $rsp 48 +
STACK CFI INIT 42ecc 3a .cfa: $rsp 8 + .ra: .cfa 8 - ^
STACK CFI 42ecc .cfa: $rsp 48 +
STACK CFI INIT 42f20 3d .cfa: $rsp 8 + .ra: .cfa 8 - ^
STACK CFI 42f20 .cfa: $rsp 48 +
STACK CFI INIT 42f6c 5e .cfa: $rsp 8 + .ra: .cfa 8 - ^
STACK CFI 42f6c .cfa: $rsp 48 +
STACK CFI INIT 43014 2e .cfa: $rsp 8 + .ra: .cfa 8 - ^
STACK CFI 43014 .cfa: $rsp 64 +
STACK CFI INIT 43050 2e .cfa: $rsp 8 + .ra: .cfa 8 - ^
STACK CFI 43050 .cfa: $rsp 64 +
STACK CFI INIT 4308c 2e .cfa: $rsp 8 + .ra: .cfa 8 - ^
STACK CFI 4308c .cfa: $rsp 64 +
STACK CFI INIT 430c8 2e .cfa: $rsp 8 + .ra: .cfa 8 - ^
STACK CFI 430c8 .cfa: $rsp 64 +
STACK CFI INIT 43104 2e .cfa: $rsp 8 + .ra: .cfa 8 - ^
STACK CFI 43104 .cfa: $rsp 64 +
STACK CFI INIT 43140 2e .cfa: $rsp 8 + .ra: .cfa 8 - ^
STACK CFI 43140 .cfa: $rsp 64 +
STACK CFI INIT 4317c 2e .cfa: $rsp 8 + .ra: .cfa 8 - ^
STACK CFI 4317c .cfa: $rsp 64 +
STACK CFI INIT 431b8 2e .cfa: $rsp 8 + .ra: .cfa 8 - ^
STACK CFI 431b8 .cfa: $rsp 64 +
STACK CFI INIT 431f4 2a .cfa: $rsp 8 + .ra: .cfa 8 - ^
STACK CFI 431f4 .cfa: $rsp 64 +
STACK CFI INIT 43228 2e .cfa: $rsp 8 + .ra: .cfa 8 - ^
STACK CFI 43228 .cfa: $rsp 64 +
STACK CFI INIT 43264 2e .cfa: $rsp 8 + .ra: .cfa 8 - ^
STACK CFI 43264 .cfa: $rsp 64 +
STACK CFI INIT 432a0 2e .cfa: $rsp 8 + .ra: .cfa 8 - ^
STACK CFI 432a0 .cfa: $rsp 64 +
STACK CFI INIT 432dc 2e .cfa: $rsp 8 + .ra: .cfa 8 - ^
STACK CFI 432dc .cfa: $rsp 64 +
STACK CFI INIT 43318 2a .cfa: $rsp 8 + .ra: .cfa 8 - ^
STACK CFI 43318 .cfa: $rsp 64 +
STACK CFI INIT 4334c 2e .cfa: $rsp 8 + .ra: .cfa 8 - ^
STACK CFI 4334c .cfa: $rsp 64 +
STACK CFI INIT 43388 2e .cfa: $rsp 8 + .ra: .cfa 8 - ^
STACK CFI 43388 .cfa: $rsp 64 +
STACK CFI INIT 433c4 2e .cfa: $rsp 8 + .ra: .cfa 8 - ^
STACK CFI 433c4 .cfa: $rsp 64 +
STACK CFI INIT 43400 2e .cfa: $rsp 8 + .ra: .cfa 8 - ^
STACK CFI 43400 .cfa: $rsp 64 +
STACK CFI INIT 4343c 2a .cfa: $rsp 8 + .ra: .cfa 8 - ^
STACK CFI 4343c .cfa: $rsp 64 +
STACK CFI INIT 43470 2e .cfa: $rsp 8 + .ra: .cfa 8 - ^
STACK CFI 43470 .cfa: $rsp 64 +
STACK CFI INIT 434ac 2e .cfa: $rsp 8 + .ra: .cfa 8 - ^
STACK CFI 434ac .cfa: $rsp 64 +
STACK CFI INIT 434e8 2e .cfa: $rsp 8 + .ra: .cfa 8 - ^
STACK CFI 434e8 .cfa: $rsp 64 +
STACK CFI INIT 43524 2e .cfa: $rsp 8 + .ra: .cfa 8 - ^
STACK CFI 43524 .cfa: $rsp 64 +
STACK CFI INIT 43560 2a .cfa: $rsp 8 + .ra: .cfa 8 - ^
STACK CFI 43560 .cfa: $rsp 64 +
STACK CFI INIT 43594 2e .cfa: $rsp 8 + .ra: .cfa 8 - ^
STACK CFI 43594 .cfa: $rsp 64 +
STACK CFI INIT 435d0 2e .cfa: $rsp 8 + .ra: .cfa 8 - ^
STACK CFI 435d0 .cfa: $rsp 64 +
STACK CFI INIT 4360c 2e .cfa: $rsp 8 + .ra: .cfa 8 - ^
STACK CFI 4360c .cfa: $rsp 64 +
STACK CFI INIT 43648 2e .cfa: $rsp 8 + .ra: .cfa 8 - ^
STACK CFI 43648 .cfa: $rsp 64 +
STACK CFI INIT 43684 2a .cfa: $rsp 8 + .ra: .cfa 8 - ^
STACK CFI 43684 .cfa: $rsp 64 +
STACK CFI INIT 436b8 2a .cfa: $rsp 8 + .ra: .cfa 8 - ^
STACK CFI 436b8 .cfa: $rsp 64 +
STACK CFI INIT 436ec 2a .cfa: $rsp 8 + .ra: .cfa 8 - ^
STACK CFI 436ec .cfa: $rsp 64 +
STACK CFI INIT 43720 2a .cfa: $rsp 8 + .ra: .cfa 8 - ^
STACK CFI 43720 .cfa: $rsp 64 +
STACK CFI INIT 43754 2a .cfa: $rsp 8 + .ra: .cfa 8 - ^
STACK CFI 43754 .cfa: $rsp 64 +
STACK CFI INIT 43788 2a .cfa: $rsp 8 + .ra: .cfa 8 - ^
STACK CFI 43788 .cfa: $rsp 64 +
STACK CFI INIT 437bc 2a .cfa: $rsp 8 + .ra: .cfa 8 - ^
STACK CFI 437bc .cfa: $rsp 64 +
STACK CFI INIT 437f0 2a .cfa: $rsp 8 + .ra: .cfa 8 - ^
STACK CFI 437f0 .cfa: $rsp 64 +
STACK CFI INIT 43824 2a .cfa: $rsp 8 + .ra: .cfa 8 - ^
STACK CFI 43824 .cfa: $rsp 64 +
STACK CFI INIT 43858 2a .cfa: $rsp 8 + .ra: .cfa 8 - ^
STACK CFI 43858 .cfa: $rsp 64 +
STACK CFI INIT 4388c 2a .cfa: $rsp 8 + .ra: .cfa 8 - ^
STACK CFI 4388c .cfa: $rsp 64 +
STACK CFI INIT 438c0 2a .cfa: $rsp 8 + .ra: .cfa 8 - ^
STACK CFI 438c0 .cfa: $rsp 64 +
STACK CFI INIT 438f4 17c .cfa: $rsp 8 + .ra: .cfa 8 - ^
STACK CFI 438f4 .cfa: $rsp 96 +
STACK CFI INIT 43adc 72 .cfa: $rsp 8 + .ra: .cfa 8 - ^
STACK CFI 43adc .cfa: $rsp 96 +
STACK CFI INIT 43b6c 19d .cfa: $rsp 8 + .ra: .cfa 8 - ^
STACK CFI 43b6c .cfa: $rsp 128 +
STACK CFI INIT 43d70 4d .cfa: $rsp 8 + .ra: .cfa 8 - ^
STACK CFI 43d70 .cfa: $rsp 64 +
STACK CFI INIT 43dd0 14 .cfa: $rsp 8 + .ra: .cfa 8 - ^
STACK CFI 43dd0 .cfa: $rsp 64 +
STACK CFI INIT 44e88 3f .cfa: $rsp 8 + .ra: .cfa 8 - ^
STACK CFI 44e88 .cfa: $rsp 48 +
STACK CFI INIT 44ed8 3d .cfa: $rsp 8 + .ra: .cfa 8 - ^
STACK CFI 44ed8 .cfa: $rsp 48 +
STACK CFI INIT 44f24 45 .cfa: $rsp 8 + .ra: .cfa 8 - ^
STACK CFI 44f24 .cfa: $rsp 48 +
STACK CFI INIT 44f7c 5f .cfa: $rsp 8 + .ra: .cfa 8 - ^
STACK CFI 44f7c .cfa: $rsp 48 +
STACK CFI INIT 44ff4 26 .cfa: $rsp 8 + .ra: .cfa 8 - ^
STACK CFI 44ff4 .cfa: $rsp 48 +
STACK CFI INIT 45024 26 .cfa: $rsp 8 + .ra: .cfa 8 - ^
STACK CFI 45024 .cfa: $rsp 48 +
STACK CFI INIT 45054 26 .cfa: $rsp 8 + .ra: .cfa 8 - ^
STACK CFI 45054 .cfa: $rsp 48 +
STACK CFI INIT 45084 26 .cfa: $rsp 8 + .ra: .cfa 8 - ^
STACK CFI 45084 .cfa: $rsp 48 +
STACK CFI INIT 45144 1a .cfa: $rsp 8 + .ra: .cfa 8 - ^
STACK CFI 45144 .cfa: $rsp 48 +
STACK CFI INIT 45164 1b .cfa: $rsp 8 + .ra: .cfa 8 - ^
STACK CFI 45164 .cfa: $rsp 48 +
STACK CFI INIT 451a8 38 .cfa: $rsp 8 + .ra: .cfa 8 - ^
STACK CFI 451a8 .cfa: $rsp 48 +
STACK CFI INIT 4526c c5 .cfa: $rsp 8 + .ra: .cfa 8 - ^
STACK CFI 4526c .cfa: $rsp 80 +
STACK CFI INIT 45364 cd .cfa: $rsp 8 + .ra: .cfa 8 - ^
STACK CFI 45364 .cfa: $rsp 96 +
STACK CFI INIT 45468 20 .cfa: $rsp 8 + .ra: .cfa 8 - ^
STACK CFI 45468 .cfa: $rsp 48 +
STACK CFI INIT 45490 f5 .cfa: $rsp 8 + .ra: .cfa 8 - ^
STACK CFI 45490 .cfa: $rsp 64 +
STACK CFI INIT 455c4 f5 .cfa: $rsp 8 + .ra: .cfa 8 - ^
STACK CFI 455c4 .cfa: $rsp 80 +
STACK CFI INIT 4570c 9f .cfa: $rsp 8 + .ra: .cfa 8 - ^
STACK CFI 4570c .cfa: $rsp 48 +
STACK CFI INIT 457d4 c8 .cfa: $rsp 8 + .ra: .cfa 8 - ^
STACK CFI 457d4 .cfa: $rsp 48 +
STACK CFI INIT 458dc 1b .cfa: $rsp 8 + .ra: .cfa 8 - ^
STACK CFI 458dc .cfa: $rsp 48 +
STACK CFI INIT 45900 67 .cfa: $rsp 8 + .ra: .cfa 8 - ^
STACK CFI 45900 .cfa: $rsp 48 +
STACK CFI INIT 45980 20 .cfa: $rsp 8 + .ra: .cfa 8 - ^
STACK CFI 45980 .cfa: $rsp 48 +
STACK CFI INIT 459a8 41 .cfa: $rsp 8 + .ra: .cfa 8 - ^
STACK CFI 459a8 .cfa: $rsp 48 +
STACK CFI INIT 459fc d4 .cfa: $rsp 8 + .ra: .cfa 8 - ^
STACK CFI 459fc .cfa: $rsp 48 +
STACK CFI INIT 45b08 a7 .cfa: $rsp 8 + .ra: .cfa 8 - ^
STACK CFI 45b08 .cfa: $rsp 48 +
STACK CFI INIT 45bd8 cc .cfa: $rsp 8 + .ra: .cfa 8 - ^
STACK CFI 45bd8 .cfa: $rsp 48 +
STACK CFI INIT 45cd8 39 .cfa: $rsp 8 + .ra: .cfa 8 - ^
STACK CFI 45cd8 .cfa: $rsp 48 +
STACK CFI INIT 45d20 22 .cfa: $rsp 8 + .ra: .cfa 8 - ^
STACK CFI 45d20 .cfa: $rsp 48 +
STACK CFI INIT 45d60 31 .cfa: $rsp 8 + .ra: .cfa 8 - ^
STACK CFI 45d60 .cfa: $rsp 48 +
STACK CFI INIT 45da0 31 .cfa: $rsp 8 + .ra: .cfa 8 - ^
STACK CFI 45da0 .cfa: $rsp 48 +
STACK CFI INIT 45e60 36d .cfa: $rsp 8 + .ra: .cfa 8 - ^
STACK CFI 45e60 .cfa: $rsp 160 +
STACK CFI INIT 462a8 db .cfa: $rsp 8 + .ra: .cfa 8 - ^
STACK CFI 462a8 .cfa: $rsp 96 +
STACK CFI INIT 463bc 1d2 .cfa: $rsp 8 + .ra: .cfa 8 - ^
STACK CFI 463bc .cfa: $rsp 96 +
STACK CFI INIT 46604 a6 .cfa: $rsp 8 + .ra: .cfa 8 - ^
STACK CFI 46604 .cfa: $rsp 80 +
STACK CFI INIT 466d4 143 .cfa: $rsp 8 + .ra: .cfa 8 - ^
STACK CFI 466d4 .cfa: $rsp 80 +
STACK CFI INIT 46868 132 .cfa: $rsp 8 + .ra: .cfa 8 - ^
STACK CFI 46868 .cfa: $rsp 96 +
STACK CFI INIT 469e8 13c .cfa: $rsp 8 + .ra: .cfa 8 - ^
STACK CFI 469e8 .cfa: $rsp 208 +
STACK CFI INIT 46b74 30 .cfa: $rsp 8 + .ra: .cfa 8 - ^
STACK CFI 46b74 .cfa: $rsp 48 +
STACK CFI INIT 46bb8 288 .cfa: $rsp 8 + .ra: .cfa 8 - ^
STACK CFI 46bb8 .cfa: $rsp 112 +
STACK CFI INIT 46f08 17c .cfa: $rsp 8 + .ra: .cfa 8 - ^
STACK CFI 46f08 .cfa: $rsp 96 +
STACK CFI INIT 470e4 23 .cfa: $rsp 8 + .ra: .cfa 8 - ^
STACK CFI 470e4 .cfa: $rsp 48 +
STACK CFI INIT 47118 5e .cfa: $rsp 8 + .ra: .cfa 8 - ^
STACK CFI 47118 .cfa: $rsp 48 +
STACK CFI INIT 471a8 26 .cfa: $rsp 8 + .ra: .cfa 8 - ^
STACK CFI 471a8 .cfa: $rsp 48 +
STACK CFI INIT 471f4 21 .cfa: $rsp 8 + .ra: .cfa 8 - ^
STACK CFI 471f4 .cfa: $rsp 48 +
STACK CFI INIT 4723c 124 .cfa: $rsp 8 + .ra: .cfa 8 - ^
STACK CFI 4723c .cfa: $rsp 64 +
STACK CFI INIT 47498 cf .cfa: $rsp 8 + .ra: .cfa 8 - ^
STACK CFI 47498 .cfa: $rsp 48 +
STACK CFI INIT 4759c 39 .cfa: $rsp 8 + .ra: .cfa 8 - ^
STACK CFI 4759c .cfa: $rsp 48 +
STACK CFI INIT 475e4 30 .cfa: $rsp 8 + .ra: .cfa 8 - ^
STACK CFI 475e4 .cfa: $rsp 48 +
STACK CFI INIT 47644 ed .cfa: $rsp 8 + .ra: .cfa 8 - ^
STACK CFI 47644 .cfa: $rsp 160 +
STACK CFI INIT 4776c 10c .cfa: $rsp 8 + .ra: .cfa 8 - ^
STACK CFI 4776c .cfa: $rsp 48 +
STACK CFI INIT 478bc 3b .cfa: $rsp 8 + .ra: .cfa 8 - ^
STACK CFI 478bc .cfa: $rsp 48 +
STACK CFI INIT 47908 40 .cfa: $rsp 8 + .ra: .cfa 8 - ^
STACK CFI 47908 .cfa: $rsp 48 +
STACK CFI INIT 47958 75 .cfa: $rsp 8 + .ra: .cfa 8 - ^
STACK CFI 47958 .cfa: $rsp 48 +
STACK CFI INIT 47a2c 79 .cfa: $rsp 8 + .ra: .cfa 8 - ^
STACK CFI 47a2c .cfa: $rsp 48 +
STACK CFI INIT 47ac4 26 .cfa: $rsp 8 + .ra: .cfa 8 - ^
STACK CFI 47ac4 .cfa: $rsp 48 +
STACK CFI INIT 47b6c 53 .cfa: $rsp 8 + .ra: .cfa 8 - ^
STACK CFI 47b6c .cfa: $rsp 48 +
STACK CFI INIT 47c10 4d .cfa: $rsp 8 + .ra: .cfa 8 - ^
STACK CFI 47c10 .cfa: $rsp 48 +
STACK CFI INIT 481c4 119 .cfa: $rsp 8 + .ra: .cfa 8 - ^
STACK CFI 481c4 .cfa: $rsp 64 +
STACK CFI INIT 48324 1d6 .cfa: $rsp 8 + .ra: .cfa 8 - ^
STACK CFI 48324 .cfa: $rsp 80 +
STACK CFI INIT 48570 fe .cfa: $rsp 8 + .ra: .cfa 8 - ^
STACK CFI 48570 .cfa: $rsp 48 +
STACK CFI INIT 486b0 137 .cfa: $rsp 8 + .ra: .cfa 8 - ^
STACK CFI 486b0 .cfa: $rsp 64 +
STACK CFI INIT 48834 73 .cfa: $rsp 8 + .ra: .cfa 8 - ^
STACK CFI 48834 .cfa: $rsp 48 +
STACK CFI INIT 488d0 4e .cfa: $rsp 8 + .ra: .cfa 8 - ^
STACK CFI 488d0 .cfa: $rsp 48 +
STACK CFI INIT 48934 4e .cfa: $rsp 8 + .ra: .cfa 8 - ^
STACK CFI 48934 .cfa: $rsp 48 +
STACK CFI INIT 48998 4e .cfa: $rsp 8 + .ra: .cfa 8 - ^
STACK CFI 48998 .cfa: $rsp 48 +
STACK CFI INIT 489fc 4e .cfa: $rsp 8 + .ra: .cfa 8 - ^
STACK CFI 489fc .cfa: $rsp 48 +
STACK CFI INIT 48a60 3a .cfa: $rsp 8 + .ra: .cfa 8 - ^
STACK CFI 48a60 .cfa: $rsp 48 +
STACK CFI INIT 48aa8 dc .cfa: $rsp 8 + .ra: .cfa 8 - ^
STACK CFI 48aa8 .cfa: $rsp 96 +
STACK CFI INIT 48bbc 95 .cfa: $rsp 8 + .ra: .cfa 8 - ^
STACK CFI 48bbc .cfa: $rsp 96 +
STACK CFI INIT 48c78 48 .cfa: $rsp 8 + .ra: .cfa 8 - ^
STACK CFI 48c78 .cfa: $rsp 48 +
STACK CFI INIT 48cd4 46 .cfa: $rsp 8 + .ra: .cfa 8 - ^
STACK CFI 48cd4 .cfa: $rsp 48 +
STACK CFI INIT 48d2c 46 .cfa: $rsp 8 + .ra: .cfa 8 - ^
STACK CFI 48d2c .cfa: $rsp 48 +
STACK CFI INIT 48d84 51 .cfa: $rsp 8 + .ra: .cfa 8 - ^
STACK CFI 48d84 .cfa: $rsp 48 +
STACK CFI INIT 48dec b6 .cfa: $rsp 8 + .ra: .cfa 8 - ^
STACK CFI 48dec .cfa: $rsp 80 +
STACK CFI INIT 48ed0 39 .cfa: $rsp 8 + .ra: .cfa 8 - ^
STACK CFI 48ed0 .cfa: $rsp 48 +
STACK CFI INIT 48f18 82 .cfa: $rsp 8 + .ra: .cfa 8 - ^
STACK CFI 48f18 .cfa: $rsp 64 +
STACK CFI INIT 48fbc 48 .cfa: $rsp 8 + .ra: .cfa 8 - ^
STACK CFI 48fbc .cfa: $rsp 48 +
STACK CFI INIT 49018 ab .cfa: $rsp 8 + .ra: .cfa 8 - ^
STACK CFI 49018 .cfa: $rsp 80 +
STACK CFI INIT 490f0 61 .cfa: $rsp 8 + .ra: .cfa 8 - ^
STACK CFI 490f0 .cfa: $rsp 48 +
STACK CFI INIT 4916c 51 .cfa: $rsp 8 + .ra: .cfa 8 - ^
STACK CFI 4916c .cfa: $rsp 48 +
STACK CFI INIT 491d4 61 .cfa: $rsp 8 + .ra: .cfa 8 - ^
STACK CFI 491d4 .cfa: $rsp 48 +
STACK CFI INIT 49250 56 .cfa: $rsp 8 + .ra: .cfa 8 - ^
STACK CFI 49250 .cfa: $rsp 48 +
STACK CFI INIT 492bc 70 .cfa: $rsp 8 + .ra: .cfa 8 - ^
STACK CFI 492bc .cfa: $rsp 64 +
STACK CFI INIT 49348 dc .cfa: $rsp 8 + .ra: .cfa 8 - ^
STACK CFI 49348 .cfa: $rsp 96 +
STACK CFI INIT 4945c 50 .cfa: $rsp 8 + .ra: .cfa 8 - ^
STACK CFI 4945c .cfa: $rsp 48 +
STACK CFI INIT 494c0 5f .cfa: $rsp 8 + .ra: .cfa 8 - ^
STACK CFI 494c0 .cfa: $rsp 48 +
STACK CFI INIT 49538 71 .cfa: $rsp 8 + .ra: .cfa 8 - ^
STACK CFI 49538 .cfa: $rsp 64 +
STACK CFI INIT 495c8 71 .cfa: $rsp 8 + .ra: .cfa 8 - ^
STACK CFI 495c8 .cfa: $rsp 64 +
STACK CFI INIT 49658 40 .cfa: $rsp 8 + .ra: .cfa 8 - ^
STACK CFI 49658 .cfa: $rsp 48 +
STACK CFI INIT 496a8 33 .cfa: $rsp 8 + .ra: .cfa 8 - ^
STACK CFI 496a8 .cfa: $rsp 48 +
STACK CFI INIT 496e8 4f .cfa: $rsp 8 + .ra: .cfa 8 - ^
STACK CFI 496e8 .cfa: $rsp 48 +
STACK CFI INIT 4974c 42 .cfa: $rsp 8 + .ra: .cfa 8 - ^
STACK CFI 4974c .cfa: $rsp 48 +
STACK CFI INIT 497a0 6d .cfa: $rsp 8 + .ra: .cfa 8 - ^
STACK CFI 497a0 .cfa: $rsp 48 +
STACK CFI INIT 49828 2e .cfa: $rsp 8 + .ra: .cfa 8 - ^
STACK CFI 49828 .cfa: $rsp 48 +
STACK CFI INIT 49864 2e .cfa: $rsp 8 + .ra: .cfa 8 - ^
STACK CFI 49864 .cfa: $rsp 48 +
STACK CFI INIT 498a0 15a .cfa: $rsp 8 + .ra: .cfa 8 - ^
STACK CFI 498a0 .cfa: $rsp 48 +
STACK CFI INIT 49a50 78 .cfa: $rsp 8 + .ra: .cfa 8 - ^
STACK CFI 49a50 .cfa: $rsp 48 +
STACK CFI INIT 49ae8 31 .cfa: $rsp 8 + .ra: .cfa 8 - ^
STACK CFI 49ae8 .cfa: $rsp 8 +
STACK CFI INIT 49b28 c6 .cfa: $rsp 8 + .ra: .cfa 8 - ^
STACK CFI 49b28 .cfa: $rsp 96 +
STACK CFI INIT 49c20 41 .cfa: $rsp 8 + .ra: .cfa 8 - ^
STACK CFI 49c20 .cfa: $rsp 48 +
STACK CFI INIT 49c8c b1 .cfa: $rsp 8 + .ra: .cfa 8 - ^
STACK CFI 49c8c .cfa: $rsp 64 +
STACK CFI INIT 49d6c 9a .cfa: $rsp 8 + .ra: .cfa 8 - ^
STACK CFI 49d6c .cfa: $rsp 48 +
STACK CFI INIT 49e2c e0 .cfa: $rsp 8 + .ra: .cfa 8 - ^
STACK CFI 49e2c .cfa: $rsp 128 +
STACK CFI INIT 49f44 40 .cfa: $rsp 8 + .ra: .cfa 8 - ^
STACK CFI 49f44 .cfa: $rsp 48 +
STACK CFI INIT 49f94 26 .cfa: $rsp 8 + .ra: .cfa 8 - ^
STACK CFI 49f94 .cfa: $rsp 48 +
STACK CFI INIT 49fc4 28 .cfa: $rsp 8 + .ra: .cfa 8 - ^
STACK CFI 49fc4 .cfa: $rsp 48 +
STACK CFI INIT 49ff8 28 .cfa: $rsp 8 + .ra: .cfa 8 - ^
STACK CFI 49ff8 .cfa: $rsp 48 +
STACK CFI INIT 4a0e0 ae .cfa: $rsp 8 + .ra: .cfa 8 - ^
STACK CFI 4a0e0 .cfa: $rsp 112 +
STACK CFI INIT 4a1c8 78 .cfa: $rsp 8 + .ra: .cfa 8 - ^
STACK CFI 4a1c8 .cfa: $rsp 48 +
STACK CFI INIT 4a284 5d .cfa: $rsp 8 + .ra: .cfa 8 - ^
STACK CFI 4a284 .cfa: $rsp 80 +
STACK CFI INIT 4a390 7a .cfa: $rsp 8 + .ra: .cfa 8 - ^
STACK CFI 4a390 .cfa: $rsp 48 +
STACK CFI INIT 4a428 4b .cfa: $rsp 8 + .ra: .cfa 8 - ^
STACK CFI 4a428 .cfa: $rsp 48 +
STACK CFI INIT 4a490 66 .cfa: $rsp 8 + .ra: .cfa 8 - ^
STACK CFI 4a490 .cfa: $rsp 64 +
STACK CFI INIT 4a520 40 .cfa: $rsp 8 + .ra: .cfa 8 - ^
STACK CFI 4a520 .cfa: $rsp 48 +
STACK CFI INIT 4a570 40 .cfa: $rsp 8 + .ra: .cfa 8 - ^
STACK CFI 4a570 .cfa: $rsp 48 +
STACK CFI INIT 4a5c0 86 .cfa: $rsp 8 + .ra: .cfa 8 - ^
STACK CFI 4a5c0 .cfa: $rsp 48 +
STACK CFI INIT 4a668 7f .cfa: $rsp 8 + .ra: .cfa 8 - ^
STACK CFI 4a668 .cfa: $rsp 48 +
STACK CFI INIT 4a708 6c .cfa: $rsp 8 + .ra: .cfa 8 - ^
STACK CFI 4a708 .cfa: $rsp 48 +
STACK CFI INIT 4a790 65 .cfa: $rsp 8 + .ra: .cfa 8 - ^
STACK CFI 4a790 .cfa: $rsp 48 +
STACK CFI INIT 4a810 db .cfa: $rsp 8 + .ra: .cfa 8 - ^
STACK CFI 4a810 .cfa: $rsp 48 +
STACK CFI INIT 4a924 e4 .cfa: $rsp 8 + .ra: .cfa 8 - ^
STACK CFI 4a924 .cfa: $rsp 48 +
STACK CFI INIT 4aa44 a3 .cfa: $rsp 8 + .ra: .cfa 8 - ^
STACK CFI 4aa44 .cfa: $rsp 48 +
STACK CFI INIT 4ab10 a4 .cfa: $rsp 8 + .ra: .cfa 8 - ^
STACK CFI 4ab10 .cfa: $rsp 48 +
STACK CFI INIT 4ac58 a3 .cfa: $rsp 8 + .ra: .cfa 8 - ^
STACK CFI 4ac58 .cfa: $rsp 48 +
STACK CFI INIT 4ad24 a4 .cfa: $rsp 8 + .ra: .cfa 8 - ^
STACK CFI 4ad24 .cfa: $rsp 48 +
STACK CFI INIT 4ae24 179 .cfa: $rsp 8 + .ra: .cfa 8 - ^
STACK CFI 4ae24 .cfa: $rsp 64 +
STACK CFI INIT 4affc 18b .cfa: $rsp 8 + .ra: .cfa 8 - ^
STACK CFI 4affc .cfa: $rsp 80 +
STACK CFI INIT 4b1ec 176 .cfa: $rsp 8 + .ra: .cfa 8 - ^
STACK CFI 4b1ec .cfa: $rsp 64 +
STACK CFI INIT 4b3c0 18a .cfa: $rsp 8 + .ra: .cfa 8 - ^
STACK CFI 4b3c0 .cfa: $rsp 80 +
STACK CFI INIT 4b5ac 209 .cfa: $rsp 8 + .ra: .cfa 8 - ^
STACK CFI 4b5ac .cfa: $rsp 160 +
STACK CFI INIT 4b838 3ca .cfa: $rsp 8 + .ra: .cfa 8 - ^
STACK CFI 4b838 .cfa: $rsp 768 +
STACK CFI INIT 4bcf4 187 .cfa: $rsp 8 + .ra: .cfa 8 - ^
STACK CFI 4bcf4 .cfa: $rsp 96 +
STACK CFI INIT 4bedc 189 .cfa: $rsp 8 + .ra: .cfa 8 - ^
STACK CFI 4bedc .cfa: $rsp 96 +
STACK CFI INIT 4c0c8 30e .cfa: $rsp 8 + .ra: .cfa 8 - ^
STACK CFI 4c0c8 .cfa: $rsp 880 +
STACK CFI INIT 4c49c 19b .cfa: $rsp 8 + .ra: .cfa 8 - ^
STACK CFI 4c49c .cfa: $rsp 704 +
STACK CFI INIT 4c7f8 22 .cfa: $rsp 8 + .ra: .cfa 8 - ^
STACK CFI 4c7f8 .cfa: $rsp 48 +
STACK CFI INIT 4c824 22 .cfa: $rsp 8 + .ra: .cfa 8 - ^
STACK CFI 4c824 .cfa: $rsp 48 +
STACK CFI INIT 4c850 22 .cfa: $rsp 8 + .ra: .cfa 8 - ^
STACK CFI 4c850 .cfa: $rsp 48 +
STACK CFI INIT 4c87c 3d .cfa: $rsp 8 + .ra: .cfa 8 - ^
STACK CFI 4c87c .cfa: $rsp 48 +
STACK CFI INIT 4c8c8 3d .cfa: $rsp 8 + .ra: .cfa 8 - ^
STACK CFI 4c8c8 .cfa: $rsp 48 +
STACK CFI INIT 4c944 25 .cfa: $rsp 8 + .ra: .cfa 8 - ^
STACK CFI 4c944 .cfa: $rsp 64 +
STACK CFI INIT 4c9e4 2f .cfa: $rsp 8 + .ra: .cfa 8 - ^
STACK CFI 4c9e4 .cfa: $rsp 80 +
STACK CFI INIT 4ca20 49 .cfa: $rsp 8 + .ra: .cfa 8 - ^
STACK CFI 4ca20 .cfa: $rsp 80 +
STACK CFI INIT 4ca7c 22 .cfa: $rsp 8 + .ra: .cfa 8 - ^
STACK CFI 4ca7c .cfa: $rsp 48 +
STACK CFI INIT 4caa8 22 .cfa: $rsp 8 + .ra: .cfa 8 - ^
STACK CFI 4caa8 .cfa: $rsp 48 +
STACK CFI INIT 4cad4 5b .cfa: $rsp 8 + .ra: .cfa 8 - ^
STACK CFI 4cad4 .cfa: $rsp 48 +
STACK CFI INIT 4cb48 5c .cfa: $rsp 8 + .ra: .cfa 8 - ^
STACK CFI 4cb48 .cfa: $rsp 48 +
STACK CFI INIT 4cbbc 24 .cfa: $rsp 8 + .ra: .cfa 8 - ^
STACK CFI 4cbbc .cfa: $rsp 48 +
STACK CFI INIT 4cbec de .cfa: $rsp 8 + .ra: .cfa 8 - ^
STACK CFI 4cbec .cfa: $rsp 48 +
STACK CFI INIT 4cd04 de .cfa: $rsp 8 + .ra: .cfa 8 - ^
STACK CFI 4cd04 .cfa: $rsp 48 +
STACK CFI INIT 4ce34 22 .cfa: $rsp 8 + .ra: .cfa 8 - ^
STACK CFI 4ce34 .cfa: $rsp 48 +
STACK CFI INIT 4ce60 14 .cfa: $rsp 8 + .ra: .cfa 8 - ^
STACK CFI 4ce60 .cfa: $rsp 48 +
STACK CFI INIT 4ceac c7 .cfa: $rsp 8 + .ra: .cfa 8 - ^
STACK CFI 4ceac .cfa: $rsp 48 +
STACK CFI INIT 4cfa4 c7 .cfa: $rsp 8 + .ra: .cfa 8 - ^
STACK CFI 4cfa4 .cfa: $rsp 48 +
STACK CFI INIT 4d0a0 9d .cfa: $rsp 8 + .ra: .cfa 8 - ^
STACK CFI 4d0a0 .cfa: $rsp 80 +
STACK CFI INIT 4d174 9d .cfa: $rsp 8 + .ra: .cfa 8 - ^
STACK CFI 4d174 .cfa: $rsp 80 +
STACK CFI INIT 4d248 31 .cfa: $rsp 8 + .ra: .cfa 8 - ^
STACK CFI 4d248 .cfa: $rsp 48 +
STACK CFI INIT 4d288 31 .cfa: $rsp 8 + .ra: .cfa 8 - ^
STACK CFI 4d288 .cfa: $rsp 48 +
STACK CFI INIT 4d318 119 .cfa: $rsp 8 + .ra: .cfa 8 - ^
STACK CFI 4d318 .cfa: $rsp 80 +
STACK CFI INIT 4d478 111 .cfa: $rsp 8 + .ra: .cfa 8 - ^
STACK CFI 4d478 .cfa: $rsp 80 +
STACK CFI INIT 4d604 2f .cfa: $rsp 8 + .ra: .cfa 8 - ^
STACK CFI 4d604 .cfa: $rsp 80 +
STACK CFI INIT 4d650 30 .cfa: $rsp 8 + .ra: .cfa 8 - ^
STACK CFI 4d650 .cfa: $rsp 48 +
STACK CFI INIT 4d68c 17 .cfa: $rsp 8 + .ra: .cfa 8 - ^
STACK CFI 4d68c .cfa: $rsp 48 +
STACK CFI INIT 4d6ec 11e .cfa: $rsp 8 + .ra: .cfa 8 - ^
STACK CFI 4d6ec .cfa: $rsp 672 +
STACK CFI INIT 4d854 1ba .cfa: $rsp 8 + .ra: .cfa 8 - ^
STACK CFI 4d854 .cfa: $rsp 48 +
STACK CFI INIT 4da7c 26 .cfa: $rsp 8 + .ra: .cfa 8 - ^
STACK CFI 4da7c .cfa: $rsp 48 +
STACK CFI INIT 4dae4 1a0 .cfa: $rsp 8 + .ra: .cfa 8 - ^
STACK CFI 4dae4 .cfa: $rsp 48 +
STACK CFI INIT 4dd44 7d .cfa: $rsp 8 + .ra: .cfa 8 - ^
STACK CFI 4dd44 .cfa: $rsp 80 +
STACK CFI INIT 4dde0 27 .cfa: $rsp 8 + .ra: .cfa 8 - ^
STACK CFI 4dde0 .cfa: $rsp 8 +
STACK CFI INIT 4de10 90 .cfa: $rsp 8 + .ra: .cfa 8 - ^
STACK CFI 4de10 .cfa: $rsp 48 +
STACK CFI INIT 4dec4 1e3 .cfa: $rsp 8 + .ra: .cfa 8 - ^
STACK CFI 4dec4 .cfa: $rsp 1936 +
STACK CFI INIT 4e120 1c2 .cfa: $rsp 8 + .ra: .cfa 8 - ^
STACK CFI 4e120 .cfa: $rsp 96 +
STACK CFI INIT 4e354 b8 .cfa: $rsp 8 + .ra: .cfa 8 - ^
STACK CFI 4e354 .cfa: $rsp 48 +
STACK CFI INIT 4e440 60 .cfa: $rsp 8 + .ra: .cfa 8 - ^
STACK CFI 4e440 .cfa: $rsp 48 +
STACK CFI INIT 4e4b8 1c .cfa: $rsp 8 + .ra: .cfa 8 - ^
STACK CFI 4e4b8 .cfa: $rsp 48 +
STACK CFI INIT 4e4f4 3a .cfa: $rsp 8 + .ra: .cfa 8 - ^
STACK CFI 4e4f4 .cfa: $rsp 80 +
STACK CFI INIT 4e53c 25 .cfa: $rsp 8 + .ra: .cfa 8 - ^
STACK CFI 4e53c .cfa: $rsp 48 +
STACK CFI INIT 4e56c 2b9 .cfa: $rsp 8 + .ra: .cfa 8 - ^
STACK CFI 4e56c .cfa: $rsp 128 +
STACK CFI INIT 4e8d4 87 .cfa: $rsp 8 + .ra: .cfa 8 - ^
STACK CFI 4e8d4 .cfa: $rsp 48 +
STACK CFI INIT 4e97c 75 .cfa: $rsp 8 + .ra: .cfa 8 - ^
STACK CFI 4e97c .cfa: $rsp 80 +
STACK CFI INIT 4eb4c 65 .cfa: $rsp 8 + .ra: .cfa 8 - ^
STACK CFI 4eb4c .cfa: $rsp 80 +
STACK CFI INIT 4ee40 96 .cfa: $rsp 8 + .ra: .cfa 8 - ^
STACK CFI 4ee40 .cfa: $rsp 16 +
STACK CFI INIT 4ef04 21 .cfa: $rsp 8 + .ra: .cfa 8 - ^
STACK CFI 4ef04 .cfa: $rsp 48 +
STACK CFI INIT 4ef3c 21 .cfa: $rsp 8 + .ra: .cfa 8 - ^
STACK CFI 4ef3c .cfa: $rsp 48 +
STACK CFI INIT 4ef68 11 .cfa: $rsp 8 + .ra: .cfa 8 - ^
STACK CFI 4ef68 .cfa: $rsp 48 +
STACK CFI INIT 4efc0 101 .cfa: $rsp 8 + .ra: .cfa 8 - ^
STACK CFI 4efc0 .cfa: $rsp 80 +
STACK CFI INIT 4f104 9f .cfa: $rsp 8 + .ra: .cfa 8 - ^
STACK CFI 4f104 .cfa: $rsp 48 +
STACK CFI INIT 4f1cc 320 .cfa: $rsp 8 + .ra: .cfa 8 - ^
STACK CFI 4f1cc .cfa: $rsp 112 +
STACK CFI INIT 4f5b4 322 .cfa: $rsp 8 + .ra: .cfa 8 - ^
STACK CFI 4f5b4 .cfa: $rsp 96 +
STACK CFI INIT 4f9a0 e5 .cfa: $rsp 8 + .ra: .cfa 8 - ^
STACK CFI 4f9a0 .cfa: $rsp 64 +
STACK CFI INIT 4fac0 ef .cfa: $rsp 8 + .ra: .cfa 8 - ^
STACK CFI 4fac0 .cfa: $rsp 64 +
STACK CFI INIT 4fbec 25 .cfa: $rsp 8 + .ra: .cfa 8 - ^
STACK CFI 4fbec .cfa: $rsp 48 +
STACK CFI INIT 4fc1c 25 .cfa: $rsp 8 + .ra: .cfa 8 - ^
STACK CFI 4fc1c .cfa: $rsp 48 +
STACK CFI INIT 4fc4c 81 .cfa: $rsp 8 + .ra: .cfa 8 - ^
STACK CFI 4fc4c .cfa: $rsp 48 +
STACK CFI INIT 4fcf0 91 .cfa: $rsp 8 + .ra: .cfa 8 - ^
STACK CFI 4fcf0 .cfa: $rsp 48 +
STACK CFI INIT 4ff08 48 .cfa: $rsp 8 + .ra: .cfa 8 - ^
STACK CFI 4ff08 .cfa: $rsp 48 +
STACK CFI INIT 4ff84 37 .cfa: $rsp 8 + .ra: .cfa 8 - ^
STACK CFI 4ff84 .cfa: $rsp 48 +
STACK CFI INIT 4ffe8 1b .cfa: $rsp 8 + .ra: .cfa 8 - ^
STACK CFI 4ffe8 .cfa: $rsp 48 +
STACK CFI INIT 50020 4c .cfa: $rsp 8 + .ra: .cfa 8 - ^
STACK CFI 50020 .cfa: $rsp 48 +
STACK CFI INIT 50080 4c .cfa: $rsp 8 + .ra: .cfa 8 - ^
STACK CFI 50080 .cfa: $rsp 48 +
STACK CFI INIT 500e0 69 .cfa: $rsp 8 + .ra: .cfa 8 - ^
STACK CFI 500e0 .cfa: $rsp 48 +
STACK CFI INIT 50164 38 .cfa: $rsp 8 + .ra: .cfa 8 - ^
STACK CFI 50164 .cfa: $rsp 48 +
STACK CFI INIT 50228 51 .cfa: $rsp 8 + .ra: .cfa 8 - ^
STACK CFI 50228 .cfa: $rsp 48 +
STACK CFI INIT 50290 51 .cfa: $rsp 8 + .ra: .cfa 8 - ^
STACK CFI 50290 .cfa: $rsp 48 +
STACK CFI INIT 502f8 3c .cfa: $rsp 8 + .ra: .cfa 8 - ^
STACK CFI 502f8 .cfa: $rsp 48 +
STACK CFI INIT 50344 6c .cfa: $rsp 8 + .ra: .cfa 8 - ^
STACK CFI 50344 .cfa: $rsp 48 +
STACK CFI INIT 503e0 1b .cfa: $rsp 8 + .ra: .cfa 8 - ^
STACK CFI 503e0 .cfa: $rsp 48 +
STACK CFI INIT 5042c 1b .cfa: $rsp 8 + .ra: .cfa 8 - ^
STACK CFI 5042c .cfa: $rsp 48 +
STACK CFI INIT 50450 a5 .cfa: $rsp 8 + .ra: .cfa 8 - ^
STACK CFI 50450 .cfa: $rsp 48 +
STACK CFI INIT 50520 50 .cfa: $rsp 8 + .ra: .cfa 8 - ^
STACK CFI 50520 .cfa: $rsp 48 +
STACK CFI INIT 50584 a8 .cfa: $rsp 8 + .ra: .cfa 8 - ^
STACK CFI 50584 .cfa: $rsp 64 +
STACK CFI INIT 50688 bf .cfa: $rsp 8 + .ra: .cfa 8 - ^
STACK CFI 50688 .cfa: $rsp 48 +
STACK CFI INIT 507a8 13e .cfa: $rsp 8 + .ra: .cfa 8 - ^
STACK CFI 507a8 .cfa: $rsp 80 +
STACK CFI INIT 50938 ba .cfa: $rsp 8 + .ra: .cfa 8 - ^
STACK CFI 50938 .cfa: $rsp 48 +
STACK CFI INIT 50a20 75 .cfa: $rsp 8 + .ra: .cfa 8 - ^
STACK CFI 50a20 .cfa: $rsp 48 +
STACK CFI INIT 50ab4 101 .cfa: $rsp 8 + .ra: .cfa 8 - ^
STACK CFI 50ab4 .cfa: $rsp 64 +
STACK CFI INIT 50c2c 1b .cfa: $rsp 8 + .ra: .cfa 8 - ^
STACK CFI 50c2c .cfa: $rsp 48 +
STACK CFI INIT 50c50 1b .cfa: $rsp 8 + .ra: .cfa 8 - ^
STACK CFI 50c50 .cfa: $rsp 48 +
STACK CFI INIT 50c8c 1b .cfa: $rsp 8 + .ra: .cfa 8 - ^
STACK CFI 50c8c .cfa: $rsp 48 +
STACK CFI INIT 50cb0 1b .cfa: $rsp 8 + .ra: .cfa 8 - ^
STACK CFI 50cb0 .cfa: $rsp 48 +
STACK CFI INIT 50cd4 2f .cfa: $rsp 8 + .ra: .cfa 8 - ^
STACK CFI 50cd4 .cfa: $rsp 48 +
STACK CFI INIT 50d10 2f .cfa: $rsp 8 + .ra: .cfa 8 - ^
STACK CFI 50d10 .cfa: $rsp 48 +
STACK CFI INIT 50d4c 32 .cfa: $rsp 8 + .ra: .cfa 8 - ^
STACK CFI 50d4c .cfa: $rsp 48 +
STACK CFI INIT 50d8c 2f .cfa: $rsp 8 + .ra: .cfa 8 - ^
STACK CFI 50d8c .cfa: $rsp 48 +
STACK CFI INIT 50ddc 64d .cfa: $rsp 8 + .ra: .cfa 8 - ^
STACK CFI 50ddc .cfa: $rsp 208 +
STACK CFI INIT 515d0 1b .cfa: $rsp 8 + .ra: .cfa 8 - ^
STACK CFI 515d0 .cfa: $rsp 48 +
STACK CFI INIT 51600 1b .cfa: $rsp 8 + .ra: .cfa 8 - ^
STACK CFI 51600 .cfa: $rsp 48 +
